
mover.elf:     file format elf64-littleriscv


Disassembly of section .text:

000000fff1010000 <spl_reloc>:
  fff1010000:	0110039b          	addiw	t2,zero,17
  fff1010004:	03ee                	slli	t2,t2,0x1b
  fff1010006:	4105                	li	sp,1
  fff1010008:	0823a1af          	amoswap.w	gp,sp,(t2)
  fff101000c:	00018363          	beqz	gp,fff1010012 <memcpy>
  fff1010010:	a035                	j	fff101003c <acquire_loop>

000000fff1010012 <memcpy>:
  fff1010012:	00000097          	auipc	ra,0x0
  fff1010016:	06e08093          	addi	ra,ra,110 # fff1010080 <spl>
  fff101001a:	0410011b          	addiw	sp,zero,65
  fff101001e:	0166                	slli	sp,sp,0x19
  fff1010020:	61c1                	lui	gp,0x10
  fff1010022:	0410021b          	addiw	tp,zero,65
  fff1010026:	0266                	slli	tp,tp,0x19
  fff1010028:	4281                	li	t0,0
  fff101002a:	0032de63          	bge	t0,gp,fff1010046 <jmp_to_reloc>
  fff101002e:	0000b303          	ld	t1,0(ra)
  fff1010032:	e01a                	sd	t1,0(sp)
  fff1010034:	00a1                	addi	ra,ra,8
  fff1010036:	0121                	addi	sp,sp,8
  fff1010038:	02a1                	addi	t0,t0,8
  fff101003a:	bfc5                	j	fff101002a <memcpy+0x18>

000000fff101003c <acquire_loop>:
  fff101003c:	0003a183          	lw	gp,0(t2)
  fff1010040:	00018363          	beqz	gp,fff1010046 <jmp_to_reloc>
  fff1010044:	bfe5                	j	fff101003c <acquire_loop>

000000fff1010046 <jmp_to_reloc>:
  fff1010046:	4101                	li	sp,0
  fff1010048:	0823a12f          	amoswap.w	sp,sp,(t2)
  fff101004c:	0410021b          	addiw	tp,zero,65
  fff1010050:	0266                	slli	tp,tp,0x19
  fff1010052:	8202                	jr	tp

Disassembly of section .rodata.spl:

000000fff1010080 <spl>:
  fff1010080:	f1402573          	csrr	a0,mhartid
  fff1010084:	822a                	mv	tp,a0
  fff1010086:	84ae                	mv	s1,a1
  fff1010088:	00000193          	li	gp,0
  fff101008c:	00009297          	auipc	t0,0x9
  fff1010090:	cdc2b283          	ld	t0,-804(t0) # fff1018d68 <spl+0x8ce8>
  fff1010094:	30529073          	csrw	mtvec,t0
  fff1010098:	30401073          	csrw	mie,zero
  fff101009c:	02000293          	li	t0,32
  fff10100a0:	22525a63          	bge	tp,t0,fff10102d4 <spl+0x254>
  fff10100a4:	42a1                	li	t0,8
  fff10100a6:	3042a073          	csrs	mie,t0
  fff10100aa:	52c1                	li	t0,-16
  fff10100ac:	0210031b          	addiw	t1,zero,33
  fff10100b0:	036a                	slli	t1,t1,0x1a
  fff10100b2:	e8030313          	addi	t1,t1,-384
  fff10100b6:	00537133          	and	sp,t1,t0
  fff10100ba:	850a                	mv	a0,sp
  fff10100bc:	79f000ef          	jal	ra,fff101105a <spl+0xfda>
  fff10100c0:	842a                	mv	s0,a0
  fff10100c2:	00e21293          	slli	t0,tp,0xe
  fff10100c6:	40550133          	sub	sp,a0,t0
  fff10100ca:	29c000ef          	jal	ra,fff1010366 <spl+0x2e6>
  fff10100ce:	00009297          	auipc	t0,0x9
  fff10100d2:	d1a2b283          	ld	t0,-742(t0) # fff1018de8 <spl+0x8d68>
  fff10100d6:	4305                	li	t1,1
  fff10100d8:	0862a92f          	amoswap.w	s2,t1,(t0)
  fff10100dc:	00091f63          	bnez	s2,fff10100fa <spl+0x7a>
  fff10100e0:	8522                	mv	a0,s0
  fff10100e2:	787000ef          	jal	ra,fff1011068 <spl+0xfe8>
  fff10100e6:	1491b823          	sd	s1,336(gp) # 10150 <ROM_BASE-0xfff0fffeb0>
  fff10100ea:	1441b423          	sd	tp,328(gp)
  fff10100ee:	00009297          	auipc	t0,0x9
  fff10100f2:	ba22b283          	ld	t0,-1118(t0) # fff1018c90 <spl+0x8c10>
  fff10100f6:	0a02a02f          	amoswap.w.rl	zero,zero,(t0)
  fff10100fa:	81a2                	mv	gp,s0
  fff10100fc:	00009297          	auipc	t0,0x9
  fff1010100:	b942b283          	ld	t0,-1132(t0) # fff1018c90 <spl+0x8c10>
  fff1010104:	4305                	li	t1,1
  fff1010106:	0c62a32f          	amoswap.w.aq	t1,t1,(t0)
  fff101010a:	fe031ee3          	bnez	t1,fff1010106 <spl+0x86>
  fff101010e:	4305                	li	t1,1
  fff1010110:	00431333          	sll	t1,t1,tp
  fff1010114:	5601b383          	ld	t2,1376(gp)
  fff1010118:	0063e3b3          	or	t2,t2,t1
  fff101011c:	5671b023          	sd	t2,1376(gp)
  fff1010120:	0a02a02f          	amoswap.w.rl	zero,zero,(t0)
  fff1010124:	1c091063          	bnez	s2,fff10102e4 <spl+0x264>
  fff1010128:	2e4000ef          	jal	ra,fff101040c <spl+0x38c>
  fff101012c:	2e2000ef          	jal	ra,fff101040e <spl+0x38e>
  fff1010130:	00000513          	li	a0,0
  fff1010134:	00009f17          	auipc	t5,0x9
  fff1010138:	c5cf3f03          	ld	t5,-932(t5) # fff1018d90 <spl+0x8d10>
  fff101013c:	9f02                	jalr	t5
  fff101013e:	00009297          	auipc	t0,0x9
  fff1010142:	c222b283          	ld	t0,-990(t0) # fff1018d60 <spl+0x8ce0>
  fff1010146:	00009317          	auipc	t1,0x9
  fff101014a:	bca33303          	ld	t1,-1078(t1) # fff1018d10 <spl+0x8c90>
  fff101014e:	00628763          	beq	t0,t1,fff101015c <spl+0xdc>
  fff1010152:	0002b023          	sd	zero,0(t0)
  fff1010156:	02a1                	addi	t0,t0,8
  fff1010158:	fe62cde3          	blt	t0,t1,fff1010152 <spl+0xd2>
  fff101015c:	417000ef          	jal	ra,fff1010d72 <spl+0xcf2>
  fff1010160:	c91d                	beqz	a0,fff1010196 <spl+0x116>
  fff1010162:	842a                	mv	s0,a0
  fff1010164:	00e21293          	slli	t0,tp,0xe
  fff1010168:	40540133          	sub	sp,s0,t0
  fff101016c:	00009517          	auipc	a0,0x9
  fff1010170:	af453503          	ld	a0,-1292(a0) # fff1018c60 <spl+0x8be0>
  fff1010174:	85a2                	mv	a1,s0
  fff1010176:	8622                	mv	a2,s0
  fff1010178:	00000693          	li	a3,0
  fff101017c:	532000ef          	jal	ra,fff10106ae <spl+0x62e>
  fff1010180:	c911                	beqz	a0,fff1010194 <spl+0x114>
  fff1010182:	85aa                	mv	a1,a0
  fff1010184:	00009517          	auipc	a0,0x9
  fff1010188:	ad453503          	ld	a0,-1324(a0) # fff1018c58 <spl+0x8bd8>
  fff101018c:	0ae020ef          	jal	ra,fff101223a <spl+0x21ba>
  fff1010190:	32b010ef          	jal	ra,fff1011cba <spl+0x1c3a>
  fff1010194:	81a2                	mv	gp,s0
  fff1010196:	00000513          	li	a0,0
  fff101019a:	00000593          	li	a1,0
  fff101019e:	26d000ef          	jal	ra,fff1010c0a <spl+0xb8a>
  fff10101a2:	892a                	mv	s2,a0
  fff10101a4:	89ae                	mv	s3,a1
  fff10101a6:	8a32                	mv	s4,a2
  fff10101a8:	00e21293          	slli	t0,tp,0xe
  fff10101ac:	40590133          	sub	sp,s2,t0
  fff10101b0:	00009297          	auipc	t0,0x9
  fff10101b4:	b882b283          	ld	t0,-1144(t0) # fff1018d38 <spl+0x8cb8>
  fff10101b8:	405a0fb3          	sub	t6,s4,t0
  fff10101bc:	0b428663          	beq	t0,s4,fff1010268 <spl+0x1e8>
  fff10101c0:	8352                	mv	t1,s4
  fff10101c2:	00009e17          	auipc	t3,0x9
  fff10101c6:	b9ee3e03          	ld	t3,-1122(t3) # fff1018d60 <spl+0x8ce0>
  fff10101ca:	405e0e33          	sub	t3,t3,t0
  fff10101ce:	01c283b3          	add	t2,t0,t3
  fff10101d2:	0002bf03          	ld	t5,0(t0)
  fff10101d6:	02a1                	addi	t0,t0,8
  fff10101d8:	01e33023          	sd	t5,0(t1)
  fff10101dc:	0321                	addi	t1,t1,8
  fff10101de:	fe72cae3          	blt	t0,t2,fff10101d2 <spl+0x152>
  fff10101e2:	00009317          	auipc	t1,0x9
  fff10101e6:	a9633303          	ld	t1,-1386(t1) # fff1018c78 <spl+0x8bf8>
  fff10101ea:	00009397          	auipc	t2,0x9
  fff10101ee:	bee3b383          	ld	t2,-1042(t2) # fff1018dd8 <spl+0x8d58>
  fff10101f2:	06730b63          	beq	t1,t2,fff1010268 <spl+0x1e8>
  fff10101f6:	937e                	add	t1,t1,t6
  fff10101f8:	93fe                	add	t2,t2,t6
  fff10101fa:	a8a9                	j	fff1010254 <spl+0x1d4>
  fff10101fc:	ff033f03          	ld	t5,-16(t1)
  fff1010200:	4e0d                	li	t3,3
  fff1010202:	01cf1b63          	bne	t5,t3,fff1010218 <spl+0x198>
  fff1010206:	fe833e03          	ld	t3,-24(t1)
  fff101020a:	ff833f03          	ld	t5,-8(t1)
  fff101020e:	9f7e                	add	t5,t5,t6
  fff1010210:	9e7e                	add	t3,t3,t6
  fff1010212:	01ee3023          	sd	t5,0(t3)
  fff1010216:	a83d                	j	fff1010254 <spl+0x1d4>
  fff1010218:	00009e97          	auipc	t4,0x9
  fff101021c:	bc8ebe83          	ld	t4,-1080(t4) # fff1018de0 <spl+0x8d60>
  fff1010220:	9efe                	add	t4,t4,t6
  fff1010222:	ff033f03          	ld	t5,-16(t1)
  fff1010226:	020f5293          	srli	t0,t5,0x20
  fff101022a:	0fff7f13          	zext.b	t5,t5
  fff101022e:	4e09                	li	t3,2
  fff1010230:	03cf1263          	bne	t5,t3,fff1010254 <spl+0x1d4>
  fff1010234:	fe833e03          	ld	t3,-24(t1)
  fff1010238:	4f61                	li	t5,24
  fff101023a:	03e282b3          	mul	t0,t0,t5
  fff101023e:	005e8ab3          	add	s5,t4,t0
  fff1010242:	ff833283          	ld	t0,-8(t1)
  fff1010246:	008abf03          	ld	t5,8(s5)
  fff101024a:	9f16                	add	t5,t5,t0
  fff101024c:	9f7e                	add	t5,t5,t6
  fff101024e:	9e7e                	add	t3,t3,t6
  fff1010250:	01ee3023          	sd	t5,0(t3)
  fff1010254:	0361                	addi	t1,t1,24
  fff1010256:	fa63d3e3          	bge	t2,t1,fff10101fc <spl+0x17c>
  fff101025a:	00009297          	auipc	t0,0x9
  fff101025e:	b0e2b283          	ld	t0,-1266(t0) # fff1018d68 <spl+0x8ce8>
  fff1010262:	92fe                	add	t0,t0,t6
  fff1010264:	30529073          	csrw	mtvec,t0
  fff1010268:	00009297          	auipc	t0,0x9
  fff101026c:	af82b283          	ld	t0,-1288(t0) # fff1018d60 <spl+0x8ce0>
  fff1010270:	92fe                	add	t0,t0,t6
  fff1010272:	00009317          	auipc	t1,0x9
  fff1010276:	a9e33303          	ld	t1,-1378(t1) # fff1018d10 <spl+0x8c90>
  fff101027a:	937e                	add	t1,t1,t6
  fff101027c:	00628763          	beq	t0,t1,fff101028a <spl+0x20a>
  fff1010280:	0002b023          	sd	zero,0(t0)
  fff1010284:	02a1                	addi	t0,t0,8
  fff1010286:	fe62cde3          	blt	t0,t1,fff1010280 <spl+0x200>
  fff101028a:	00009297          	auipc	t0,0x9
  fff101028e:	9d62b283          	ld	t0,-1578(t0) # fff1018c60 <spl+0x8be0>
  fff1010292:	01f28533          	add	a0,t0,t6
  fff1010296:	8afe                	mv	s5,t6
  fff1010298:	85ca                	mv	a1,s2
  fff101029a:	864e                	mv	a2,s3
  fff101029c:	00000693          	li	a3,0
  fff10102a0:	40e000ef          	jal	ra,fff10106ae <spl+0x62e>
  fff10102a4:	c911                	beqz	a0,fff10102b8 <spl+0x238>
  fff10102a6:	85aa                	mv	a1,a0
  fff10102a8:	00009517          	auipc	a0,0x9
  fff10102ac:	9b053503          	ld	a0,-1616(a0) # fff1018c58 <spl+0x8bd8>
  fff10102b0:	78b010ef          	jal	ra,fff101223a <spl+0x21ba>
  fff10102b4:	207010ef          	jal	ra,fff1011cba <spl+0x1c3a>
  fff10102b8:	8fd6                	mv	t6,s5
  fff10102ba:	148000ef          	jal	ra,fff1010402 <spl+0x382>
  fff10102be:	14a000ef          	jal	ra,fff1010408 <spl+0x388>
  fff10102c2:	00009297          	auipc	t0,0x9
  fff10102c6:	a662b283          	ld	t0,-1434(t0) # fff1018d28 <spl+0x8ca8>
  fff10102ca:	01f28eb3          	add	t4,t0,t6
  fff10102ce:	854e                	mv	a0,s3
  fff10102d0:	85d2                	mv	a1,s4
  fff10102d2:	8e82                	jr	t4
  fff10102d4:	10500073          	wfi
  fff10102d8:	bff5                	j	fff10102d4 <spl+0x254>
  fff10102da:	00e21293          	slli	t0,tp,0xe
  fff10102de:	40558133          	sub	sp,a1,t0
  fff10102e2:	81b2                	mv	gp,a2
  fff10102e4:	10500073          	wfi
  fff10102e8:	344022f3          	csrr	t0,mip
  fff10102ec:	0082f293          	andi	t0,t0,8
  fff10102f0:	fe028ae3          	beqz	t0,fff10102e4 <spl+0x264>
  fff10102f4:	8512                	mv	a0,tp
  fff10102f6:	32c000ef          	jal	ra,fff1010622 <spl+0x5a2>
  fff10102fa:	b7ed                	j	fff10102e4 <spl+0x264>
  fff10102fc:	8082                	ret
  fff10102fe:	1141                	addi	sp,sp,-16
  fff1010300:	e406                	sd	ra,8(sp)
  fff1010302:	3d7050ef          	jal	ra,fff1015ed8 <spl+0x5e58>
  fff1010306:	ed29                	bnez	a0,fff1010360 <spl+0x2e0>
  fff1010308:	301027f3          	csrr	a5,misa
  fff101030c:	8ba1                	andi	a5,a5,8
  fff101030e:	c3b9                	beqz	a5,fff1010354 <spl+0x2d4>
  fff1010310:	6799                	lui	a5,0x6
  fff1010312:	3007a073          	csrs	mstatus,a5
  fff1010316:	00305073          	csrwi	fcsr,0
  fff101031a:	301027f3          	csrr	a5,misa
  fff101031e:	00100737          	lui	a4,0x100
  fff1010322:	8ff9                	and	a5,a5,a4
  fff1010324:	c399                	beqz	a5,fff101032a <spl+0x2aa>
  fff1010326:	3063d073          	csrwi	mcounteren,7
  fff101032a:	301027f3          	csrr	a5,misa
  fff101032e:	00040737          	lui	a4,0x40
  fff1010332:	8ff9                	and	a5,a5,a4
  fff1010334:	c399                	beqz	a5,fff101033a <spl+0x2ba>
  fff1010336:	18005073          	csrwi	satp,0
  fff101033a:	0d6000ef          	jal	ra,fff1010410 <spl+0x390>
  fff101033e:	e10d                	bnez	a0,fff1010360 <spl+0x2e0>
  fff1010340:	60a2                	ld	ra,8(sp)
  fff1010342:	4681                	li	a3,0
  fff1010344:	4601                	li	a2,0
  fff1010346:	4581                	li	a1,0
  fff1010348:	00000517          	auipc	a0,0x0
  fff101034c:	fb450513          	addi	a0,a0,-76 # fff10102fc <spl+0x27c>
  fff1010350:	0141                	addi	sp,sp,16
  fff1010352:	aeb1                	j	fff10106ae <spl+0x62e>
  fff1010354:	301027f3          	csrr	a5,misa
  fff1010358:	0207f793          	andi	a5,a5,32
  fff101035c:	fbd5                	bnez	a5,fff1010310 <spl+0x290>
  fff101035e:	bf75                	j	fff101031a <spl+0x29a>
  fff1010360:	60a2                	ld	ra,8(sp)
  fff1010362:	0141                	addi	sp,sp,16
  fff1010364:	8082                	ret
  fff1010366:	8082                	ret
  fff1010368:	7111                	addi	sp,sp,-256
  fff101036a:	e406                	sd	ra,8(sp)
  fff101036c:	e80a                	sd	sp,16(sp)
  fff101036e:	ec0e                	sd	gp,24(sp)
  fff1010370:	f012                	sd	tp,32(sp)
  fff1010372:	f416                	sd	t0,40(sp)
  fff1010374:	f81a                	sd	t1,48(sp)
  fff1010376:	fc1e                	sd	t2,56(sp)
  fff1010378:	e0a2                	sd	s0,64(sp)
  fff101037a:	e4a6                	sd	s1,72(sp)
  fff101037c:	e8aa                	sd	a0,80(sp)
  fff101037e:	ecae                	sd	a1,88(sp)
  fff1010380:	f0b2                	sd	a2,96(sp)
  fff1010382:	f4b6                	sd	a3,104(sp)
  fff1010384:	f8ba                	sd	a4,112(sp)
  fff1010386:	fcbe                	sd	a5,120(sp)
  fff1010388:	e142                	sd	a6,128(sp)
  fff101038a:	e546                	sd	a7,136(sp)
  fff101038c:	e94a                	sd	s2,144(sp)
  fff101038e:	ed4e                	sd	s3,152(sp)
  fff1010390:	f152                	sd	s4,160(sp)
  fff1010392:	f556                	sd	s5,168(sp)
  fff1010394:	f95a                	sd	s6,176(sp)
  fff1010396:	fd5e                	sd	s7,184(sp)
  fff1010398:	e1e2                	sd	s8,192(sp)
  fff101039a:	e5e6                	sd	s9,200(sp)
  fff101039c:	e9ea                	sd	s10,208(sp)
  fff101039e:	edee                	sd	s11,216(sp)
  fff10103a0:	f1f2                	sd	t3,224(sp)
  fff10103a2:	f5f6                	sd	t4,232(sp)
  fff10103a4:	f9fa                	sd	t5,240(sp)
  fff10103a6:	fdfe                	sd	t6,248(sp)
  fff10103a8:	34202573          	csrr	a0,mcause
  fff10103ac:	341025f3          	csrr	a1,mepc
  fff10103b0:	34302673          	csrr	a2,mtval
  fff10103b4:	868a                	mv	a3,sp
  fff10103b6:	1ea000ef          	jal	ra,fff10105a0 <spl+0x520>
  fff10103ba:	34151073          	csrw	mepc,a0
  fff10103be:	60a2                	ld	ra,8(sp)
  fff10103c0:	61e2                	ld	gp,24(sp)
  fff10103c2:	7202                	ld	tp,32(sp)
  fff10103c4:	72a2                	ld	t0,40(sp)
  fff10103c6:	7342                	ld	t1,48(sp)
  fff10103c8:	73e2                	ld	t2,56(sp)
  fff10103ca:	6406                	ld	s0,64(sp)
  fff10103cc:	64a6                	ld	s1,72(sp)
  fff10103ce:	6546                	ld	a0,80(sp)
  fff10103d0:	65e6                	ld	a1,88(sp)
  fff10103d2:	7606                	ld	a2,96(sp)
  fff10103d4:	76a6                	ld	a3,104(sp)
  fff10103d6:	7746                	ld	a4,112(sp)
  fff10103d8:	77e6                	ld	a5,120(sp)
  fff10103da:	680a                	ld	a6,128(sp)
  fff10103dc:	68aa                	ld	a7,136(sp)
  fff10103de:	694a                	ld	s2,144(sp)
  fff10103e0:	69ea                	ld	s3,152(sp)
  fff10103e2:	7a0a                	ld	s4,160(sp)
  fff10103e4:	7aaa                	ld	s5,168(sp)
  fff10103e6:	7b4a                	ld	s6,176(sp)
  fff10103e8:	7bea                	ld	s7,184(sp)
  fff10103ea:	6c0e                	ld	s8,192(sp)
  fff10103ec:	6cae                	ld	s9,200(sp)
  fff10103ee:	6d4e                	ld	s10,208(sp)
  fff10103f0:	6dee                	ld	s11,216(sp)
  fff10103f2:	7e0e                	ld	t3,224(sp)
  fff10103f4:	7eae                	ld	t4,232(sp)
  fff10103f6:	7f4e                	ld	t5,240(sp)
  fff10103f8:	7fee                	ld	t6,248(sp)
  fff10103fa:	6142                	ld	sp,16(sp)
  fff10103fc:	6111                	addi	sp,sp,256
  fff10103fe:	30200073          	mret
  fff1010402:	0000100f          	fence.i
  fff1010406:	8082                	ret
  fff1010408:	8082                	ret
  fff101040a:	8082                	ret
  fff101040c:	8082                	ret
  fff101040e:	8082                	ret
  fff1010410:	7179                	addi	sp,sp,-48
  fff1010412:	0030                	addi	a2,sp,8
  fff1010414:	00009597          	auipc	a1,0x9
  fff1010418:	8845b583          	ld	a1,-1916(a1) # fff1018c98 <spl+0x8c18>
  fff101041c:	07200513          	li	a0,114
  fff1010420:	f022                	sd	s0,32(sp)
  fff1010422:	f406                	sd	ra,40(sp)
  fff1010424:	ec26                	sd	s1,24(sp)
  fff1010426:	083030ef          	jal	ra,fff1013ca8 <spl+0x3c28>
  fff101042a:	842a                	mv	s0,a0
  fff101042c:	e919                	bnez	a0,fff1010442 <spl+0x3c2>
  fff101042e:	6522                	ld	a0,8(sp)
  fff1010430:	848e                	mv	s1,gp
  fff1010432:	070030ef          	jal	ra,fff10134a2 <spl+0x3422>
  fff1010436:	14a4bc23          	sd	a0,344(s1)
  fff101043a:	1581b783          	ld	a5,344(gp)
  fff101043e:	e391                	bnez	a5,fff1010442 <spl+0x3c2>
  fff1010440:	5429                	li	s0,-22
  fff1010442:	70a2                	ld	ra,40(sp)
  fff1010444:	8522                	mv	a0,s0
  fff1010446:	7402                	ld	s0,32(sp)
  fff1010448:	64e2                	ld	s1,24(sp)
  fff101044a:	6145                	addi	sp,sp,48
  fff101044c:	8082                	ret
  fff101044e:	1581b783          	ld	a5,344(gp)
  fff1010452:	0025151b          	slliw	a0,a0,0x2
  fff1010456:	953e                	add	a0,a0,a5
  fff1010458:	0550000f          	fence	ow,ow
  fff101045c:	4785                	li	a5,1
  fff101045e:	c11c                	sw	a5,0(a0)
  fff1010460:	4501                	li	a0,0
  fff1010462:	8082                	ret
  fff1010464:	1581b783          	ld	a5,344(gp)
  fff1010468:	0025151b          	slliw	a0,a0,0x2
  fff101046c:	953e                	add	a0,a0,a5
  fff101046e:	0550000f          	fence	ow,ow
  fff1010472:	00052023          	sw	zero,0(a0)
  fff1010476:	4501                	li	a0,0
  fff1010478:	8082                	ret
  fff101047a:	1581b783          	ld	a5,344(gp)
  fff101047e:	0025151b          	slliw	a0,a0,0x2
  fff1010482:	953e                	add	a0,a0,a5
  fff1010484:	411c                	lw	a5,0(a0)
  fff1010486:	2781                	sext.w	a5,a5
  fff1010488:	0aa0000f          	fence	ir,ir
  fff101048c:	4501                	li	a0,0
  fff101048e:	c19c                	sw	a5,0(a1)
  fff1010490:	8082                	ret
  fff1010492:	7179                	addi	sp,sp,-48
  fff1010494:	f022                	sd	s0,32(sp)
  fff1010496:	ec26                	sd	s1,24(sp)
  fff1010498:	e84a                	sd	s2,16(sp)
  fff101049a:	f406                	sd	ra,40(sp)
  fff101049c:	e44e                	sd	s3,8(sp)
  fff101049e:	47bd                	li	a5,15
  fff10104a0:	842e                	mv	s0,a1
  fff10104a2:	8932                	mv	s2,a2
  fff10104a4:	84b6                	mv	s1,a3
  fff10104a6:	0ea7e563          	bltu	a5,a0,fff1010590 <spl+0x510>
  fff10104aa:	050e                	slli	a0,a0,0x3
  fff10104ac:	00008797          	auipc	a5,0x8
  fff10104b0:	47478793          	addi	a5,a5,1140 # fff1018920 <spl+0x88a0>
  fff10104b4:	953e                	add	a0,a0,a5
  fff10104b6:	610c                	ld	a1,0(a0)
  fff10104b8:	00007517          	auipc	a0,0x7
  fff10104bc:	07050513          	addi	a0,a0,112 # fff1017528 <spl+0x74a8>
  fff10104c0:	57b010ef          	jal	ra,fff101223a <spl+0x21ba>
  fff10104c4:	6490                	ld	a2,8(s1)
  fff10104c6:	86ca                	mv	a3,s2
  fff10104c8:	85a2                	mv	a1,s0
  fff10104ca:	00007517          	auipc	a0,0x7
  fff10104ce:	09e50513          	addi	a0,a0,158 # fff1017568 <spl+0x74e8>
  fff10104d2:	569010ef          	jal	ra,fff101223a <spl+0x21ba>
  fff10104d6:	02018263          	beqz	gp,fff10104fa <spl+0x47a>
  fff10104da:	0081b703          	ld	a4,8(gp)
  fff10104de:	8b05                	andi	a4,a4,1
  fff10104e0:	cf09                	beqz	a4,fff10104fa <spl+0x47a>
  fff10104e2:	0981b583          	ld	a1,152(gp)
  fff10104e6:	6490                	ld	a2,8(s1)
  fff10104e8:	00007517          	auipc	a0,0x7
  fff10104ec:	0a850513          	addi	a0,a0,168 # fff1017590 <spl+0x7510>
  fff10104f0:	8e0d                	sub	a2,a2,a1
  fff10104f2:	40b405b3          	sub	a1,s0,a1
  fff10104f6:	545010ef          	jal	ra,fff101223a <spl+0x21ba>
  fff10104fa:	9879                	andi	s0,s0,-2
  fff10104fc:	00045783          	lhu	a5,0(s0)
  fff1010500:	470d                	li	a4,3
  fff1010502:	4909                	li	s2,2
  fff1010504:	8b8d                	andi	a5,a5,3
  fff1010506:	00e78363          	beq	a5,a4,fff101050c <spl+0x48c>
  fff101050a:	4905                	li	s2,1
  fff101050c:	00007517          	auipc	a0,0x7
  fff1010510:	0ac50513          	addi	a0,a0,172 # fff10175b8 <spl+0x7538>
  fff1010514:	527010ef          	jal	ra,fff101223a <spl+0x21ba>
  fff1010518:	ff040493          	addi	s1,s0,-16
  fff101051c:	00007997          	auipc	s3,0x7
  fff1010520:	0a498993          	addi	s3,s3,164 # fff10175c0 <spl+0x7540>
  fff1010524:	0004d583          	lhu	a1,0(s1)
  fff1010528:	854e                	mv	a0,s3
  fff101052a:	0489                	addi	s1,s1,2
  fff101052c:	50f010ef          	jal	ra,fff101223a <spl+0x21ba>
  fff1010530:	fe941ae3          	bne	s0,s1,fff1010524 <spl+0x4a4>
  fff1010534:	00007517          	auipc	a0,0x7
  fff1010538:	09450513          	addi	a0,a0,148 # fff10175c8 <spl+0x7548>
  fff101053c:	4ff010ef          	jal	ra,fff101223a <spl+0x21ba>
  fff1010540:	4785                	li	a5,1
  fff1010542:	00045583          	lhu	a1,0(s0)
  fff1010546:	00007617          	auipc	a2,0x7
  fff101054a:	74a60613          	addi	a2,a2,1866 # fff1017c90 <spl+0x7c10>
  fff101054e:	00f90663          	beq	s2,a5,fff101055a <spl+0x4da>
  fff1010552:	00007617          	auipc	a2,0x7
  fff1010556:	fce60613          	addi	a2,a2,-50 # fff1017520 <spl+0x74a0>
  fff101055a:	00007517          	auipc	a0,0x7
  fff101055e:	07650513          	addi	a0,a0,118 # fff10175d0 <spl+0x7550>
  fff1010562:	4d9010ef          	jal	ra,fff101223a <spl+0x21ba>
  fff1010566:	4789                	li	a5,2
  fff1010568:	00f91e63          	bne	s2,a5,fff1010584 <spl+0x504>
  fff101056c:	00245583          	lhu	a1,2(s0)
  fff1010570:	00007617          	auipc	a2,0x7
  fff1010574:	72060613          	addi	a2,a2,1824 # fff1017c90 <spl+0x7c10>
  fff1010578:	00007517          	auipc	a0,0x7
  fff101057c:	05850513          	addi	a0,a0,88 # fff10175d0 <spl+0x7550>
  fff1010580:	4bb010ef          	jal	ra,fff101223a <spl+0x21ba>
  fff1010584:	00008517          	auipc	a0,0x8
  fff1010588:	81c50513          	addi	a0,a0,-2020 # fff1017da0 <spl+0x7d20>
  fff101058c:	189010ef          	jal	ra,fff1011f14 <spl+0x1e94>
  fff1010590:	85aa                	mv	a1,a0
  fff1010592:	00007517          	auipc	a0,0x7
  fff1010596:	fb650513          	addi	a0,a0,-74 # fff1017548 <spl+0x74c8>
  fff101059a:	b71d                	j	fff10104c0 <spl+0x440>
  fff101059c:	8082                	ret
  fff101059e:	8082                	ret
  fff10105a0:	1141                	addi	sp,sp,-16
  fff10105a2:	e406                	sd	ra,8(sp)
  fff10105a4:	e022                	sd	s0,0(sp)
  fff10105a6:	04055c63          	bgez	a0,fff10105fe <spl+0x57e>
  fff10105aa:	00151713          	slli	a4,a0,0x1
  fff10105ae:	88b6                	mv	a7,a3
  fff10105b0:	8305                	srli	a4,a4,0x1
  fff10105b2:	46a5                	li	a3,9
  fff10105b4:	842e                	mv	s0,a1
  fff10105b6:	02d70563          	beq	a4,a3,fff10105e0 <spl+0x560>
  fff10105ba:	87aa                	mv	a5,a0
  fff10105bc:	8832                	mv	a6,a2
  fff10105be:	00e6ee63          	bltu	a3,a4,fff10105da <spl+0x55a>
  fff10105c2:	576d                	li	a4,-5
  fff10105c4:	8305                	srli	a4,a4,0x1
  fff10105c6:	8f69                	and	a4,a4,a0
  fff10105c8:	4695                	li	a3,5
  fff10105ca:	02d71663          	bne	a4,a3,fff10105f6 <spl+0x576>
  fff10105ce:	4501                	li	a0,0
  fff10105d0:	00008317          	auipc	t1,0x8
  fff10105d4:	7d033303          	ld	t1,2000(t1) # fff1018da0 <spl+0x8d20>
  fff10105d8:	a809                	j	fff10105ea <spl+0x56a>
  fff10105da:	46ad                	li	a3,11
  fff10105dc:	00d71d63          	bne	a4,a3,fff10105f6 <spl+0x576>
  fff10105e0:	4501                	li	a0,0
  fff10105e2:	00008317          	auipc	t1,0x8
  fff10105e6:	6d633303          	ld	t1,1750(t1) # fff1018cb8 <spl+0x8c38>
  fff10105ea:	9302                	jalr	t1
  fff10105ec:	60a2                	ld	ra,8(sp)
  fff10105ee:	8522                	mv	a0,s0
  fff10105f0:	6402                	ld	s0,0(sp)
  fff10105f2:	0141                	addi	sp,sp,16
  fff10105f4:	8082                	ret
  fff10105f6:	86c6                	mv	a3,a7
  fff10105f8:	8642                	mv	a2,a6
  fff10105fa:	85a2                	mv	a1,s0
  fff10105fc:	853e                	mv	a0,a5
  fff10105fe:	e95ff0ef          	jal	ra,fff1010492 <spl+0x412>
  fff1010602:	1141                	addi	sp,sp,-16
  fff1010604:	00007517          	auipc	a0,0x7
  fff1010608:	4dc50513          	addi	a0,a0,1244 # fff1017ae0 <spl+0x7a60>
  fff101060c:	e406                	sd	ra,8(sp)
  fff101060e:	42d010ef          	jal	ra,fff101223a <spl+0x21ba>
  fff1010612:	00007517          	auipc	a0,0x7
  fff1010616:	4de50513          	addi	a0,a0,1246 # fff1017af0 <spl+0x7a70>
  fff101061a:	421010ef          	jal	ra,fff101223a <spl+0x21ba>
  fff101061e:	69c010ef          	jal	ra,fff1011cba <spl+0x1c3a>
  fff1010622:	47fd                	li	a5,31
  fff1010624:	08a7e463          	bltu	a5,a0,fff10106ac <spl+0x62c>
  fff1010628:	7179                	addi	sp,sp,-48
  fff101062a:	ec26                	sd	s1,24(sp)
  fff101062c:	00b50493          	addi	s1,a0,11
  fff1010630:	0496                	slli	s1,s1,0x5
  fff1010632:	f022                	sd	s0,32(sp)
  fff1010634:	f406                	sd	ra,40(sp)
  fff1010636:	e84a                	sd	s2,16(sp)
  fff1010638:	e44e                	sd	s3,8(sp)
  fff101063a:	009187b3          	add	a5,gp,s1
  fff101063e:	4f9c                	lw	a5,24(a5)
  fff1010640:	842a                	mv	s0,a0
  fff1010642:	2781                	sext.w	a5,a5
  fff1010644:	0230000f          	fence	r,rw
  fff1010648:	cbb9                	beqz	a5,fff101069e <spl+0x61e>
  fff101064a:	00551913          	slli	s2,a0,0x5
  fff101064e:	003907b3          	add	a5,s2,gp
  fff1010652:	1607b983          	ld	s3,352(a5)
  fff1010656:	dadff0ef          	jal	ra,fff1010402 <spl+0x382>
  fff101065a:	0004051b          	sext.w	a0,s0
  fff101065e:	e07ff0ef          	jal	ra,fff1010464 <spl+0x3e4>
  fff1010662:	862a                	mv	a2,a0
  fff1010664:	cd11                	beqz	a0,fff1010680 <spl+0x600>
  fff1010666:	85a2                	mv	a1,s0
  fff1010668:	7402                	ld	s0,32(sp)
  fff101066a:	70a2                	ld	ra,40(sp)
  fff101066c:	64e2                	ld	s1,24(sp)
  fff101066e:	6942                	ld	s2,16(sp)
  fff1010670:	69a2                	ld	s3,8(sp)
  fff1010672:	00007517          	auipc	a0,0x7
  fff1010676:	6d650513          	addi	a0,a0,1750 # fff1017d48 <spl+0x7cc8>
  fff101067a:	6145                	addi	sp,sp,48
  fff101067c:	3bf0106f          	j	fff101223a <spl+0x21ba>
  fff1010680:	012187b3          	add	a5,gp,s2
  fff1010684:	948e                	add	s1,s1,gp
  fff1010686:	8522                	mv	a0,s0
  fff1010688:	7402                	ld	s0,32(sp)
  fff101068a:	6890                	ld	a2,16(s1)
  fff101068c:	1687b583          	ld	a1,360(a5)
  fff1010690:	70a2                	ld	ra,40(sp)
  fff1010692:	64e2                	ld	s1,24(sp)
  fff1010694:	6942                	ld	s2,16(sp)
  fff1010696:	87ce                	mv	a5,s3
  fff1010698:	69a2                	ld	s3,8(sp)
  fff101069a:	6145                	addi	sp,sp,48
  fff101069c:	8782                	jr	a5
  fff101069e:	70a2                	ld	ra,40(sp)
  fff10106a0:	7402                	ld	s0,32(sp)
  fff10106a2:	64e2                	ld	s1,24(sp)
  fff10106a4:	6942                	ld	s2,16(sp)
  fff10106a6:	69a2                	ld	s3,8(sp)
  fff10106a8:	6145                	addi	sp,sp,48
  fff10106aa:	8082                	ret
  fff10106ac:	8082                	ret
  fff10106ae:	7175                	addi	sp,sp,-144
  fff10106b0:	e122                	sd	s0,128(sp)
  fff10106b2:	842a                	mv	s0,a0
  fff10106b4:	00008517          	auipc	a0,0x8
  fff10106b8:	c0450513          	addi	a0,a0,-1020 # fff10182b8 <spl+0x8238>
  fff10106bc:	fca6                	sd	s1,120(sp)
  fff10106be:	f8ca                	sd	s2,112(sp)
  fff10106c0:	f4ce                	sd	s3,104(sp)
  fff10106c2:	e506                	sd	ra,136(sp)
  fff10106c4:	f0d2                	sd	s4,96(sp)
  fff10106c6:	ecd6                	sd	s5,88(sp)
  fff10106c8:	e8da                	sd	s6,80(sp)
  fff10106ca:	e4de                	sd	s7,72(sp)
  fff10106cc:	e0e2                	sd	s8,64(sp)
  fff10106ce:	fc66                	sd	s9,56(sp)
  fff10106d0:	f86a                	sd	s10,48(sp)
  fff10106d2:	f46e                	sd	s11,40(sp)
  fff10106d4:	84ae                	mv	s1,a1
  fff10106d6:	8932                	mv	s2,a2
  fff10106d8:	89b6                	mv	s3,a3
  fff10106da:	1a7030ef          	jal	ra,fff1014080 <spl+0x4000>
  fff10106de:	02055963          	bgez	a0,fff1010710 <spl+0x690>
  fff10106e2:	00008517          	auipc	a0,0x8
  fff10106e6:	bde50513          	addi	a0,a0,-1058 # fff10182c0 <spl+0x8240>
  fff10106ea:	351010ef          	jal	ra,fff101223a <spl+0x21ba>
  fff10106ee:	57a9                	li	a5,-22
  fff10106f0:	60aa                	ld	ra,136(sp)
  fff10106f2:	640a                	ld	s0,128(sp)
  fff10106f4:	74e6                	ld	s1,120(sp)
  fff10106f6:	7946                	ld	s2,112(sp)
  fff10106f8:	79a6                	ld	s3,104(sp)
  fff10106fa:	7a06                	ld	s4,96(sp)
  fff10106fc:	6ae6                	ld	s5,88(sp)
  fff10106fe:	6b46                	ld	s6,80(sp)
  fff1010700:	6ba6                	ld	s7,72(sp)
  fff1010702:	6c06                	ld	s8,64(sp)
  fff1010704:	7ce2                	ld	s9,56(sp)
  fff1010706:	7d42                	ld	s10,48(sp)
  fff1010708:	7da2                	ld	s11,40(sp)
  fff101070a:	853e                	mv	a0,a5
  fff101070c:	6149                	addi	sp,sp,144
  fff101070e:	8082                	ret
  fff1010710:	0005059b          	sext.w	a1,a0
  fff1010714:	0d81b503          	ld	a0,216(gp)
  fff1010718:	519000ef          	jal	ra,fff1011430 <spl+0x13b0>
  fff101071c:	0005079b          	sext.w	a5,a0
  fff1010720:	00055363          	bgez	a0,fff1010726 <spl+0x6a6>
  fff1010724:	57fd                	li	a5,-1
  fff1010726:	01810b13          	addi	s6,sp,24
  fff101072a:	00008b97          	auipc	s7,0x8
  fff101072e:	baeb8b93          	addi	s7,s7,-1106 # fff10182d8 <spl+0x8258>
  fff1010732:	4c7d                	li	s8,31
  fff1010734:	4c85                	li	s9,1
  fff1010736:	4a05                	li	s4,1
  fff1010738:	01c10d13          	addi	s10,sp,28
  fff101073c:	00008d97          	auipc	s11,0x8
  fff1010740:	ba4d8d93          	addi	s11,s11,-1116 # fff10182e0 <spl+0x8260>
  fff1010744:	577d                	li	a4,-1
  fff1010746:	00e79463          	bne	a5,a4,fff101074e <spl+0x6ce>
  fff101074a:	4781                	li	a5,0
  fff101074c:	b755                	j	fff10106f0 <spl+0x670>
  fff101074e:	0d81b503          	ld	a0,216(gp)
  fff1010752:	00078a9b          	sext.w	s5,a5
  fff1010756:	85d6                	mv	a1,s5
  fff1010758:	e43e                	sd	a5,8(sp)
  fff101075a:	236010ef          	jal	ra,fff1011990 <spl+0x1910>
  fff101075e:	c50d                	beqz	a0,fff1010788 <spl+0x708>
  fff1010760:	67a2                	ld	a5,8(sp)
  fff1010762:	865a                	mv	a2,s6
  fff1010764:	85de                	mv	a1,s7
  fff1010766:	853e                	mv	a0,a5
  fff1010768:	07d030ef          	jal	ra,fff1013fe4 <spl+0x3f64>
  fff101076c:	ed11                	bnez	a0,fff1010788 <spl+0x708>
  fff101076e:	45e2                	lw	a1,24(sp)
  fff1010770:	1481b683          	ld	a3,328(gp)
  fff1010774:	02059793          	slli	a5,a1,0x20
  fff1010778:	9381                	srli	a5,a5,0x20
  fff101077a:	00d78763          	beq	a5,a3,fff1010788 <spl+0x708>
  fff101077e:	02bc7063          	bgeu	s8,a1,fff101079e <spl+0x71e>
  fff1010782:	856e                	mv	a0,s11
  fff1010784:	2b7010ef          	jal	ra,fff101223a <spl+0x21ba>
  fff1010788:	0d81b503          	ld	a0,216(gp)
  fff101078c:	85d6                	mv	a1,s5
  fff101078e:	4c3000ef          	jal	ra,fff1011450 <spl+0x13d0>
  fff1010792:	0005079b          	sext.w	a5,a0
  fff1010796:	fa0557e3          	bgez	a0,fff1010744 <spl+0x6c4>
  fff101079a:	57fd                	li	a5,-1
  fff101079c:	b765                	j	fff1010744 <spl+0x6c4>
  fff101079e:	5601b683          	ld	a3,1376(gp)
  fff10107a2:	00bc95bb          	sllw	a1,s9,a1
  fff10107a6:	8df5                	and	a1,a1,a3
  fff10107a8:	d1e5                	beqz	a1,fff1010788 <spl+0x708>
  fff10107aa:	00579693          	slli	a3,a5,0x5
  fff10107ae:	07ad                	addi	a5,a5,11
  fff10107b0:	968e                	add	a3,a3,gp
  fff10107b2:	0796                	slli	a5,a5,0x5
  fff10107b4:	1686b023          	sd	s0,352(a3)
  fff10107b8:	1696b423          	sd	s1,360(a3)
  fff10107bc:	978e                	add	a5,a5,gp
  fff10107be:	0127b823          	sd	s2,16(a5)
  fff10107c2:	0310000f          	fence	rw,w
  fff10107c6:	4562                	lw	a0,24(sp)
  fff10107c8:	02051713          	slli	a4,a0,0x20
  fff10107cc:	01b75793          	srli	a5,a4,0x1b
  fff10107d0:	16078793          	addi	a5,a5,352
  fff10107d4:	978e                	add	a5,a5,gp
  fff10107d6:	0147ac23          	sw	s4,24(a5)
  fff10107da:	c75ff0ef          	jal	ra,fff101044e <spl+0x3ce>
  fff10107de:	c919                	beqz	a0,fff10107f4 <spl+0x774>
  fff10107e0:	45e2                	lw	a1,24(sp)
  fff10107e2:	e42a                	sd	a0,8(sp)
  fff10107e4:	00008517          	auipc	a0,0x8
  fff10107e8:	b3450513          	addi	a0,a0,-1228 # fff1018318 <spl+0x8298>
  fff10107ec:	24f010ef          	jal	ra,fff101223a <spl+0x21ba>
  fff10107f0:	67a2                	ld	a5,8(sp)
  fff10107f2:	bdfd                	j	fff10106f0 <spl+0x670>
  fff10107f4:	f8098ae3          	beqz	s3,fff1010788 <spl+0x708>
  fff10107f8:	ce52                	sw	s4,28(sp)
  fff10107fa:	4562                	lw	a0,24(sp)
  fff10107fc:	85ea                	mv	a1,s10
  fff10107fe:	c7dff0ef          	jal	ra,fff101047a <spl+0x3fa>
  fff1010802:	87aa                	mv	a5,a0
  fff1010804:	ee0516e3          	bnez	a0,fff10106f0 <spl+0x670>
  fff1010808:	47f2                	lw	a5,28(sp)
  fff101080a:	fbe5                	bnez	a5,fff10107fa <spl+0x77a>
  fff101080c:	bfb5                	j	fff1010788 <spl+0x708>
  fff101080e:	4501                	li	a0,0
  fff1010810:	8082                	ret
  fff1010812:	1141                	addi	sp,sp,-16
  fff1010814:	e406                	sd	ra,8(sp)
  fff1010816:	39c000ef          	jal	ra,fff1010bb2 <spl+0xb32>
  fff101081a:	c901                	beqz	a0,fff101082a <spl+0x7aa>
  fff101081c:	85aa                	mv	a1,a0
  fff101081e:	00007517          	auipc	a0,0x7
  fff1010822:	dda50513          	addi	a0,a0,-550 # fff10175f8 <spl+0x7578>
  fff1010826:	6ee010ef          	jal	ra,fff1011f14 <spl+0x1e94>
  fff101082a:	4581                	li	a1,0
  fff101082c:	ad3ff0ef          	jal	ra,fff10102fe <spl+0x27e>
  fff1010830:	524000ef          	jal	ra,fff1010d54 <spl+0xcd4>
  fff1010834:	00008317          	auipc	t1,0x8
  fff1010838:	47c33303          	ld	t1,1148(t1) # fff1018cb0 <spl+0x8c30>
  fff101083c:	9302                	jalr	t1
  fff101083e:	85aa                	mv	a1,a0
  fff1010840:	c511                	beqz	a0,fff101084c <spl+0x7cc>
  fff1010842:	00007517          	auipc	a0,0x7
  fff1010846:	dd650513          	addi	a0,a0,-554 # fff1017618 <spl+0x7598>
  fff101084a:	bff1                	j	fff1010826 <spl+0x7a6>
  fff101084c:	60a2                	ld	ra,8(sp)
  fff101084e:	0141                	addi	sp,sp,16
  fff1010850:	8082                	ret
  fff1010852:	1101                	addi	sp,sp,-32
  fff1010854:	e822                	sd	s0,16(sp)
  fff1010856:	ec06                	sd	ra,24(sp)
  fff1010858:	e426                	sd	s1,8(sp)
  fff101085a:	e04a                	sd	s2,0(sp)
  fff101085c:	0d81b483          	ld	s1,216(gp)
  fff1010860:	01853903          	ld	s2,24(a0)
  fff1010864:	842a                	mv	s0,a0
  fff1010866:	b9dff0ef          	jal	ra,fff1010402 <spl+0x382>
  fff101086a:	6c08                	ld	a0,24(s0)
  fff101086c:	4681                	li	a3,0
  fff101086e:	4601                	li	a2,0
  fff1010870:	85a6                	mv	a1,s1
  fff1010872:	e3dff0ef          	jal	ra,fff10106ae <spl+0x62e>
  fff1010876:	c119                	beqz	a0,fff101087c <spl+0x7fc>
  fff1010878:	442010ef          	jal	ra,fff1011cba <spl+0x1c3a>
  fff101087c:	1481b503          	ld	a0,328(gp)
  fff1010880:	85a6                	mv	a1,s1
  fff1010882:	9902                	jalr	s2
	...
  fff1010890:	82aa                	mv	t0,a0
  fff1010892:	01063693          	sltiu	a3,a2,16
  fff1010896:	e2f5                	bnez	a3,fff101097a <spl+0x8fa>
  fff1010898:	00728693          	addi	a3,t0,7
  fff101089c:	9ae1                	andi	a3,a3,-8
  fff101089e:	00568a63          	beq	a3,t0,fff10108b2 <spl+0x832>
  fff10108a2:	40568733          	sub	a4,a3,t0
  fff10108a6:	00b28023          	sb	a1,0(t0)
  fff10108aa:	0285                	addi	t0,t0,1
  fff10108ac:	fed2ede3          	bltu	t0,a3,fff10108a6 <spl+0x826>
  fff10108b0:	8e19                	sub	a2,a2,a4
  fff10108b2:	0ff5f593          	zext.b	a1,a1
  fff10108b6:	00859693          	slli	a3,a1,0x8
  fff10108ba:	8dd5                	or	a1,a1,a3
  fff10108bc:	01059693          	slli	a3,a1,0x10
  fff10108c0:	8dd5                	or	a1,a1,a3
  fff10108c2:	02059693          	slli	a3,a1,0x20
  fff10108c6:	8dd5                	or	a1,a1,a3
  fff10108c8:	ff867713          	andi	a4,a2,-8
  fff10108cc:	00e286b3          	add	a3,t0,a4
  fff10108d0:	0f877713          	andi	a4,a4,248
  fff10108d4:	cf11                	beqz	a4,fff10108f0 <spl+0x870>
  fff10108d6:	40e00733          	neg	a4,a4
  fff10108da:	10070713          	addi	a4,a4,256 # 40100 <ROM_BASE-0xfff0fcff00>
  fff10108de:	40e282b3          	sub	t0,t0,a4
  fff10108e2:	00008797          	auipc	a5,0x8
  fff10108e6:	3867b783          	ld	a5,902(a5) # fff1018c68 <spl+0x8be8>
  fff10108ea:	8305                	srli	a4,a4,0x1
  fff10108ec:	97ba                	add	a5,a5,a4
  fff10108ee:	8782                	jr	a5
  fff10108f0:	00b2b023          	sd	a1,0(t0)
  fff10108f4:	00b2b423          	sd	a1,8(t0)
  fff10108f8:	00b2b823          	sd	a1,16(t0)
  fff10108fc:	00b2bc23          	sd	a1,24(t0)
  fff1010900:	02b2b023          	sd	a1,32(t0)
  fff1010904:	02b2b423          	sd	a1,40(t0)
  fff1010908:	02b2b823          	sd	a1,48(t0)
  fff101090c:	02b2bc23          	sd	a1,56(t0)
  fff1010910:	04b2b023          	sd	a1,64(t0)
  fff1010914:	04b2b423          	sd	a1,72(t0)
  fff1010918:	04b2b823          	sd	a1,80(t0)
  fff101091c:	04b2bc23          	sd	a1,88(t0)
  fff1010920:	06b2b023          	sd	a1,96(t0)
  fff1010924:	06b2b423          	sd	a1,104(t0)
  fff1010928:	06b2b823          	sd	a1,112(t0)
  fff101092c:	06b2bc23          	sd	a1,120(t0)
  fff1010930:	08b2b023          	sd	a1,128(t0)
  fff1010934:	08b2b423          	sd	a1,136(t0)
  fff1010938:	08b2b823          	sd	a1,144(t0)
  fff101093c:	08b2bc23          	sd	a1,152(t0)
  fff1010940:	0ab2b023          	sd	a1,160(t0)
  fff1010944:	0ab2b423          	sd	a1,168(t0)
  fff1010948:	0ab2b823          	sd	a1,176(t0)
  fff101094c:	0ab2bc23          	sd	a1,184(t0)
  fff1010950:	0cb2b023          	sd	a1,192(t0)
  fff1010954:	0cb2b423          	sd	a1,200(t0)
  fff1010958:	0cb2b823          	sd	a1,208(t0)
  fff101095c:	0cb2bc23          	sd	a1,216(t0)
  fff1010960:	0eb2b023          	sd	a1,224(t0)
  fff1010964:	0eb2b423          	sd	a1,232(t0)
  fff1010968:	0eb2b823          	sd	a1,240(t0)
  fff101096c:	0eb2bc23          	sd	a1,248(t0)
  fff1010970:	10028293          	addi	t0,t0,256
  fff1010974:	f6d2eee3          	bltu	t0,a3,fff10108f0 <spl+0x870>
  fff1010978:	8a1d                	andi	a2,a2,7
  fff101097a:	ca01                	beqz	a2,fff101098a <spl+0x90a>
  fff101097c:	00c286b3          	add	a3,t0,a2
  fff1010980:	00b28023          	sb	a1,0(t0)
  fff1010984:	0285                	addi	t0,t0,1
  fff1010986:	fed2ede3          	bltu	t0,a3,fff1010980 <spl+0x900>
  fff101098a:	8082                	ret
	...
  fff10109a0:	0cb50863          	beq	a0,a1,fff1010a70 <spl+0x9f0>
  fff10109a4:	8faa                	mv	t6,a0
  fff10109a6:	00c502b3          	add	t0,a0,a2
  fff10109aa:	46c1                	li	a3,16
  fff10109ac:	0ad66763          	bltu	a2,a3,fff1010a5a <spl+0x9da>
  fff10109b0:	00750613          	addi	a2,a0,7
  fff10109b4:	9a61                	andi	a2,a2,-8
  fff10109b6:	00c50a63          	beq	a0,a2,fff10109ca <spl+0x94a>
  fff10109ba:	00058783          	lb	a5,0(a1)
  fff10109be:	0585                	addi	a1,a1,1
  fff10109c0:	00f50023          	sb	a5,0(a0)
  fff10109c4:	0505                	addi	a0,a0,1
  fff10109c6:	fec51ae3          	bne	a0,a2,fff10109ba <spl+0x93a>
  fff10109ca:	0075f693          	andi	a3,a1,7
  fff10109ce:	e2d5                	bnez	a3,fff1010a72 <spl+0x9f2>
  fff10109d0:	f8128293          	addi	t0,t0,-127
  fff10109d4:	06557863          	bgeu	a0,t0,fff1010a44 <spl+0x9c4>
  fff10109d8:	6190                	ld	a2,0(a1)
  fff10109da:	6594                	ld	a3,8(a1)
  fff10109dc:	6998                	ld	a4,16(a1)
  fff10109de:	6d9c                	ld	a5,24(a1)
  fff10109e0:	0205b803          	ld	a6,32(a1)
  fff10109e4:	0285b883          	ld	a7,40(a1)
  fff10109e8:	0305b303          	ld	t1,48(a1)
  fff10109ec:	0385b383          	ld	t2,56(a1)
  fff10109f0:	0405be03          	ld	t3,64(a1)
  fff10109f4:	0485be83          	ld	t4,72(a1)
  fff10109f8:	0505bf03          	ld	t5,80(a1)
  fff10109fc:	e110                	sd	a2,0(a0)
  fff10109fe:	e514                	sd	a3,8(a0)
  fff1010a00:	e918                	sd	a4,16(a0)
  fff1010a02:	ed1c                	sd	a5,24(a0)
  fff1010a04:	03053023          	sd	a6,32(a0)
  fff1010a08:	03153423          	sd	a7,40(a0)
  fff1010a0c:	02653823          	sd	t1,48(a0)
  fff1010a10:	02753c23          	sd	t2,56(a0)
  fff1010a14:	05c53023          	sd	t3,64(a0)
  fff1010a18:	05d53423          	sd	t4,72(a0)
  fff1010a1c:	05e53823          	sd	t5,80(a0)
  fff1010a20:	6db0                	ld	a2,88(a1)
  fff1010a22:	71b4                	ld	a3,96(a1)
  fff1010a24:	75b8                	ld	a4,104(a1)
  fff1010a26:	79bc                	ld	a5,112(a1)
  fff1010a28:	0785b803          	ld	a6,120(a1)
  fff1010a2c:	08058593          	addi	a1,a1,128
  fff1010a30:	ed30                	sd	a2,88(a0)
  fff1010a32:	f134                	sd	a3,96(a0)
  fff1010a34:	f538                	sd	a4,104(a0)
  fff1010a36:	f93c                	sd	a5,112(a0)
  fff1010a38:	07053c23          	sd	a6,120(a0)
  fff1010a3c:	08050513          	addi	a0,a0,128
  fff1010a40:	f8556ce3          	bltu	a0,t0,fff10109d8 <spl+0x958>
  fff1010a44:	07828293          	addi	t0,t0,120
  fff1010a48:	00557863          	bgeu	a0,t0,fff1010a58 <spl+0x9d8>
  fff1010a4c:	619c                	ld	a5,0(a1)
  fff1010a4e:	05a1                	addi	a1,a1,8
  fff1010a50:	e11c                	sd	a5,0(a0)
  fff1010a52:	0521                	addi	a0,a0,8
  fff1010a54:	fe556ce3          	bltu	a0,t0,fff1010a4c <spl+0x9cc>
  fff1010a58:	029d                	addi	t0,t0,7
  fff1010a5a:	00550a63          	beq	a0,t0,fff1010a6e <spl+0x9ee>
  fff1010a5e:	00058783          	lb	a5,0(a1)
  fff1010a62:	0585                	addi	a1,a1,1
  fff1010a64:	00f50023          	sb	a5,0(a0)
  fff1010a68:	0505                	addi	a0,a0,1
  fff1010a6a:	fe551ae3          	bne	a0,t0,fff1010a5e <spl+0x9de>
  fff1010a6e:	857e                	mv	a0,t6
  fff1010a70:	8082                	ret
  fff1010a72:	00369e13          	slli	t3,a3,0x3
  fff1010a76:	41c00eb3          	neg	t4,t3
  fff1010a7a:	99e1                	andi	a1,a1,-8
  fff1010a7c:	619c                	ld	a5,0(a1)
  fff1010a7e:	12e5                	addi	t0,t0,-7
  fff1010a80:	01c7d733          	srl	a4,a5,t3
  fff1010a84:	659c                	ld	a5,8(a1)
  fff1010a86:	05a1                	addi	a1,a1,8
  fff1010a88:	01d79633          	sll	a2,a5,t4
  fff1010a8c:	8e59                	or	a2,a2,a4
  fff1010a8e:	e110                	sd	a2,0(a0)
  fff1010a90:	0521                	addi	a0,a0,8
  fff1010a92:	fe5567e3          	bltu	a0,t0,fff1010a80 <spl+0xa00>
  fff1010a96:	029d                	addi	t0,t0,7
  fff1010a98:	95b6                	add	a1,a1,a3
  fff1010a9a:	b7c1                	j	fff1010a5a <spl+0x9da>
	...
  fff1010aa4:	4785                	li	a5,1
  fff1010aa6:	c11c                	sw	a5,0(a0)
  fff1010aa8:	8082                	ret
  fff1010aaa:	1141                	addi	sp,sp,-16
  fff1010aac:	e406                	sd	ra,8(sp)
  fff1010aae:	00100737          	lui	a4,0x100
  fff1010ab2:	12e1b823          	sd	a4,304(gp)
  fff1010ab6:	1201bc23          	sd	zero,312(gp)
  fff1010aba:	0d8010ef          	jal	ra,fff1011b92 <spl+0x1b12>
  fff1010abe:	e511                	bnez	a0,fff1010aca <spl+0xa4a>
  fff1010ac0:	60a2                	ld	ra,8(sp)
  fff1010ac2:	4505                	li	a0,1
  fff1010ac4:	0141                	addi	sp,sp,16
  fff1010ac6:	6850206f          	j	fff101394a <spl+0x38ca>
  fff1010aca:	60a2                	ld	ra,8(sp)
  fff1010acc:	0141                	addi	sp,sp,16
  fff1010ace:	8082                	ret
  fff1010ad0:	8082                	ret
  fff1010ad2:	557d                	li	a0,-1
  fff1010ad4:	8082                	ret
  fff1010ad6:	4501                	li	a0,0
  fff1010ad8:	8082                	ret
  fff1010ada:	8082                	ret
  fff1010adc:	4785                	li	a5,1
  fff1010ade:	07fe                	slli	a5,a5,0x1f
  fff1010ae0:	953e                	add	a0,a0,a5
  fff1010ae2:	8082                	ret
  fff1010ae4:	1141                	addi	sp,sp,-16
  fff1010ae6:	e022                	sd	s0,0(sp)
  fff1010ae8:	e406                	sd	ra,8(sp)
  fff1010aea:	842a                	mv	s0,a0
  fff1010aec:	fe7ff0ef          	jal	ra,fff1010ad2 <spl+0xa52>
  fff1010af0:	000327b7          	lui	a5,0x32
  fff1010af4:	d41c                	sw	a5,40(s0)
  fff1010af6:	fff50713          	addi	a4,a0,-1
  fff1010afa:	57f5                	li	a5,-3
  fff1010afc:	02e7e063          	bltu	a5,a4,fff1010b1c <spl+0xa9c>
  fff1010b00:	ec08                	sd	a0,24(s0)
  fff1010b02:	e808                	sd	a0,16(s0)
  fff1010b04:	47c5                	li	a5,17
  fff1010b06:	00f40423          	sb	a5,8(s0)
  fff1010b0a:	00008797          	auipc	a5,0x8
  fff1010b0e:	a0e78793          	addi	a5,a5,-1522 # fff1018518 <spl+0x8498>
  fff1010b12:	60a2                	ld	ra,8(sp)
  fff1010b14:	e01c                	sd	a5,0(s0)
  fff1010b16:	6402                	ld	s0,0(sp)
  fff1010b18:	0141                	addi	sp,sp,16
  fff1010b1a:	8082                	ret
  fff1010b1c:	4785                	li	a5,1
  fff1010b1e:	07fe                	slli	a5,a5,0x1f
  fff1010b20:	ec1c                	sd	a5,24(s0)
  fff1010b22:	e81c                	sd	a5,16(s0)
  fff1010b24:	b7c5                	j	fff1010b04 <spl+0xa84>
  fff1010b26:	5529                	li	a0,-22
  fff1010b28:	8082                	ret
  fff1010b2a:	5529                	li	a0,-22
  fff1010b2c:	8082                	ret
  fff1010b2e:	4218                	lw	a4,0(a2)
  fff1010b30:	00ff08b7          	lui	a7,0xff0
  fff1010b34:	0187581b          	srliw	a6,a4,0x18
  fff1010b38:	0187179b          	slliw	a5,a4,0x18
  fff1010b3c:	0107e7b3          	or	a5,a5,a6
  fff1010b40:	0087181b          	slliw	a6,a4,0x8
  fff1010b44:	01187833          	and	a6,a6,a7
  fff1010b48:	0107e7b3          	or	a5,a5,a6
  fff1010b4c:	6841                	lui	a6,0x10
  fff1010b4e:	0087571b          	srliw	a4,a4,0x8
  fff1010b52:	f0080813          	addi	a6,a6,-256 # ff00 <ROM_BASE-0xfff1000100>
  fff1010b56:	01077733          	and	a4,a4,a6
  fff1010b5a:	8fd9                	or	a5,a5,a4
  fff1010b5c:	27052737          	lui	a4,0x27052
  fff1010b60:	2781                	sext.w	a5,a5
  fff1010b62:	95670713          	addi	a4,a4,-1706 # 27051956 <ROM_BASE-0xffc9fbe6aa>
  fff1010b66:	00e79863          	bne	a5,a4,fff1010b76 <spl+0xaf6>
  fff1010b6a:	85b2                	mv	a1,a2
  fff1010b6c:	00008317          	auipc	t1,0x8
  fff1010b70:	19c33303          	ld	t1,412(t1) # fff1018d08 <spl+0x8c88>
  fff1010b74:	8302                	jr	t1
  fff1010b76:	1141                	addi	sp,sp,-16
  fff1010b78:	e022                	sd	s0,0(sp)
  fff1010b7a:	e406                	sd	ra,8(sp)
  fff1010b7c:	04000693          	li	a3,64
  fff1010b80:	00008317          	auipc	t1,0x8
  fff1010b84:	15833303          	ld	t1,344(t1) # fff1018cd8 <spl+0x8c58>
  fff1010b88:	842a                	mv	s0,a0
  fff1010b8a:	9302                	jalr	t1
  fff1010b8c:	c501                	beqz	a0,fff1010b94 <spl+0xb14>
  fff1010b8e:	8522                	mv	a0,s0
  fff1010b90:	f55ff0ef          	jal	ra,fff1010ae4 <spl+0xa64>
  fff1010b94:	60a2                	ld	ra,8(sp)
  fff1010b96:	6402                	ld	s0,0(sp)
  fff1010b98:	4501                	li	a0,0
  fff1010b9a:	0141                	addi	sp,sp,16
  fff1010b9c:	8082                	ret
  fff1010b9e:	0001b703          	ld	a4,0(gp)
  fff1010ba2:	e719                	bnez	a4,fff1010bb0 <spl+0xb30>
  fff1010ba4:	00008717          	auipc	a4,0x8
  fff1010ba8:	dfc70713          	addi	a4,a4,-516 # fff10189a0 <spl+0x8920>
  fff1010bac:	00e1b023          	sd	a4,0(gp)
  fff1010bb0:	8082                	ret
  fff1010bb2:	1141                	addi	sp,sp,-16
  fff1010bb4:	e406                	sd	ra,8(sp)
  fff1010bb6:	ef5ff0ef          	jal	ra,fff1010aaa <spl+0xa2a>
  fff1010bba:	e519                	bnez	a0,fff1010bc8 <spl+0xb48>
  fff1010bbc:	0081b783          	ld	a5,8(gp)
  fff1010bc0:	66a1                	lui	a3,0x8
  fff1010bc2:	8fd5                	or	a5,a5,a3
  fff1010bc4:	00f1b423          	sd	a5,8(gp)
  fff1010bc8:	60a2                	ld	ra,8(sp)
  fff1010bca:	0141                	addi	sp,sp,16
  fff1010bcc:	8082                	ret
  fff1010bce:	0081b703          	ld	a4,8(gp)
  fff1010bd2:	67a1                	lui	a5,0x8
  fff1010bd4:	8ff9                	and	a5,a5,a4
  fff1010bd6:	cb89                	beqz	a5,fff1010be8 <spl+0xb68>
  fff1010bd8:	0081b783          	ld	a5,8(gp)
  fff1010bdc:	4501                	li	a0,0
  fff1010bde:	4007e793          	ori	a5,a5,1024
  fff1010be2:	00f1b423          	sd	a5,8(gp)
  fff1010be6:	8082                	ret
  fff1010be8:	1141                	addi	sp,sp,-16
  fff1010bea:	e406                	sd	ra,8(sp)
  fff1010bec:	ebfff0ef          	jal	ra,fff1010aaa <spl+0xa2a>
  fff1010bf0:	e901                	bnez	a0,fff1010c00 <spl+0xb80>
  fff1010bf2:	0081b783          	ld	a5,8(gp)
  fff1010bf6:	4501                	li	a0,0
  fff1010bf8:	4007e793          	ori	a5,a5,1024
  fff1010bfc:	00f1b423          	sd	a5,8(gp)
  fff1010c00:	60a2                	ld	ra,8(sp)
  fff1010c02:	0141                	addi	sp,sp,16
  fff1010c04:	8082                	ret
  fff1010c06:	4501                	li	a0,0
  fff1010c08:	8082                	ret
  fff1010c0a:	7131                	addi	sp,sp,-192
  fff1010c0c:	f922                	sd	s0,176(sp)
  fff1010c0e:	0800                	addi	s0,sp,16
  fff1010c10:	4651                	li	a2,20
  fff1010c12:	00006597          	auipc	a1,0x6
  fff1010c16:	7c658593          	addi	a1,a1,1990 # fff10173d8 <spl+0x7358>
  fff1010c1a:	8522                	mv	a0,s0
  fff1010c1c:	fd06                	sd	ra,184(sp)
  fff1010c1e:	f526                	sd	s1,168(sp)
  fff1010c20:	f14a                	sd	s2,160(sp)
  fff1010c22:	ed4e                	sd	s3,152(sp)
  fff1010c24:	e952                	sd	s4,144(sp)
  fff1010c26:	e556                	sd	s5,136(sp)
  fff1010c28:	e15a                	sd	s6,128(sp)
  fff1010c2a:	fcde                	sd	s7,120(sp)
  fff1010c2c:	f8e2                	sd	s8,112(sp)
  fff1010c2e:	f4e6                	sd	s9,104(sp)
  fff1010c30:	f0ea                	sd	s10,96(sp)
  fff1010c32:	d6fff0ef          	jal	ra,fff10109a0 <spl+0x920>
  fff1010c36:	f69ff0ef          	jal	ra,fff1010b9e <spl+0xb1e>
  fff1010c3a:	00821537          	lui	a0,0x821
  fff1010c3e:	001005b7          	lui	a1,0x100
  fff1010c42:	0522                	slli	a0,a0,0x8
  fff1010c44:	4c2000ef          	jal	ra,fff1011106 <spl+0x1086>
  fff1010c48:	0081b783          	ld	a5,8(gp)
  fff1010c4c:	2007e693          	ori	a3,a5,512
  fff1010c50:	00d1b423          	sd	a3,8(gp)
  fff1010c54:	4007f793          	andi	a5,a5,1024
  fff1010c58:	e791                	bnez	a5,fff1010c64 <spl+0xbe4>
  fff1010c5a:	f75ff0ef          	jal	ra,fff1010bce <spl+0xb4e>
  fff1010c5e:	c119                	beqz	a0,fff1010c64 <spl+0xbe4>
  fff1010c60:	05a010ef          	jal	ra,fff1011cba <spl+0x1c3a>
  fff1010c64:	1c0010ef          	jal	ra,fff1011e24 <spl+0x1da4>
  fff1010c68:	02810993          	addi	s3,sp,40
  fff1010c6c:	03800613          	li	a2,56
  fff1010c70:	4581                	li	a1,0
  fff1010c72:	854e                	mv	a0,s3
  fff1010c74:	c1dff0ef          	jal	ra,fff1010890 <spl+0x810>
  fff1010c78:	deadc937          	lui	s2,0xdeadc
  fff1010c7c:	eef90913          	addi	s2,s2,-273 # ffffffffdeadbeef <spl+0xfffffeffedacbe6f>
  fff1010c80:	8522                	mv	a0,s0
  fff1010c82:	00008317          	auipc	t1,0x8
  fff1010c86:	00633303          	ld	t1,6(t1) # fff1018c88 <spl+0x8c08>
  fff1010c8a:	c4ca                	sw	s2,72(sp)
  fff1010c8c:	9302                	jalr	t1
  fff1010c8e:	00008a97          	auipc	s5,0x8
  fff1010c92:	652a8a93          	addi	s5,s5,1618 # fff10192e0 <spl+0x9260>
  fff1010c96:	00008797          	auipc	a5,0x8
  fff1010c9a:	69278793          	addi	a5,a5,1682 # fff1019328 <spl+0x92a8>
  fff1010c9e:	415787b3          	sub	a5,a5,s5
  fff1010ca2:	00007717          	auipc	a4,0x7
  fff1010ca6:	dde73703          	ld	a4,-546(a4) # fff1017a80 <spl+0x7a00>
  fff1010caa:	878d                	srai	a5,a5,0x3
  fff1010cac:	02e787bb          	mulw	a5,a5,a4
  fff1010cb0:	4761                	li	a4,24
  fff1010cb2:	02410b93          	addi	s7,sp,36
  fff1010cb6:	00008c17          	auipc	s8,0x8
  fff1010cba:	0f2c3c03          	ld	s8,242(s8) # fff1018da8 <spl+0x8d28>
  fff1010cbe:	00007c97          	auipc	s9,0x7
  fff1010cc2:	97ac8c93          	addi	s9,s9,-1670 # fff1017638 <spl+0x75b8>
  fff1010cc6:	8b0a                	mv	s6,sp
  fff1010cc8:	00008d17          	auipc	s10,0x8
  fff1010ccc:	028d3d03          	ld	s10,40(s10) # fff1018cf0 <spl+0x8c70>
  fff1010cd0:	02e787b3          	mul	a5,a5,a4
  fff1010cd4:	9abe                	add	s5,s5,a5
  fff1010cd6:	00042a03          	lw	s4,0(s0)
  fff1010cda:	072a0663          	beq	s4,s2,fff1010d46 <spl+0xcc6>
  fff1010cde:	00008497          	auipc	s1,0x8
  fff1010ce2:	60248493          	addi	s1,s1,1538 # fff10192e0 <spl+0x9260>
  fff1010ce6:	a899                	j	fff1010d3c <spl+0xcbc>
  fff1010ce8:	449c                	lw	a5,8(s1)
  fff1010cea:	05479863          	bne	a5,s4,fff1010d3a <spl+0xcba>
  fff1010cee:	8552                	mv	a0,s4
  fff1010cf0:	9c02                	jalr	s8
  fff1010cf2:	85aa                	mv	a1,a0
  fff1010cf4:	e111                	bnez	a0,fff1010cf8 <spl+0xc78>
  fff1010cf6:	608c                	ld	a1,0(s1)
  fff1010cf8:	8566                	mv	a0,s9
  fff1010cfa:	540010ef          	jal	ra,fff101223a <spl+0x21ba>
  fff1010cfe:	449c                	lw	a5,8(s1)
  fff1010d00:	e402                	sd	zero,8(sp)
  fff1010d02:	85da                	mv	a1,s6
  fff1010d04:	c03e                	sw	a5,0(sp)
  fff1010d06:	689c                	ld	a5,16(s1)
  fff1010d08:	854e                	mv	a0,s3
  fff1010d0a:	9782                	jalr	a5
  fff1010d0c:	e51d                	bnez	a0,fff1010d3a <spl+0xcba>
  fff1010d0e:	85da                	mv	a1,s6
  fff1010d10:	854e                	mv	a0,s3
  fff1010d12:	9d02                	jalr	s10
  fff1010d14:	e11d                	bnez	a0,fff1010d3a <spl+0xcba>
  fff1010d16:	854e                	mv	a0,s3
  fff1010d18:	00008317          	auipc	t1,0x8
  fff1010d1c:	08033303          	ld	t1,128(t1) # fff1018d98 <spl+0x8d18>
  fff1010d20:	c4d2                	sw	s4,72(sp)
  fff1010d22:	9302                	jalr	t1
  fff1010d24:	00008317          	auipc	t1,0x8
  fff1010d28:	0ac33303          	ld	t1,172(t1) # fff1018dd0 <spl+0x8d50>
  fff1010d2c:	9302                	jalr	t1
  fff1010d2e:	854e                	mv	a0,s3
  fff1010d30:	00008317          	auipc	t1,0x8
  fff1010d34:	f9033303          	ld	t1,-112(t1) # fff1018cc0 <spl+0x8c40>
  fff1010d38:	9302                	jalr	t1
  fff1010d3a:	04e1                	addi	s1,s1,24
  fff1010d3c:	fb5496e3          	bne	s1,s5,fff1010ce8 <spl+0xc68>
  fff1010d40:	0411                	addi	s0,s0,4
  fff1010d42:	f9741ae3          	bne	s0,s7,fff1010cd6 <spl+0xc56>
  fff1010d46:	00007517          	auipc	a0,0x7
  fff1010d4a:	90a50513          	addi	a0,a0,-1782 # fff1017650 <spl+0x75d0>
  fff1010d4e:	39a000ef          	jal	ra,fff10110e8 <spl+0x1068>
  fff1010d52:	b739                	j	fff1010c60 <spl+0xbe0>
  fff1010d54:	1141                	addi	sp,sp,-16
  fff1010d56:	67f1                	lui	a5,0x1c
  fff1010d58:	e406                	sd	ra,8(sp)
  fff1010d5a:	20078793          	addi	a5,a5,512 # 1c200 <ROM_BASE-0xfff0ff3e00>
  fff1010d5e:	00f1a823          	sw	a5,16(gp)
  fff1010d62:	33b040ef          	jal	ra,fff101589c <spl+0x581c>
  fff1010d66:	4785                	li	a5,1
  fff1010d68:	02f1bc23          	sd	a5,56(gp)
  fff1010d6c:	60a2                	ld	ra,8(sp)
  fff1010d6e:	0141                	addi	sp,sp,16
  fff1010d70:	8082                	ret
  fff1010d72:	4501                	li	a0,0
  fff1010d74:	8082                	ret
  fff1010d76:	4505                	li	a0,1
  fff1010d78:	8082                	ret
  fff1010d7a:	4509                	li	a0,2
  fff1010d7c:	8082                	ret
  fff1010d7e:	852e                	mv	a0,a1
  fff1010d80:	8082                	ret
  fff1010d82:	07554503          	lbu	a0,117(a0)
  fff1010d86:	479d                	li	a5,7
  fff1010d88:	0035551b          	srliw	a0,a0,0x3
  fff1010d8c:	891d                	andi	a0,a0,7
  fff1010d8e:	00f51363          	bne	a0,a5,fff1010d94 <spl+0xd14>
  fff1010d92:	4501                	li	a0,0
  fff1010d94:	8082                	ret
  fff1010d96:	b7f5                	j	fff1010d82 <spl+0xd02>
  fff1010d98:	715d                	addi	sp,sp,-80
  fff1010d9a:	e0a2                	sd	s0,64(sp)
  fff1010d9c:	fc26                	sd	s1,56(sp)
  fff1010d9e:	f44e                	sd	s3,40(sp)
  fff1010da0:	ec56                	sd	s5,24(sp)
  fff1010da2:	e85a                	sd	s6,16(sp)
  fff1010da4:	e486                	sd	ra,72(sp)
  fff1010da6:	f84a                	sd	s2,48(sp)
  fff1010da8:	f052                	sd	s4,32(sp)
  fff1010daa:	419c                	lw	a5,0(a1)
  fff1010dac:	8b3a                	mv	s6,a4
  fff1010dae:	4705                	li	a4,1
  fff1010db0:	89aa                	mv	s3,a0
  fff1010db2:	84ae                	mv	s1,a1
  fff1010db4:	8ab2                	mv	s5,a2
  fff1010db6:	4401                	li	s0,0
  fff1010db8:	00e78d63          	beq	a5,a4,fff1010dd2 <spl+0xd52>
  fff1010dbc:	37f9                	addiw	a5,a5,-2
  fff1010dbe:	4405                	li	s0,1
  fff1010dc0:	00f47963          	bgeu	s0,a5,fff1010dd2 <spl+0xd52>
  fff1010dc4:	00007517          	auipc	a0,0x7
  fff1010dc8:	64450513          	addi	a0,a0,1604 # fff1018408 <spl+0x8388>
  fff1010dcc:	46e010ef          	jal	ra,fff101223a <spl+0x21ba>
  fff1010dd0:	5435                	li	s0,-19
  fff1010dd2:	fffff917          	auipc	s2,0xfffff
  fff1010dd6:	2ae90913          	addi	s2,s2,686 # fff1010080 <spl>
  fff1010dda:	00093783          	ld	a5,0(s2)
  fff1010dde:	eb9d                	bnez	a5,fff1010e14 <spl+0xd94>
  fff1010de0:	409c                	lw	a5,0(s1)
  fff1010de2:	4705                	li	a4,1
  fff1010de4:	08e78e63          	beq	a5,a4,fff1010e80 <spl+0xe00>
  fff1010de8:	37f9                	addiw	a5,a5,-2
  fff1010dea:	4a05                	li	s4,1
  fff1010dec:	08f77b63          	bgeu	a4,a5,fff1010e82 <spl+0xe02>
  fff1010df0:	00007517          	auipc	a0,0x7
  fff1010df4:	61850513          	addi	a0,a0,1560 # fff1018408 <spl+0x8388>
  fff1010df8:	442010ef          	jal	ra,fff101223a <spl+0x21ba>
  fff1010dfc:	5435                	li	s0,-19
  fff1010dfe:	60a6                	ld	ra,72(sp)
  fff1010e00:	8522                	mv	a0,s0
  fff1010e02:	6406                	ld	s0,64(sp)
  fff1010e04:	74e2                	ld	s1,56(sp)
  fff1010e06:	7942                	ld	s2,48(sp)
  fff1010e08:	79a2                	ld	s3,40(sp)
  fff1010e0a:	7a02                	ld	s4,32(sp)
  fff1010e0c:	6ae2                	ld	s5,24(sp)
  fff1010e0e:	6b42                	ld	s6,16(sp)
  fff1010e10:	6161                	addi	sp,sp,80
  fff1010e12:	8082                	ret
  fff1010e14:	6be8                	ld	a0,208(a5)
  fff1010e16:	1ec020ef          	jal	ra,fff1013002 <spl+0x2f82>
  fff1010e1a:	415c                	lw	a5,4(a0)
  fff1010e1c:	fc8792e3          	bne	a5,s0,fff1010de0 <spl+0xd60>
  fff1010e20:	408c                	lw	a1,0(s1)
  fff1010e22:	00093503          	ld	a0,0(s2)
  fff1010e26:	00008317          	auipc	t1,0x8
  fff1010e2a:	ed233303          	ld	t1,-302(t1) # fff1018cf8 <spl+0x8c78>
  fff1010e2e:	9302                	jalr	t1
  fff1010e30:	0005079b          	sext.w	a5,a0
  fff1010e34:	4709                	li	a4,2
  fff1010e36:	02e78263          	beq	a5,a4,fff1010e5a <spl+0xdda>
  fff1010e3a:	470d                	li	a4,3
  fff1010e3c:	08e78d63          	beq	a5,a4,fff1010ed6 <spl+0xe56>
  fff1010e40:	4705                	li	a4,1
  fff1010e42:	0ce79d63          	bne	a5,a4,fff1010f1c <spl+0xe9c>
  fff1010e46:	f31ff0ef          	jal	ra,fff1010d76 <spl+0xcf6>
  fff1010e4a:	00093503          	ld	a0,0(s2)
  fff1010e4e:	85da                	mv	a1,s6
  fff1010e50:	00008317          	auipc	t1,0x8
  fff1010e54:	f0033303          	ld	t1,-256(t1) # fff1018d50 <spl+0x8cd0>
  fff1010e58:	9302                	jalr	t1
  fff1010e5a:	00093403          	ld	s0,0(s2)
  fff1010e5e:	f19ff0ef          	jal	ra,fff1010d76 <spl+0xcf6>
  fff1010e62:	c155                	beqz	a0,fff1010f06 <spl+0xe86>
  fff1010e64:	8522                	mv	a0,s0
  fff1010e66:	706040ef          	jal	ra,fff101556c <spl+0x54ec>
  fff1010e6a:	862a                	mv	a2,a0
  fff1010e6c:	8756                	mv	a4,s5
  fff1010e6e:	4685                	li	a3,1
  fff1010e70:	85a6                	mv	a1,s1
  fff1010e72:	854e                	mv	a0,s3
  fff1010e74:	0c6000ef          	jal	ra,fff1010f3a <spl+0xeba>
  fff1010e78:	5479                	li	s0,-2
  fff1010e7a:	f151                	bnez	a0,fff1010dfe <spl+0xd7e>
  fff1010e7c:	4401                	li	s0,0
  fff1010e7e:	b741                	j	fff1010dfe <spl+0xd7e>
  fff1010e80:	4a01                	li	s4,0
  fff1010e82:	8552                	mv	a0,s4
  fff1010e84:	4fc040ef          	jal	ra,fff1015380 <spl+0x5300>
  fff1010e88:	842a                	mv	s0,a0
  fff1010e8a:	c909                	beqz	a0,fff1010e9c <spl+0xe1c>
  fff1010e8c:	85aa                	mv	a1,a0
  fff1010e8e:	00007517          	auipc	a0,0x7
  fff1010e92:	5a250513          	addi	a0,a0,1442 # fff1018430 <spl+0x83b0>
  fff1010e96:	3a4010ef          	jal	ra,fff101223a <spl+0x21ba>
  fff1010e9a:	b795                	j	fff1010dfe <spl+0xd7e>
  fff1010e9c:	8552                	mv	a0,s4
  fff1010e9e:	698040ef          	jal	ra,fff1015536 <spl+0x54b6>
  fff1010ea2:	00a93023          	sd	a0,0(s2)
  fff1010ea6:	e911                	bnez	a0,fff1010eba <spl+0xe3a>
  fff1010ea8:	5635                	li	a2,-19
  fff1010eaa:	85d2                	mv	a1,s4
  fff1010eac:	00007517          	auipc	a0,0x7
  fff1010eb0:	5b450513          	addi	a0,a0,1460 # fff1018460 <spl+0x83e0>
  fff1010eb4:	386010ef          	jal	ra,fff101223a <spl+0x21ba>
  fff1010eb8:	b791                	j	fff1010dfc <spl+0xd7c>
  fff1010eba:	3e1030ef          	jal	ra,fff1014a9a <spl+0x4a1a>
  fff1010ebe:	842a                	mv	s0,a0
  fff1010ec0:	d125                	beqz	a0,fff1010e20 <spl+0xda0>
  fff1010ec2:	85aa                	mv	a1,a0
  fff1010ec4:	fffff797          	auipc	a5,0xfffff
  fff1010ec8:	1a07be23          	sd	zero,444(a5) # fff1010080 <spl>
  fff1010ecc:	00007517          	auipc	a0,0x7
  fff1010ed0:	5c450513          	addi	a0,a0,1476 # fff1018490 <spl+0x8410>
  fff1010ed4:	b7c9                	j	fff1010e96 <spl+0xe16>
  fff1010ed6:	00093503          	ld	a0,0(s2)
  fff1010eda:	00008317          	auipc	t1,0x8
  fff1010ede:	e5633303          	ld	t1,-426(t1) # fff1018d30 <spl+0x8cb0>
  fff1010ee2:	9302                	jalr	t1
  fff1010ee4:	e42a                	sd	a0,8(sp)
  fff1010ee6:	00093503          	ld	a0,0(s2)
  fff1010eea:	682040ef          	jal	ra,fff101556c <spl+0x54ec>
  fff1010eee:	65a2                	ld	a1,8(sp)
  fff1010ef0:	5db010ef          	jal	ra,fff1012cca <spl+0x2c4a>
  fff1010ef4:	842a                	mv	s0,a0
  fff1010ef6:	d921                	beqz	a0,fff1010e46 <spl+0xdc6>
  fff1010ef8:	00007517          	auipc	a0,0x7
  fff1010efc:	5c050513          	addi	a0,a0,1472 # fff10184b8 <spl+0x8438>
  fff1010f00:	1e8000ef          	jal	ra,fff10110e8 <spl+0x1068>
  fff1010f04:	bded                	j	fff1010dfe <spl+0xd7e>
  fff1010f06:	8522                	mv	a0,s0
  fff1010f08:	664040ef          	jal	ra,fff101556c <spl+0x54ec>
  fff1010f0c:	862a                	mv	a2,a0
  fff1010f0e:	4685                	li	a3,1
  fff1010f10:	85a6                	mv	a1,s1
  fff1010f12:	854e                	mv	a0,s3
  fff1010f14:	13c000ef          	jal	ra,fff1011050 <spl+0xfd0>
  fff1010f18:	f531                	bnez	a0,fff1010e64 <spl+0xde4>
  fff1010f1a:	b78d                	j	fff1010e7c <spl+0xdfc>
  fff1010f1c:	00007517          	auipc	a0,0x7
  fff1010f20:	5c450513          	addi	a0,a0,1476 # fff10184e0 <spl+0x8460>
  fff1010f24:	1c4000ef          	jal	ra,fff10110e8 <spl+0x1068>
  fff1010f28:	5429                	li	s0,-22
  fff1010f2a:	bdd1                	j	fff1010dfe <spl+0xd7e>
  fff1010f2c:	4701                	li	a4,0
  fff1010f2e:	4681                	li	a3,0
  fff1010f30:	00007617          	auipc	a2,0x7
  fff1010f34:	5d060613          	addi	a2,a2,1488 # fff1018500 <spl+0x8480>
  fff1010f38:	b585                	j	fff1010d98 <spl+0xd18>
  fff1010f3a:	7171                	addi	sp,sp,-176
  fff1010f3c:	fcd6                	sd	s5,120(sp)
  fff1010f3e:	01010a93          	addi	s5,sp,16
  fff1010f42:	f122                	sd	s0,160(sp)
  fff1010f44:	e94a                	sd	s2,144(sp)
  fff1010f46:	e152                	sd	s4,128(sp)
  fff1010f48:	8432                	mv	s0,a2
  fff1010f4a:	892a                	mv	s2,a0
  fff1010f4c:	06000613          	li	a2,96
  fff1010f50:	8a2e                	mv	s4,a1
  fff1010f52:	8556                	mv	a0,s5
  fff1010f54:	4581                	li	a1,0
  fff1010f56:	f506                	sd	ra,168(sp)
  fff1010f58:	ed26                	sd	s1,152(sp)
  fff1010f5a:	e54e                	sd	s3,136(sp)
  fff1010f5c:	f8da                	sd	s6,112(sp)
  fff1010f5e:	84ba                	mv	s1,a4
  fff1010f60:	8b36                	mv	s6,a3
  fff1010f62:	92fff0ef          	jal	ra,fff1010890 <spl+0x810>
  fff1010f66:	04000593          	li	a1,64
  fff1010f6a:	fc000513          	li	a0,-64
  fff1010f6e:	b6fff0ef          	jal	ra,fff1010adc <spl+0xa5c>
  fff1010f72:	89aa                	mv	s3,a0
  fff1010f74:	8656                	mv	a2,s5
  fff1010f76:	85da                	mv	a1,s6
  fff1010f78:	8522                	mv	a0,s0
  fff1010f7a:	3f6010ef          	jal	ra,fff1012370 <spl+0x22f0>
  fff1010f7e:	c115                	beqz	a0,fff1010fa2 <spl+0xf22>
  fff1010f80:	00007517          	auipc	a0,0x7
  fff1010f84:	3b850513          	addi	a0,a0,952 # fff1018338 <spl+0x82b8>
  fff1010f88:	2b2010ef          	jal	ra,fff101223a <spl+0x21ba>
  fff1010f8c:	557d                	li	a0,-1
  fff1010f8e:	70aa                	ld	ra,168(sp)
  fff1010f90:	740a                	ld	s0,160(sp)
  fff1010f92:	64ea                	ld	s1,152(sp)
  fff1010f94:	694a                	ld	s2,144(sp)
  fff1010f96:	69aa                	ld	s3,136(sp)
  fff1010f98:	6a0a                	ld	s4,128(sp)
  fff1010f9a:	7ae6                	ld	s5,120(sp)
  fff1010f9c:	7b46                	ld	s6,112(sp)
  fff1010f9e:	614d                	addi	sp,sp,176
  fff1010fa0:	8082                	ret
  fff1010fa2:	8522                	mv	a0,s0
  fff1010fa4:	85d6                	mv	a1,s5
  fff1010fa6:	1c0060ef          	jal	ra,fff1017166 <spl+0x70e6>
  fff1010faa:	4501                	li	a0,0
  fff1010fac:	108060ef          	jal	ra,fff10170b4 <spl+0x7034>
  fff1010fb0:	ed09                	bnez	a0,fff1010fca <spl+0xf4a>
  fff1010fb2:	4601                	li	a2,0
  fff1010fb4:	00006597          	auipc	a1,0x6
  fff1010fb8:	44458593          	addi	a1,a1,1092 # fff10173f8 <spl+0x7378>
  fff1010fbc:	00007517          	auipc	a0,0x7
  fff1010fc0:	39c50513          	addi	a0,a0,924 # fff1018358 <spl+0x82d8>
  fff1010fc4:	276010ef          	jal	ra,fff101223a <spl+0x21ba>
  fff1010fc8:	b7d1                	j	fff1010f8c <spl+0xf0c>
  fff1010fca:	858a                	mv	a1,sp
  fff1010fcc:	8526                	mv	a0,s1
  fff1010fce:	070060ef          	jal	ra,fff101703e <spl+0x6fbe>
  fff1010fd2:	842a                	mv	s0,a0
  fff1010fd4:	00007517          	auipc	a0,0x7
  fff1010fd8:	3a450513          	addi	a0,a0,932 # fff1018378 <spl+0x82f8>
  fff1010fdc:	02044263          	bltz	s0,fff1011000 <spl+0xf80>
  fff1010fe0:	00810a93          	addi	s5,sp,8
  fff1010fe4:	86d6                	mv	a3,s5
  fff1010fe6:	04000613          	li	a2,64
  fff1010fea:	4581                	li	a1,0
  fff1010fec:	854e                	mv	a0,s3
  fff1010fee:	33c050ef          	jal	ra,fff101632a <spl+0x62aa>
  fff1010ff2:	842a                	mv	s0,a0
  fff1010ff4:	02055563          	bgez	a0,fff101101e <spl+0xf9e>
  fff1010ff8:	00007517          	auipc	a0,0x7
  fff1010ffc:	3a050513          	addi	a0,a0,928 # fff1018398 <spl+0x8318>
  fff1011000:	0e8000ef          	jal	ra,fff10110e8 <spl+0x1068>
  fff1011004:	86a2                	mv	a3,s0
  fff1011006:	8626                	mv	a2,s1
  fff1011008:	00006597          	auipc	a1,0x6
  fff101100c:	3f058593          	addi	a1,a1,1008 # fff10173f8 <spl+0x7378>
  fff1011010:	00007517          	auipc	a0,0x7
  fff1011014:	3d050513          	addi	a0,a0,976 # fff10183e0 <spl+0x8360>
  fff1011018:	222010ef          	jal	ra,fff101223a <spl+0x21ba>
  fff101101c:	a03d                	j	fff101104a <spl+0xfca>
  fff101101e:	864e                	mv	a2,s3
  fff1011020:	85d2                	mv	a1,s4
  fff1011022:	854a                	mv	a0,s2
  fff1011024:	b0bff0ef          	jal	ra,fff1010b2e <spl+0xaae>
  fff1011028:	842a                	mv	s0,a0
  fff101102a:	00007517          	auipc	a0,0x7
  fff101102e:	38e50513          	addi	a0,a0,910 # fff10183b8 <spl+0x8338>
  fff1011032:	fc0447e3          	bltz	s0,fff1011000 <spl+0xf80>
  fff1011036:	6602                	ld	a2,0(sp)
  fff1011038:	01093503          	ld	a0,16(s2)
  fff101103c:	86d6                	mv	a3,s5
  fff101103e:	4581                	li	a1,0
  fff1011040:	2ea050ef          	jal	ra,fff101632a <spl+0x62aa>
  fff1011044:	842a                	mv	s0,a0
  fff1011046:	fa054fe3          	bltz	a0,fff1011004 <spl+0xf84>
  fff101104a:	01f4551b          	srliw	a0,s0,0x1f
  fff101104e:	b781                	j	fff1010f8e <spl+0xf0e>
  fff1011050:	fda00513          	li	a0,-38
  fff1011054:	8082                	ret
  fff1011056:	81aa                	mv	gp,a0
  fff1011058:	8082                	ret
  fff101105a:	fff007b7          	lui	a5,0xfff00
  fff101105e:	a8878793          	addi	a5,a5,-1400 # ffffffffffeffa88 <spl+0xffffff000eeefa08>
  fff1011062:	953e                	add	a0,a0,a5
  fff1011064:	9941                	andi	a0,a0,-16
  fff1011066:	8082                	ret
  fff1011068:	1141                	addi	sp,sp,-16
  fff101106a:	57800613          	li	a2,1400
  fff101106e:	4581                	li	a1,0
  fff1011070:	e406                	sd	ra,8(sp)
  fff1011072:	e022                	sd	s0,0(sp)
  fff1011074:	842a                	mv	s0,a0
  fff1011076:	81bff0ef          	jal	ra,fff1010890 <spl+0x810>
  fff101107a:	8522                	mv	a0,s0
  fff101107c:	00008317          	auipc	t1,0x8
  fff1011080:	cc433303          	ld	t1,-828(t1) # fff1018d40 <spl+0x8cc0>
  fff1011084:	9302                	jalr	t1
  fff1011086:	58040413          	addi	s0,s0,1408
  fff101108a:	1281b423          	sd	s0,296(gp)
  fff101108e:	60a2                	ld	ra,8(sp)
  fff1011090:	6402                	ld	s0,0(sp)
  fff1011092:	0141                	addi	sp,sp,16
  fff1011094:	8082                	ret
  fff1011096:	4789                	li	a5,2
  fff1011098:	00a7eb63          	bltu	a5,a0,fff10110ae <spl+0x102e>
  fff101109c:	00008797          	auipc	a5,0x8
  fff10110a0:	cdc7b783          	ld	a5,-804(a5) # fff1018d78 <spl+0x8cf8>
  fff10110a4:	050e                	slli	a0,a0,0x3
  fff10110a6:	953e                	add	a0,a0,a5
  fff10110a8:	6108                	ld	a0,0(a0)
  fff10110aa:	7d1c                	ld	a5,56(a0)
  fff10110ac:	8782                	jr	a5
  fff10110ae:	8082                	ret
  fff10110b0:	85aa                	mv	a1,a0
  fff10110b2:	00018d63          	beqz	gp,fff10110cc <spl+0x104c>
  fff10110b6:	0381b703          	ld	a4,56(gp)
  fff10110ba:	cb09                	beqz	a4,fff10110cc <spl+0x104c>
  fff10110bc:	0081b783          	ld	a5,8(gp)
  fff10110c0:	8b89                	andi	a5,a5,2
  fff10110c2:	c399                	beqz	a5,fff10110c8 <spl+0x1048>
  fff10110c4:	4505                	li	a0,1
  fff10110c6:	bfc1                	j	fff1011096 <spl+0x1016>
  fff10110c8:	7860406f          	j	fff101584e <spl+0x57ce>
  fff10110cc:	8082                	ret
  fff10110ce:	4789                	li	a5,2
  fff10110d0:	00a7eb63          	bltu	a5,a0,fff10110e6 <spl+0x1066>
  fff10110d4:	00008797          	auipc	a5,0x8
  fff10110d8:	ca47b783          	ld	a5,-860(a5) # fff1018d78 <spl+0x8cf8>
  fff10110dc:	050e                	slli	a0,a0,0x3
  fff10110de:	953e                	add	a0,a0,a5
  fff10110e0:	6108                	ld	a0,0(a0)
  fff10110e2:	613c                	ld	a5,64(a0)
  fff10110e4:	8782                	jr	a5
  fff10110e6:	8082                	ret
  fff10110e8:	85aa                	mv	a1,a0
  fff10110ea:	00018d63          	beqz	gp,fff1011104 <spl+0x1084>
  fff10110ee:	0381b703          	ld	a4,56(gp)
  fff10110f2:	cb09                	beqz	a4,fff1011104 <spl+0x1084>
  fff10110f4:	0081b783          	ld	a5,8(gp)
  fff10110f8:	8b89                	andi	a5,a5,2
  fff10110fa:	c399                	beqz	a5,fff1011100 <spl+0x1080>
  fff10110fc:	4505                	li	a0,1
  fff10110fe:	bfc1                	j	fff10110ce <spl+0x104e>
  fff1011100:	75c0406f          	j	fff101585c <spl+0x57dc>
  fff1011104:	8082                	ret
  fff1011106:	00008797          	auipc	a5,0x8
  fff101110a:	c427b783          	ld	a5,-958(a5) # fff1018d48 <spl+0x8cc8>
  fff101110e:	e388                	sd	a0,0(a5)
  fff1011110:	95aa                	add	a1,a1,a0
  fff1011112:	00008797          	auipc	a5,0x8
  fff1011116:	bbe7b783          	ld	a5,-1090(a5) # fff1018cd0 <spl+0x8c50>
  fff101111a:	e38c                	sd	a1,0(a5)
  fff101111c:	00008797          	auipc	a5,0x8
  fff1011120:	c9c7b783          	ld	a5,-868(a5) # fff1018db8 <spl+0x8d38>
  fff1011124:	e388                	sd	a0,0(a5)
  fff1011126:	8082                	ret
  fff1011128:	1281b683          	ld	a3,296(gp)
  fff101112c:	1381b783          	ld	a5,312(gp)
  fff1011130:	8d15                	sub	a0,a0,a3
  fff1011132:	97b6                	add	a5,a5,a3
  fff1011134:	17fd                	addi	a5,a5,-1
  fff1011136:	97ae                	add	a5,a5,a1
  fff1011138:	1301b683          	ld	a3,304(gp)
  fff101113c:	40b005b3          	neg	a1,a1
  fff1011140:	8dfd                	and	a1,a1,a5
  fff1011142:	00b507b3          	add	a5,a0,a1
  fff1011146:	00f6fe63          	bgeu	a3,a5,fff1011162 <spl+0x10e2>
  fff101114a:	1141                	addi	sp,sp,-16
  fff101114c:	00006517          	auipc	a0,0x6
  fff1011150:	48c50513          	addi	a0,a0,1164 # fff10175d8 <spl+0x7558>
  fff1011154:	e406                	sd	ra,8(sp)
  fff1011156:	0e4010ef          	jal	ra,fff101223a <spl+0x21ba>
  fff101115a:	60a2                	ld	ra,8(sp)
  fff101115c:	4501                	li	a0,0
  fff101115e:	0141                	addi	sp,sp,16
  fff1011160:	8082                	ret
  fff1011162:	079d                	addi	a5,a5,7
  fff1011164:	9be1                	andi	a5,a5,-8
  fff1011166:	852e                	mv	a0,a1
  fff1011168:	12f1bc23          	sd	a5,312(gp)
  fff101116c:	8082                	ret
  fff101116e:	4585                	li	a1,1
  fff1011170:	bf65                	j	fff1011128 <spl+0x10a8>
  fff1011172:	87ae                	mv	a5,a1
  fff1011174:	0005059b          	sext.w	a1,a0
  fff1011178:	853e                	mv	a0,a5
  fff101117a:	b77d                	j	fff1011128 <spl+0x10a8>
  fff101117c:	02b50633          	mul	a2,a0,a1
  fff1011180:	1101                	addi	sp,sp,-32
  fff1011182:	e822                	sd	s0,16(sp)
  fff1011184:	ec06                	sd	ra,24(sp)
  fff1011186:	8532                	mv	a0,a2
  fff1011188:	e432                	sd	a2,8(sp)
  fff101118a:	fe5ff0ef          	jal	ra,fff101116e <spl+0x10ee>
  fff101118e:	842a                	mv	s0,a0
  fff1011190:	c509                	beqz	a0,fff101119a <spl+0x111a>
  fff1011192:	6622                	ld	a2,8(sp)
  fff1011194:	4581                	li	a1,0
  fff1011196:	efaff0ef          	jal	ra,fff1010890 <spl+0x810>
  fff101119a:	60e2                	ld	ra,24(sp)
  fff101119c:	8522                	mv	a0,s0
  fff101119e:	6442                	ld	s0,16(sp)
  fff10111a0:	6105                	addi	sp,sp,32
  fff10111a2:	8082                	ret
  fff10111a4:	02800513          	li	a0,40
  fff10111a8:	8082                	ret
  fff10111aa:	4118                	lw	a4,0(a0)
  fff10111ac:	00ff0637          	lui	a2,0xff0
  fff10111b0:	0187169b          	slliw	a3,a4,0x18
  fff10111b4:	0187579b          	srliw	a5,a4,0x18
  fff10111b8:	8fd5                	or	a5,a5,a3
  fff10111ba:	0087169b          	slliw	a3,a4,0x8
  fff10111be:	8ef1                	and	a3,a3,a2
  fff10111c0:	8fd5                	or	a5,a5,a3
  fff10111c2:	66c1                	lui	a3,0x10
  fff10111c4:	0087571b          	srliw	a4,a4,0x8
  fff10111c8:	f0068693          	addi	a3,a3,-256 # ff00 <ROM_BASE-0xfff1000100>
  fff10111cc:	8f75                	and	a4,a4,a3
  fff10111ce:	8fd9                	or	a5,a5,a4
  fff10111d0:	d00e0737          	lui	a4,0xd00e0
  fff10111d4:	2781                	sext.w	a5,a5
  fff10111d6:	eed70713          	addi	a4,a4,-275 # ffffffffd00dfeed <spl+0xfffffeffdf0cfe6d>
  fff10111da:	00e79a63          	bne	a5,a4,fff10111ee <spl+0x116e>
  fff10111de:	1141                	addi	sp,sp,-16
  fff10111e0:	e406                	sd	ra,8(sp)
  fff10111e2:	fc3ff0ef          	jal	ra,fff10111a4 <spl+0x1124>
  fff10111e6:	60a2                	ld	ra,8(sp)
  fff10111e8:	4501                	li	a0,0
  fff10111ea:	0141                	addi	sp,sp,16
  fff10111ec:	8082                	ret
  fff10111ee:	555d                	li	a0,-9
  fff10111f0:	8082                	ret
  fff10111f2:	88aa                	mv	a7,a0
  fff10111f4:	0005879b          	sext.w	a5,a1
  fff10111f8:	0605c863          	bltz	a1,fff1011268 <spl+0x11e8>
  fff10111fc:	00c7883b          	addw	a6,a5,a2
  fff1011200:	4501                	li	a0,0
  fff1011202:	06f86463          	bltu	a6,a5,fff101126a <spl+0x11ea>
  fff1011206:	0248a603          	lw	a2,36(a7) # ff0024 <ROM_BASE-0xfff001ffdc>
  fff101120a:	00ff0e37          	lui	t3,0xff0
  fff101120e:	0088a683          	lw	a3,8(a7)
  fff1011212:	0186171b          	slliw	a4,a2,0x18
  fff1011216:	0186579b          	srliw	a5,a2,0x18
  fff101121a:	0086131b          	slliw	t1,a2,0x8
  fff101121e:	01c37333          	and	t1,t1,t3
  fff1011222:	8f5d                	or	a4,a4,a5
  fff1011224:	00676733          	or	a4,a4,t1
  fff1011228:	6341                	lui	t1,0x10
  fff101122a:	0086561b          	srliw	a2,a2,0x8
  fff101122e:	f0030313          	addi	t1,t1,-256 # ff00 <ROM_BASE-0xfff1000100>
  fff1011232:	00667633          	and	a2,a2,t1
  fff1011236:	8f51                	or	a4,a4,a2
  fff1011238:	2701                	sext.w	a4,a4
  fff101123a:	03076863          	bltu	a4,a6,fff101126a <spl+0x11ea>
  fff101123e:	0186d71b          	srliw	a4,a3,0x18
  fff1011242:	0186979b          	slliw	a5,a3,0x18
  fff1011246:	0086951b          	slliw	a0,a3,0x8
  fff101124a:	01c57533          	and	a0,a0,t3
  fff101124e:	8fd9                	or	a5,a5,a4
  fff1011250:	0086d69b          	srliw	a3,a3,0x8
  fff1011254:	8fc9                	or	a5,a5,a0
  fff1011256:	0066f6b3          	and	a3,a3,t1
  fff101125a:	8fd5                	or	a5,a5,a3
  fff101125c:	1782                	slli	a5,a5,0x20
  fff101125e:	9381                	srli	a5,a5,0x20
  fff1011260:	95be                	add	a1,a1,a5
  fff1011262:	00b88533          	add	a0,a7,a1
  fff1011266:	8082                	ret
  fff1011268:	4501                	li	a0,0
  fff101126a:	8082                	ret
  fff101126c:	7179                	addi	sp,sp,-48
  fff101126e:	f022                	sd	s0,32(sp)
  fff1011270:	ec26                	sd	s1,24(sp)
  fff1011272:	e84a                	sd	s2,16(sp)
  fff1011274:	e44e                	sd	s3,8(sp)
  fff1011276:	57e1                	li	a5,-8
  fff1011278:	f406                	sd	ra,40(sp)
  fff101127a:	e052                	sd	s4,0(sp)
  fff101127c:	c21c                	sw	a5,0(a2)
  fff101127e:	84b2                	mv	s1,a2
  fff1011280:	4611                	li	a2,4
  fff1011282:	89aa                	mv	s3,a0
  fff1011284:	842e                	mv	s0,a1
  fff1011286:	f6dff0ef          	jal	ra,fff10111f2 <spl+0x1172>
  fff101128a:	4118                	lw	a4,0(a0)
  fff101128c:	00ff0637          	lui	a2,0xff0
  fff1011290:	0187569b          	srliw	a3,a4,0x18
  fff1011294:	0187179b          	slliw	a5,a4,0x18
  fff1011298:	8fd5                	or	a5,a5,a3
  fff101129a:	0087169b          	slliw	a3,a4,0x8
  fff101129e:	8ef1                	and	a3,a3,a2
  fff10112a0:	8fd5                	or	a5,a5,a3
  fff10112a2:	66c1                	lui	a3,0x10
  fff10112a4:	f0068693          	addi	a3,a3,-256 # ff00 <ROM_BASE-0xfff1000100>
  fff10112a8:	0087571b          	srliw	a4,a4,0x8
  fff10112ac:	8f75                	and	a4,a4,a3
  fff10112ae:	8fd9                	or	a5,a5,a4
  fff10112b0:	0007891b          	sext.w	s2,a5
  fff10112b4:	5755                	li	a4,-11
  fff10112b6:	37fd                	addiw	a5,a5,-1
  fff10112b8:	c098                	sw	a4,0(s1)
  fff10112ba:	0007869b          	sext.w	a3,a5
  fff10112be:	4721                	li	a4,8
  fff10112c0:	08d76363          	bltu	a4,a3,fff1011346 <spl+0x12c6>
  fff10112c4:	02079713          	slli	a4,a5,0x20
  fff10112c8:	01e75793          	srli	a5,a4,0x1e
  fff10112cc:	00007717          	auipc	a4,0x7
  fff10112d0:	5ec70713          	addi	a4,a4,1516 # fff10188b8 <spl+0x8838>
  fff10112d4:	97ba                	add	a5,a5,a4
  fff10112d6:	439c                	lw	a5,0(a5)
  fff10112d8:	00040a1b          	sext.w	s4,s0
  fff10112dc:	2411                	addiw	s0,s0,4
  fff10112de:	97ba                	add	a5,a5,a4
  fff10112e0:	8782                	jr	a5
  fff10112e2:	85a2                	mv	a1,s0
  fff10112e4:	4605                	li	a2,1
  fff10112e6:	854e                	mv	a0,s3
  fff10112e8:	2405                	addiw	s0,s0,1
  fff10112ea:	f09ff0ef          	jal	ra,fff10111f2 <spl+0x1172>
  fff10112ee:	c501                	beqz	a0,fff10112f6 <spl+0x1276>
  fff10112f0:	00054783          	lbu	a5,0(a0)
  fff10112f4:	f7fd                	bnez	a5,fff10112e2 <spl+0x1262>
  fff10112f6:	240d                	addiw	s0,s0,3
  fff10112f8:	9871                	andi	s0,s0,-4
  fff10112fa:	c080                	sw	s0,0(s1)
  fff10112fc:	70a2                	ld	ra,40(sp)
  fff10112fe:	7402                	ld	s0,32(sp)
  fff1011300:	64e2                	ld	s1,24(sp)
  fff1011302:	69a2                	ld	s3,8(sp)
  fff1011304:	6a02                	ld	s4,0(sp)
  fff1011306:	854a                	mv	a0,s2
  fff1011308:	6942                	ld	s2,16(sp)
  fff101130a:	6145                	addi	sp,sp,48
  fff101130c:	8082                	ret
  fff101130e:	85a2                	mv	a1,s0
  fff1011310:	4611                	li	a2,4
  fff1011312:	854e                	mv	a0,s3
  fff1011314:	edfff0ef          	jal	ra,fff10111f2 <spl+0x1172>
  fff1011318:	411c                	lw	a5,0(a0)
  fff101131a:	00ff06b7          	lui	a3,0xff0
  fff101131e:	2a31                	addiw	s4,s4,12
  fff1011320:	0187d71b          	srliw	a4,a5,0x18
  fff1011324:	0187941b          	slliw	s0,a5,0x18
  fff1011328:	8c59                	or	s0,s0,a4
  fff101132a:	0087971b          	slliw	a4,a5,0x8
  fff101132e:	8f75                	and	a4,a4,a3
  fff1011330:	8c59                	or	s0,s0,a4
  fff1011332:	6741                	lui	a4,0x10
  fff1011334:	0087d79b          	srliw	a5,a5,0x8
  fff1011338:	f0070713          	addi	a4,a4,-256 # ff00 <ROM_BASE-0xfff1000100>
  fff101133c:	8ff9                	and	a5,a5,a4
  fff101133e:	8c5d                	or	s0,s0,a5
  fff1011340:	008a043b          	addw	s0,s4,s0
  fff1011344:	bf4d                	j	fff10112f6 <spl+0x1276>
  fff1011346:	4925                	li	s2,9
  fff1011348:	bf55                	j	fff10112fc <spl+0x127c>
  fff101134a:	1101                	addi	sp,sp,-32
  fff101134c:	ec06                	sd	ra,24(sp)
  fff101134e:	c62e                	sw	a1,12(sp)
  fff1011350:	0005d663          	bgez	a1,fff101135c <spl+0x12dc>
  fff1011354:	5571                	li	a0,-4
  fff1011356:	60e2                	ld	ra,24(sp)
  fff1011358:	6105                	addi	sp,sp,32
  fff101135a:	8082                	ret
  fff101135c:	0035f793          	andi	a5,a1,3
  fff1011360:	fbf5                	bnez	a5,fff1011354 <spl+0x12d4>
  fff1011362:	0070                	addi	a2,sp,12
  fff1011364:	f09ff0ef          	jal	ra,fff101126c <spl+0x11ec>
  fff1011368:	2501                	sext.w	a0,a0
  fff101136a:	4785                	li	a5,1
  fff101136c:	fef514e3          	bne	a0,a5,fff1011354 <spl+0x12d4>
  fff1011370:	4532                	lw	a0,12(sp)
  fff1011372:	b7d5                	j	fff1011356 <spl+0x12d6>
  fff1011374:	1101                	addi	sp,sp,-32
  fff1011376:	ec06                	sd	ra,24(sp)
  fff1011378:	c62e                	sw	a1,12(sp)
  fff101137a:	0005d663          	bgez	a1,fff1011386 <spl+0x1306>
  fff101137e:	5571                	li	a0,-4
  fff1011380:	60e2                	ld	ra,24(sp)
  fff1011382:	6105                	addi	sp,sp,32
  fff1011384:	8082                	ret
  fff1011386:	0035f793          	andi	a5,a1,3
  fff101138a:	fbf5                	bnez	a5,fff101137e <spl+0x12fe>
  fff101138c:	0070                	addi	a2,sp,12
  fff101138e:	edfff0ef          	jal	ra,fff101126c <spl+0x11ec>
  fff1011392:	2501                	sext.w	a0,a0
  fff1011394:	478d                	li	a5,3
  fff1011396:	fef514e3          	bne	a0,a5,fff101137e <spl+0x12fe>
  fff101139a:	4532                	lw	a0,12(sp)
  fff101139c:	b7d5                	j	fff1011380 <spl+0x1300>
  fff101139e:	715d                	addi	sp,sp,-80
  fff10113a0:	fc26                	sd	s1,56(sp)
  fff10113a2:	f84a                	sd	s2,48(sp)
  fff10113a4:	e486                	sd	ra,72(sp)
  fff10113a6:	e0a2                	sd	s0,64(sp)
  fff10113a8:	f44e                	sd	s3,40(sp)
  fff10113aa:	f052                	sd	s4,32(sp)
  fff10113ac:	ec56                	sd	s5,24(sp)
  fff10113ae:	e85a                	sd	s6,16(sp)
  fff10113b0:	c602                	sw	zero,12(sp)
  fff10113b2:	892a                	mv	s2,a0
  fff10113b4:	84b2                	mv	s1,a2
  fff10113b6:	0205da63          	bgez	a1,fff10113ea <spl+0x136a>
  fff10113ba:	00c10993          	addi	s3,sp,12
  fff10113be:	4a09                	li	s4,2
  fff10113c0:	4aa5                	li	s5,9
  fff10113c2:	4b05                	li	s6,1
  fff10113c4:	4432                	lw	s0,12(sp)
  fff10113c6:	864e                	mv	a2,s3
  fff10113c8:	854a                	mv	a0,s2
  fff10113ca:	85a2                	mv	a1,s0
  fff10113cc:	ea1ff0ef          	jal	ra,fff101126c <spl+0x11ec>
  fff10113d0:	0005079b          	sext.w	a5,a0
  fff10113d4:	03478c63          	beq	a5,s4,fff101140c <spl+0x138c>
  fff10113d8:	05578363          	beq	a5,s5,fff101141e <spl+0x139e>
  fff10113dc:	ff6794e3          	bne	a5,s6,fff10113c4 <spl+0x1344>
  fff10113e0:	c899                	beqz	s1,fff10113f6 <spl+0x1376>
  fff10113e2:	409c                	lw	a5,0(s1)
  fff10113e4:	2785                	addiw	a5,a5,1
  fff10113e6:	c09c                	sw	a5,0(s1)
  fff10113e8:	a039                	j	fff10113f6 <spl+0x1376>
  fff10113ea:	f61ff0ef          	jal	ra,fff101134a <spl+0x12ca>
  fff10113ee:	c62a                	sw	a0,12(sp)
  fff10113f0:	842a                	mv	s0,a0
  fff10113f2:	fc0554e3          	bgez	a0,fff10113ba <spl+0x133a>
  fff10113f6:	60a6                	ld	ra,72(sp)
  fff10113f8:	8522                	mv	a0,s0
  fff10113fa:	6406                	ld	s0,64(sp)
  fff10113fc:	74e2                	ld	s1,56(sp)
  fff10113fe:	7942                	ld	s2,48(sp)
  fff1011400:	79a2                	ld	s3,40(sp)
  fff1011402:	7a02                	ld	s4,32(sp)
  fff1011404:	6ae2                	ld	s5,24(sp)
  fff1011406:	6b42                	ld	s6,16(sp)
  fff1011408:	6161                	addi	sp,sp,80
  fff101140a:	8082                	ret
  fff101140c:	dcc5                	beqz	s1,fff10113c4 <spl+0x1344>
  fff101140e:	409c                	lw	a5,0(s1)
  fff1011410:	fff7871b          	addiw	a4,a5,-1
  fff1011414:	c098                	sw	a4,0(s1)
  fff1011416:	fa0757e3          	bgez	a4,fff10113c4 <spl+0x1344>
  fff101141a:	4432                	lw	s0,12(sp)
  fff101141c:	bfe9                	j	fff10113f6 <spl+0x1376>
  fff101141e:	4432                	lw	s0,12(sp)
  fff1011420:	00045663          	bgez	s0,fff101142c <spl+0x13ac>
  fff1011424:	57e1                	li	a5,-8
  fff1011426:	fcf418e3          	bne	s0,a5,fff10113f6 <spl+0x1376>
  fff101142a:	f4f1                	bnez	s1,fff10113f6 <spl+0x1376>
  fff101142c:	547d                	li	s0,-1
  fff101142e:	b7e1                	j	fff10113f6 <spl+0x1376>
  fff1011430:	1101                	addi	sp,sp,-32
  fff1011432:	0070                	addi	a2,sp,12
  fff1011434:	ec06                	sd	ra,24(sp)
  fff1011436:	c602                	sw	zero,12(sp)
  fff1011438:	f67ff0ef          	jal	ra,fff101139e <spl+0x131e>
  fff101143c:	00054663          	bltz	a0,fff1011448 <spl+0x13c8>
  fff1011440:	4732                	lw	a4,12(sp)
  fff1011442:	4785                	li	a5,1
  fff1011444:	00f70363          	beq	a4,a5,fff101144a <spl+0x13ca>
  fff1011448:	557d                	li	a0,-1
  fff101144a:	60e2                	ld	ra,24(sp)
  fff101144c:	6105                	addi	sp,sp,32
  fff101144e:	8082                	ret
  fff1011450:	7179                	addi	sp,sp,-48
  fff1011452:	4785                	li	a5,1
  fff1011454:	f022                	sd	s0,32(sp)
  fff1011456:	ec26                	sd	s1,24(sp)
  fff1011458:	e84a                	sd	s2,16(sp)
  fff101145a:	f406                	sd	ra,40(sp)
  fff101145c:	842a                	mv	s0,a0
  fff101145e:	c63e                	sw	a5,12(sp)
  fff1011460:	00c10913          	addi	s2,sp,12
  fff1011464:	4485                	li	s1,1
  fff1011466:	864a                	mv	a2,s2
  fff1011468:	8522                	mv	a0,s0
  fff101146a:	f35ff0ef          	jal	ra,fff101139e <spl+0x131e>
  fff101146e:	85aa                	mv	a1,a0
  fff1011470:	00054e63          	bltz	a0,fff101148c <spl+0x140c>
  fff1011474:	47b2                	lw	a5,12(sp)
  fff1011476:	00f05b63          	blez	a5,fff101148c <spl+0x140c>
  fff101147a:	fe9796e3          	bne	a5,s1,fff1011466 <spl+0x13e6>
  fff101147e:	70a2                	ld	ra,40(sp)
  fff1011480:	7402                	ld	s0,32(sp)
  fff1011482:	64e2                	ld	s1,24(sp)
  fff1011484:	6942                	ld	s2,16(sp)
  fff1011486:	852e                	mv	a0,a1
  fff1011488:	6145                	addi	sp,sp,48
  fff101148a:	8082                	ret
  fff101148c:	55fd                	li	a1,-1
  fff101148e:	bfc5                	j	fff101147e <spl+0x13fe>
  fff1011490:	4518                	lw	a4,8(a0)
  fff1011492:	00ff08b7          	lui	a7,0xff0
  fff1011496:	0187569b          	srliw	a3,a4,0x18
  fff101149a:	0187179b          	slliw	a5,a4,0x18
  fff101149e:	0087181b          	slliw	a6,a4,0x8
  fff10114a2:	8fd5                	or	a5,a5,a3
  fff10114a4:	01187833          	and	a6,a6,a7
  fff10114a8:	0087569b          	srliw	a3,a4,0x8
  fff10114ac:	6741                	lui	a4,0x10
  fff10114ae:	0107e7b3          	or	a5,a5,a6
  fff10114b2:	f0070813          	addi	a6,a4,-256 # ff00 <ROM_BASE-0xfff1000100>
  fff10114b6:	0106f6b3          	and	a3,a3,a6
  fff10114ba:	8fd5                	or	a5,a5,a3
  fff10114bc:	1782                	slli	a5,a5,0x20
  fff10114be:	9381                	srli	a5,a5,0x20
  fff10114c0:	97ae                	add	a5,a5,a1
  fff10114c2:	953e                	add	a0,a0,a5
  fff10114c4:	c215                	beqz	a2,fff10114e8 <spl+0x1468>
  fff10114c6:	4158                	lw	a4,4(a0)
  fff10114c8:	0187569b          	srliw	a3,a4,0x18
  fff10114cc:	0187179b          	slliw	a5,a4,0x18
  fff10114d0:	8fd5                	or	a5,a5,a3
  fff10114d2:	0087169b          	slliw	a3,a4,0x8
  fff10114d6:	0116f6b3          	and	a3,a3,a7
  fff10114da:	0087571b          	srliw	a4,a4,0x8
  fff10114de:	8fd5                	or	a5,a5,a3
  fff10114e0:	01077733          	and	a4,a4,a6
  fff10114e4:	8f5d                	or	a4,a4,a5
  fff10114e6:	c218                	sw	a4,0(a2)
  fff10114e8:	8082                	ret
  fff10114ea:	715d                	addi	sp,sp,-80
  fff10114ec:	e0a2                	sd	s0,64(sp)
  fff10114ee:	fc26                	sd	s1,56(sp)
  fff10114f0:	f84a                	sd	s2,48(sp)
  fff10114f2:	f44e                	sd	s3,40(sp)
  fff10114f4:	f052                	sd	s4,32(sp)
  fff10114f6:	ec56                	sd	s5,24(sp)
  fff10114f8:	e486                	sd	ra,72(sp)
  fff10114fa:	84aa                	mv	s1,a0
  fff10114fc:	842e                	mv	s0,a1
  fff10114fe:	00c10993          	addi	s3,sp,12
  fff1011502:	4a0d                	li	s4,3
  fff1011504:	4aa5                	li	s5,9
  fff1011506:	4911                	li	s2,4
  fff1011508:	864e                	mv	a2,s3
  fff101150a:	85a2                	mv	a1,s0
  fff101150c:	8526                	mv	a0,s1
  fff101150e:	d5fff0ef          	jal	ra,fff101126c <spl+0x11ec>
  fff1011512:	0005079b          	sext.w	a5,a0
  fff1011516:	01478c63          	beq	a5,s4,fff101152e <spl+0x14ae>
  fff101151a:	4432                	lw	s0,12(sp)
  fff101151c:	01579663          	bne	a5,s5,fff1011528 <spl+0x14a8>
  fff1011520:	00044763          	bltz	s0,fff101152e <spl+0x14ae>
  fff1011524:	5455                	li	s0,-11
  fff1011526:	a021                	j	fff101152e <spl+0x14ae>
  fff1011528:	ff2780e3          	beq	a5,s2,fff1011508 <spl+0x1488>
  fff101152c:	547d                	li	s0,-1
  fff101152e:	60a6                	ld	ra,72(sp)
  fff1011530:	8522                	mv	a0,s0
  fff1011532:	6406                	ld	s0,64(sp)
  fff1011534:	74e2                	ld	s1,56(sp)
  fff1011536:	7942                	ld	s2,48(sp)
  fff1011538:	79a2                	ld	s3,40(sp)
  fff101153a:	7a02                	ld	s4,32(sp)
  fff101153c:	6ae2                	ld	s5,24(sp)
  fff101153e:	6161                	addi	sp,sp,80
  fff1011540:	8082                	ret
  fff1011542:	1101                	addi	sp,sp,-32
  fff1011544:	e822                	sd	s0,16(sp)
  fff1011546:	e426                	sd	s1,8(sp)
  fff1011548:	ec06                	sd	ra,24(sp)
  fff101154a:	4558                	lw	a4,12(a0)
  fff101154c:	84b2                	mv	s1,a2
  fff101154e:	00ff0637          	lui	a2,0xff0
  fff1011552:	0187569b          	srliw	a3,a4,0x18
  fff1011556:	0187179b          	slliw	a5,a4,0x18
  fff101155a:	8fd5                	or	a5,a5,a3
  fff101155c:	0087169b          	slliw	a3,a4,0x8
  fff1011560:	8ef1                	and	a3,a3,a2
  fff1011562:	8fd5                	or	a5,a5,a3
  fff1011564:	66c1                	lui	a3,0x10
  fff1011566:	0087571b          	srliw	a4,a4,0x8
  fff101156a:	f0068693          	addi	a3,a3,-256 # ff00 <ROM_BASE-0xfff1000100>
  fff101156e:	8f75                	and	a4,a4,a3
  fff1011570:	8fd9                	or	a5,a5,a4
  fff1011572:	1782                	slli	a5,a5,0x20
  fff1011574:	9381                	srli	a5,a5,0x20
  fff1011576:	97ae                	add	a5,a5,a1
  fff1011578:	00f50433          	add	s0,a0,a5
  fff101157c:	c489                	beqz	s1,fff1011586 <spl+0x1506>
  fff101157e:	8522                	mv	a0,s0
  fff1011580:	7a8000ef          	jal	ra,fff1011d28 <spl+0x1ca8>
  fff1011584:	c088                	sw	a0,0(s1)
  fff1011586:	60e2                	ld	ra,24(sp)
  fff1011588:	8522                	mv	a0,s0
  fff101158a:	6442                	ld	s0,16(sp)
  fff101158c:	64a2                	ld	s1,8(sp)
  fff101158e:	6105                	addi	sp,sp,32
  fff1011590:	8082                	ret
  fff1011592:	1101                	addi	sp,sp,-32
  fff1011594:	e822                	sd	s0,16(sp)
  fff1011596:	e426                	sd	s1,8(sp)
  fff1011598:	ec06                	sd	ra,24(sp)
  fff101159a:	4518                	lw	a4,8(a0)
  fff101159c:	84b2                	mv	s1,a2
  fff101159e:	00ff0637          	lui	a2,0xff0
  fff10115a2:	0187569b          	srliw	a3,a4,0x18
  fff10115a6:	0187179b          	slliw	a5,a4,0x18
  fff10115aa:	8fd5                	or	a5,a5,a3
  fff10115ac:	0087169b          	slliw	a3,a4,0x8
  fff10115b0:	8ef1                	and	a3,a3,a2
  fff10115b2:	8fd5                	or	a5,a5,a3
  fff10115b4:	66c1                	lui	a3,0x10
  fff10115b6:	0087571b          	srliw	a4,a4,0x8
  fff10115ba:	f0068693          	addi	a3,a3,-256 # ff00 <ROM_BASE-0xfff1000100>
  fff10115be:	8f75                	and	a4,a4,a3
  fff10115c0:	8fd9                	or	a5,a5,a4
  fff10115c2:	1782                	slli	a5,a5,0x20
  fff10115c4:	9381                	srli	a5,a5,0x20
  fff10115c6:	97ae                	add	a5,a5,a1
  fff10115c8:	97aa                	add	a5,a5,a0
  fff10115ca:	00478413          	addi	s0,a5,4
  fff10115ce:	c489                	beqz	s1,fff10115d8 <spl+0x1558>
  fff10115d0:	8522                	mv	a0,s0
  fff10115d2:	756000ef          	jal	ra,fff1011d28 <spl+0x1ca8>
  fff10115d6:	c088                	sw	a0,0(s1)
  fff10115d8:	60e2                	ld	ra,24(sp)
  fff10115da:	8522                	mv	a0,s0
  fff10115dc:	6442                	ld	s0,16(sp)
  fff10115de:	64a2                	ld	s1,8(sp)
  fff10115e0:	6105                	addi	sp,sp,32
  fff10115e2:	8082                	ret
  fff10115e4:	711d                	addi	sp,sp,-96
  fff10115e6:	e8a2                	sd	s0,80(sp)
  fff10115e8:	e0ca                	sd	s2,64(sp)
  fff10115ea:	fc4e                	sd	s3,56(sp)
  fff10115ec:	f852                	sd	s4,48(sp)
  fff10115ee:	f456                	sd	s5,40(sp)
  fff10115f0:	f05a                	sd	s6,32(sp)
  fff10115f2:	ec5e                	sd	s7,24(sp)
  fff10115f4:	ec86                	sd	ra,88(sp)
  fff10115f6:	e4a6                	sd	s1,72(sp)
  fff10115f8:	89aa                	mv	s3,a0
  fff10115fa:	8a32                	mv	s4,a2
  fff10115fc:	8936                	mv	s2,a3
  fff10115fe:	c402                	sw	zero,8(sp)
  fff1011600:	842e                	mv	s0,a1
  fff1011602:	4a85                	li	s5,1
  fff1011604:	00c10b13          	addi	s6,sp,12
  fff1011608:	00810b93          	addi	s7,sp,8
  fff101160c:	47a2                	lw	a5,8(sp)
  fff101160e:	04044c63          	bltz	s0,fff1011666 <spl+0x15e6>
  fff1011612:	0007d463          	bgez	a5,fff101161a <spl+0x159a>
  fff1011616:	547d                	li	s0,-1
  fff1011618:	a889                	j	fff101166a <spl+0x15ea>
  fff101161a:	03579f63          	bne	a5,s5,fff1011658 <spl+0x15d8>
  fff101161e:	865a                	mv	a2,s6
  fff1011620:	85a2                	mv	a1,s0
  fff1011622:	854e                	mv	a0,s3
  fff1011624:	f6fff0ef          	jal	ra,fff1011592 <spl+0x1512>
  fff1011628:	84aa                	mv	s1,a0
  fff101162a:	c51d                	beqz	a0,fff1011658 <spl+0x15d8>
  fff101162c:	864a                	mv	a2,s2
  fff101162e:	85d2                	mv	a1,s4
  fff1011630:	74c000ef          	jal	ra,fff1011d7c <spl+0x1cfc>
  fff1011634:	e115                	bnez	a0,fff1011658 <spl+0x15d8>
  fff1011636:	94ca                	add	s1,s1,s2
  fff1011638:	0004c783          	lbu	a5,0(s1)
  fff101163c:	c79d                	beqz	a5,fff101166a <spl+0x15ea>
  fff101163e:	864a                	mv	a2,s2
  fff1011640:	04000593          	li	a1,64
  fff1011644:	8552                	mv	a0,s4
  fff1011646:	75c000ef          	jal	ra,fff1011da2 <spl+0x1d22>
  fff101164a:	e519                	bnez	a0,fff1011658 <spl+0x15d8>
  fff101164c:	0004c703          	lbu	a4,0(s1)
  fff1011650:	04000793          	li	a5,64
  fff1011654:	00f70b63          	beq	a4,a5,fff101166a <spl+0x15ea>
  fff1011658:	85a2                	mv	a1,s0
  fff101165a:	865e                	mv	a2,s7
  fff101165c:	854e                	mv	a0,s3
  fff101165e:	d41ff0ef          	jal	ra,fff101139e <spl+0x131e>
  fff1011662:	842a                	mv	s0,a0
  fff1011664:	b765                	j	fff101160c <spl+0x158c>
  fff1011666:	fa07c8e3          	bltz	a5,fff1011616 <spl+0x1596>
  fff101166a:	60e6                	ld	ra,88(sp)
  fff101166c:	8522                	mv	a0,s0
  fff101166e:	6446                	ld	s0,80(sp)
  fff1011670:	64a6                	ld	s1,72(sp)
  fff1011672:	6906                	ld	s2,64(sp)
  fff1011674:	79e2                	ld	s3,56(sp)
  fff1011676:	7a42                	ld	s4,48(sp)
  fff1011678:	7aa2                	ld	s5,40(sp)
  fff101167a:	7b02                	ld	s6,32(sp)
  fff101167c:	6be2                	ld	s7,24(sp)
  fff101167e:	6125                	addi	sp,sp,96
  fff1011680:	8082                	ret
  fff1011682:	1141                	addi	sp,sp,-16
  fff1011684:	e022                	sd	s0,0(sp)
  fff1011686:	e406                	sd	ra,8(sp)
  fff1011688:	842a                	mv	s0,a0
  fff101168a:	cc1ff0ef          	jal	ra,fff101134a <spl+0x12ca>
  fff101168e:	00054863          	bltz	a0,fff101169e <spl+0x161e>
  fff1011692:	85aa                	mv	a1,a0
  fff1011694:	8522                	mv	a0,s0
  fff1011696:	6402                	ld	s0,0(sp)
  fff1011698:	60a2                	ld	ra,8(sp)
  fff101169a:	0141                	addi	sp,sp,16
  fff101169c:	b5b9                	j	fff10114ea <spl+0x146a>
  fff101169e:	60a2                	ld	ra,8(sp)
  fff10116a0:	6402                	ld	s0,0(sp)
  fff10116a2:	0141                	addi	sp,sp,16
  fff10116a4:	8082                	ret
  fff10116a6:	1141                	addi	sp,sp,-16
  fff10116a8:	e022                	sd	s0,0(sp)
  fff10116aa:	e406                	sd	ra,8(sp)
  fff10116ac:	842a                	mv	s0,a0
  fff10116ae:	cc7ff0ef          	jal	ra,fff1011374 <spl+0x12f4>
  fff10116b2:	00054863          	bltz	a0,fff10116c2 <spl+0x1642>
  fff10116b6:	85aa                	mv	a1,a0
  fff10116b8:	8522                	mv	a0,s0
  fff10116ba:	6402                	ld	s0,0(sp)
  fff10116bc:	60a2                	ld	ra,8(sp)
  fff10116be:	0141                	addi	sp,sp,16
  fff10116c0:	b52d                	j	fff10114ea <spl+0x146a>
  fff10116c2:	60a2                	ld	ra,8(sp)
  fff10116c4:	6402                	ld	s0,0(sp)
  fff10116c6:	0141                	addi	sp,sp,16
  fff10116c8:	8082                	ret
  fff10116ca:	7159                	addi	sp,sp,-112
  fff10116cc:	f0a2                	sd	s0,96(sp)
  fff10116ce:	eca6                	sd	s1,88(sp)
  fff10116d0:	e8ca                	sd	s2,80(sp)
  fff10116d2:	e4ce                	sd	s3,72(sp)
  fff10116d4:	e0d2                	sd	s4,64(sp)
  fff10116d6:	fc56                	sd	s5,56(sp)
  fff10116d8:	f85a                	sd	s6,48(sp)
  fff10116da:	f45e                	sd	s7,40(sp)
  fff10116dc:	f062                	sd	s8,32(sp)
  fff10116de:	f486                	sd	ra,104(sp)
  fff10116e0:	ec66                	sd	s9,24(sp)
  fff10116e2:	892a                	mv	s2,a0
  fff10116e4:	8ab2                	mv	s5,a2
  fff10116e6:	89b6                	mv	s3,a3
  fff10116e8:	84ba                	mv	s1,a4
  fff10116ea:	8a3e                	mv	s4,a5
  fff10116ec:	6b41                	lui	s6,0x10
  fff10116ee:	f95ff0ef          	jal	ra,fff1011682 <spl+0x1602>
  fff10116f2:	842a                	mv	s0,a0
  fff10116f4:	00c10b93          	addi	s7,sp,12
  fff10116f8:	00ff0c37          	lui	s8,0xff0
  fff10116fc:	f00b0b13          	addi	s6,s6,-256 # ff00 <ROM_BASE-0xfff1000100>
  fff1011700:	00045663          	bgez	s0,fff101170c <spl+0x168c>
  fff1011704:	4c81                	li	s9,0
  fff1011706:	c0bd                	beqz	s1,fff101176c <spl+0x16ec>
  fff1011708:	c080                	sw	s0,0(s1)
  fff101170a:	a08d                	j	fff101176c <spl+0x16ec>
  fff101170c:	8626                	mv	a2,s1
  fff101170e:	85a2                	mv	a1,s0
  fff1011710:	854a                	mv	a0,s2
  fff1011712:	d7fff0ef          	jal	ra,fff1011490 <spl+0x1410>
  fff1011716:	00852803          	lw	a6,8(a0)
  fff101171a:	8caa                	mv	s9,a0
  fff101171c:	865e                	mv	a2,s7
  fff101171e:	0188579b          	srliw	a5,a6,0x18
  fff1011722:	0188159b          	slliw	a1,a6,0x18
  fff1011726:	8ddd                	or	a1,a1,a5
  fff1011728:	0088179b          	slliw	a5,a6,0x8
  fff101172c:	0187f7b3          	and	a5,a5,s8
  fff1011730:	0088581b          	srliw	a6,a6,0x8
  fff1011734:	8ddd                	or	a1,a1,a5
  fff1011736:	01687833          	and	a6,a6,s6
  fff101173a:	0105e5b3          	or	a1,a1,a6
  fff101173e:	2581                	sext.w	a1,a1
  fff1011740:	854a                	mv	a0,s2
  fff1011742:	e01ff0ef          	jal	ra,fff1011542 <spl+0x14c2>
  fff1011746:	e519                	bnez	a0,fff1011754 <spl+0x16d4>
  fff1011748:	85a2                	mv	a1,s0
  fff101174a:	854a                	mv	a0,s2
  fff101174c:	f5bff0ef          	jal	ra,fff10116a6 <spl+0x1626>
  fff1011750:	842a                	mv	s0,a0
  fff1011752:	b77d                	j	fff1011700 <spl+0x1680>
  fff1011754:	47b2                	lw	a5,12(sp)
  fff1011756:	ff3799e3          	bne	a5,s3,fff1011748 <spl+0x16c8>
  fff101175a:	864e                	mv	a2,s3
  fff101175c:	85d6                	mv	a1,s5
  fff101175e:	61e000ef          	jal	ra,fff1011d7c <spl+0x1cfc>
  fff1011762:	f17d                	bnez	a0,fff1011748 <spl+0x16c8>
  fff1011764:	000a0463          	beqz	s4,fff101176c <spl+0x16ec>
  fff1011768:	008a2023          	sw	s0,0(s4)
  fff101176c:	70a6                	ld	ra,104(sp)
  fff101176e:	7406                	ld	s0,96(sp)
  fff1011770:	64e6                	ld	s1,88(sp)
  fff1011772:	6946                	ld	s2,80(sp)
  fff1011774:	69a6                	ld	s3,72(sp)
  fff1011776:	6a06                	ld	s4,64(sp)
  fff1011778:	7ae2                	ld	s5,56(sp)
  fff101177a:	7b42                	ld	s6,48(sp)
  fff101177c:	7ba2                	ld	s7,40(sp)
  fff101177e:	7c02                	ld	s8,32(sp)
  fff1011780:	8566                	mv	a0,s9
  fff1011782:	6ce2                	ld	s9,24(sp)
  fff1011784:	6165                	addi	sp,sp,112
  fff1011786:	8082                	ret
  fff1011788:	1101                	addi	sp,sp,-32
  fff101178a:	007c                	addi	a5,sp,12
  fff101178c:	ec06                	sd	ra,24(sp)
  fff101178e:	f3dff0ef          	jal	ra,fff10116ca <spl+0x164a>
  fff1011792:	c111                	beqz	a0,fff1011796 <spl+0x1716>
  fff1011794:	0531                	addi	a0,a0,12
  fff1011796:	60e2                	ld	ra,24(sp)
  fff1011798:	6105                	addi	sp,sp,32
  fff101179a:	8082                	ret
  fff101179c:	7179                	addi	sp,sp,-48
  fff101179e:	f022                	sd	s0,32(sp)
  fff10117a0:	842a                	mv	s0,a0
  fff10117a2:	8532                	mv	a0,a2
  fff10117a4:	f406                	sd	ra,40(sp)
  fff10117a6:	ec2e                	sd	a1,24(sp)
  fff10117a8:	e836                	sd	a3,16(sp)
  fff10117aa:	e432                	sd	a2,8(sp)
  fff10117ac:	57c000ef          	jal	ra,fff1011d28 <spl+0x1ca8>
  fff10117b0:	0005069b          	sext.w	a3,a0
  fff10117b4:	8522                	mv	a0,s0
  fff10117b6:	7402                	ld	s0,32(sp)
  fff10117b8:	6742                	ld	a4,16(sp)
  fff10117ba:	6622                	ld	a2,8(sp)
  fff10117bc:	65e2                	ld	a1,24(sp)
  fff10117be:	70a2                	ld	ra,40(sp)
  fff10117c0:	6145                	addi	sp,sp,48
  fff10117c2:	b7d9                	j	fff1011788 <spl+0x1708>
  fff10117c4:	7179                	addi	sp,sp,-48
  fff10117c6:	ec26                	sd	s1,24(sp)
  fff10117c8:	84ae                	mv	s1,a1
  fff10117ca:	00006597          	auipc	a1,0x6
  fff10117ce:	3fe58593          	addi	a1,a1,1022 # fff1017bc8 <spl+0x7b48>
  fff10117d2:	f022                	sd	s0,32(sp)
  fff10117d4:	f406                	sd	ra,40(sp)
  fff10117d6:	842a                	mv	s0,a0
  fff10117d8:	e432                	sd	a2,8(sp)
  fff10117da:	0d2000ef          	jal	ra,fff10118ac <spl+0x182c>
  fff10117de:	00054c63          	bltz	a0,fff10117f6 <spl+0x1776>
  fff10117e2:	85aa                	mv	a1,a0
  fff10117e4:	8522                	mv	a0,s0
  fff10117e6:	7402                	ld	s0,32(sp)
  fff10117e8:	66a2                	ld	a3,8(sp)
  fff10117ea:	70a2                	ld	ra,40(sp)
  fff10117ec:	8626                	mv	a2,s1
  fff10117ee:	64e2                	ld	s1,24(sp)
  fff10117f0:	4701                	li	a4,0
  fff10117f2:	6145                	addi	sp,sp,48
  fff10117f4:	bf51                	j	fff1011788 <spl+0x1708>
  fff10117f6:	70a2                	ld	ra,40(sp)
  fff10117f8:	7402                	ld	s0,32(sp)
  fff10117fa:	64e2                	ld	s1,24(sp)
  fff10117fc:	4501                	li	a0,0
  fff10117fe:	6145                	addi	sp,sp,48
  fff1011800:	8082                	ret
  fff1011802:	7139                	addi	sp,sp,-64
  fff1011804:	f822                	sd	s0,48(sp)
  fff1011806:	f426                	sd	s1,40(sp)
  fff1011808:	ec4e                	sd	s3,24(sp)
  fff101180a:	e852                	sd	s4,16(sp)
  fff101180c:	fc06                	sd	ra,56(sp)
  fff101180e:	f04a                	sd	s2,32(sp)
  fff1011810:	e456                	sd	s5,8(sp)
  fff1011812:	0005c703          	lbu	a4,0(a1)
  fff1011816:	02f00793          	li	a5,47
  fff101181a:	8a2a                	mv	s4,a0
  fff101181c:	842e                	mv	s0,a1
  fff101181e:	00c589b3          	add	s3,a1,a2
  fff1011822:	4481                	li	s1,0
  fff1011824:	02f70863          	beq	a4,a5,fff1011854 <spl+0x17d4>
  fff1011828:	02f00593          	li	a1,47
  fff101182c:	8522                	mv	a0,s0
  fff101182e:	574000ef          	jal	ra,fff1011da2 <spl+0x1d22>
  fff1011832:	892a                	mv	s2,a0
  fff1011834:	e111                	bnez	a0,fff1011838 <spl+0x17b8>
  fff1011836:	894e                	mv	s2,s3
  fff1011838:	85a2                	mv	a1,s0
  fff101183a:	4089063b          	subw	a2,s2,s0
  fff101183e:	8552                	mv	a0,s4
  fff1011840:	f85ff0ef          	jal	ra,fff10117c4 <spl+0x1744>
  fff1011844:	85aa                	mv	a1,a0
  fff1011846:	54ed                	li	s1,-5
  fff1011848:	cd01                	beqz	a0,fff1011860 <spl+0x17e0>
  fff101184a:	8552                	mv	a0,s4
  fff101184c:	060000ef          	jal	ra,fff10118ac <spl+0x182c>
  fff1011850:	84aa                	mv	s1,a0
  fff1011852:	844a                	mv	s0,s2
  fff1011854:	02f00a93          	li	s5,47
  fff1011858:	a0b9                	j	fff10118a6 <spl+0x1826>
  fff101185a:	0905                	addi	s2,s2,1
  fff101185c:	01299d63          	bne	s3,s2,fff1011876 <spl+0x17f6>
  fff1011860:	70e2                	ld	ra,56(sp)
  fff1011862:	7442                	ld	s0,48(sp)
  fff1011864:	7902                	ld	s2,32(sp)
  fff1011866:	69e2                	ld	s3,24(sp)
  fff1011868:	6a42                	ld	s4,16(sp)
  fff101186a:	6aa2                	ld	s5,8(sp)
  fff101186c:	8526                	mv	a0,s1
  fff101186e:	74a2                	ld	s1,40(sp)
  fff1011870:	6121                	addi	sp,sp,64
  fff1011872:	8082                	ret
  fff1011874:	8922                	mv	s2,s0
  fff1011876:	00094783          	lbu	a5,0(s2)
  fff101187a:	ff5780e3          	beq	a5,s5,fff101185a <spl+0x17da>
  fff101187e:	41298633          	sub	a2,s3,s2
  fff1011882:	02f00593          	li	a1,47
  fff1011886:	854a                	mv	a0,s2
  fff1011888:	51a000ef          	jal	ra,fff1011da2 <spl+0x1d22>
  fff101188c:	842a                	mv	s0,a0
  fff101188e:	e111                	bnez	a0,fff1011892 <spl+0x1812>
  fff1011890:	844e                	mv	s0,s3
  fff1011892:	85a6                	mv	a1,s1
  fff1011894:	412406bb          	subw	a3,s0,s2
  fff1011898:	864a                	mv	a2,s2
  fff101189a:	8552                	mv	a0,s4
  fff101189c:	d49ff0ef          	jal	ra,fff10115e4 <spl+0x1564>
  fff10118a0:	84aa                	mv	s1,a0
  fff10118a2:	fa054fe3          	bltz	a0,fff1011860 <spl+0x17e0>
  fff10118a6:	fd3467e3          	bltu	s0,s3,fff1011874 <spl+0x17f4>
  fff10118aa:	bf5d                	j	fff1011860 <spl+0x17e0>
  fff10118ac:	1101                	addi	sp,sp,-32
  fff10118ae:	e822                	sd	s0,16(sp)
  fff10118b0:	842a                	mv	s0,a0
  fff10118b2:	852e                	mv	a0,a1
  fff10118b4:	ec06                	sd	ra,24(sp)
  fff10118b6:	e42e                	sd	a1,8(sp)
  fff10118b8:	470000ef          	jal	ra,fff1011d28 <spl+0x1ca8>
  fff10118bc:	0005061b          	sext.w	a2,a0
  fff10118c0:	8522                	mv	a0,s0
  fff10118c2:	6442                	ld	s0,16(sp)
  fff10118c4:	65a2                	ld	a1,8(sp)
  fff10118c6:	60e2                	ld	ra,24(sp)
  fff10118c8:	6105                	addi	sp,sp,32
  fff10118ca:	bf25                	j	fff1011802 <spl+0x1782>
  fff10118cc:	1101                	addi	sp,sp,-32
  fff10118ce:	0074                	addi	a3,sp,12
  fff10118d0:	ec06                	sd	ra,24(sp)
  fff10118d2:	ecbff0ef          	jal	ra,fff101179c <spl+0x171c>
  fff10118d6:	e509                	bnez	a0,fff10118e0 <spl+0x1860>
  fff10118d8:	4532                	lw	a0,12(sp)
  fff10118da:	60e2                	ld	ra,24(sp)
  fff10118dc:	6105                	addi	sp,sp,32
  fff10118de:	8082                	ret
  fff10118e0:	4632                	lw	a2,12(sp)
  fff10118e2:	4711                	li	a4,4
  fff10118e4:	87aa                	mv	a5,a0
  fff10118e6:	5549                	li	a0,-14
  fff10118e8:	fee619e3          	bne	a2,a4,fff10118da <spl+0x185a>
  fff10118ec:	4398                	lw	a4,0(a5)
  fff10118ee:	00ff05b7          	lui	a1,0xff0
  fff10118f2:	0187569b          	srliw	a3,a4,0x18
  fff10118f6:	0187179b          	slliw	a5,a4,0x18
  fff10118fa:	8fd5                	or	a5,a5,a3
  fff10118fc:	0087169b          	slliw	a3,a4,0x8
  fff1011900:	8eed                	and	a3,a3,a1
  fff1011902:	8fd5                	or	a5,a5,a3
  fff1011904:	66c1                	lui	a3,0x10
  fff1011906:	0087571b          	srliw	a4,a4,0x8
  fff101190a:	f0068693          	addi	a3,a3,-256 # ff00 <ROM_BASE-0xfff1000100>
  fff101190e:	8f75                	and	a4,a4,a3
  fff1011910:	8fd9                	or	a5,a5,a4
  fff1011912:	2781                	sext.w	a5,a5
  fff1011914:	fcf663e3          	bltu	a2,a5,fff10118da <spl+0x185a>
  fff1011918:	0007851b          	sext.w	a0,a5
  fff101191c:	bf7d                	j	fff10118da <spl+0x185a>
  fff101191e:	1141                	addi	sp,sp,-16
  fff1011920:	00006617          	auipc	a2,0x6
  fff1011924:	29860613          	addi	a2,a2,664 # fff1017bb8 <spl+0x7b38>
  fff1011928:	e406                	sd	ra,8(sp)
  fff101192a:	fa3ff0ef          	jal	ra,fff10118cc <spl+0x184c>
  fff101192e:	c901                	beqz	a0,fff101193e <spl+0x18be>
  fff1011930:	57fd                	li	a5,-1
  fff1011932:	00f51363          	bne	a0,a5,fff1011938 <spl+0x18b8>
  fff1011936:	4509                	li	a0,2
  fff1011938:	60a2                	ld	ra,8(sp)
  fff101193a:	0141                	addi	sp,sp,16
  fff101193c:	8082                	ret
  fff101193e:	5549                	li	a0,-14
  fff1011940:	bfe5                	j	fff1011938 <spl+0x18b8>
  fff1011942:	1141                	addi	sp,sp,-16
  fff1011944:	00006617          	auipc	a2,0x6
  fff1011948:	29460613          	addi	a2,a2,660 # fff1017bd8 <spl+0x7b58>
  fff101194c:	e406                	sd	ra,8(sp)
  fff101194e:	f7fff0ef          	jal	ra,fff10118cc <spl+0x184c>
  fff1011952:	57fd                	li	a5,-1
  fff1011954:	00f51363          	bne	a0,a5,fff101195a <spl+0x18da>
  fff1011958:	4505                	li	a0,1
  fff101195a:	60a2                	ld	ra,8(sp)
  fff101195c:	0141                	addi	sp,sp,16
  fff101195e:	8082                	ret
  fff1011960:	7179                	addi	sp,sp,-48
  fff1011962:	ec26                	sd	s1,24(sp)
  fff1011964:	84b6                	mv	s1,a3
  fff1011966:	0074                	addi	a3,sp,12
  fff1011968:	f022                	sd	s0,32(sp)
  fff101196a:	f406                	sd	ra,40(sp)
  fff101196c:	843a                	mv	s0,a4
  fff101196e:	e2fff0ef          	jal	ra,fff101179c <spl+0x171c>
  fff1011972:	57fd                	li	a5,-1
  fff1011974:	c509                	beqz	a0,fff101197e <spl+0x18fe>
  fff1011976:	47b2                	lw	a5,12(sp)
  fff1011978:	0097d963          	bge	a5,s1,fff101198a <spl+0x190a>
  fff101197c:	57d1                	li	a5,-12
  fff101197e:	c01c                	sw	a5,0(s0)
  fff1011980:	70a2                	ld	ra,40(sp)
  fff1011982:	7402                	ld	s0,32(sp)
  fff1011984:	64e2                	ld	s1,24(sp)
  fff1011986:	6145                	addi	sp,sp,48
  fff1011988:	8082                	ret
  fff101198a:	00042023          	sw	zero,0(s0)
  fff101198e:	bfcd                	j	fff1011980 <spl+0x1900>
  fff1011990:	1141                	addi	sp,sp,-16
  fff1011992:	4681                	li	a3,0
  fff1011994:	00006617          	auipc	a2,0x6
  fff1011998:	26c60613          	addi	a2,a2,620 # fff1017c00 <spl+0x7b80>
  fff101199c:	e406                	sd	ra,8(sp)
  fff101199e:	dffff0ef          	jal	ra,fff101179c <spl+0x171c>
  fff10119a2:	cd01                	beqz	a0,fff10119ba <spl+0x193a>
  fff10119a4:	00006597          	auipc	a1,0x6
  fff10119a8:	26458593          	addi	a1,a1,612 # fff1017c08 <spl+0x7b88>
  fff10119ac:	34e000ef          	jal	ra,fff1011cfa <spl+0x1c7a>
  fff10119b0:	00153513          	seqz	a0,a0
  fff10119b4:	60a2                	ld	ra,8(sp)
  fff10119b6:	0141                	addi	sp,sp,16
  fff10119b8:	8082                	ret
  fff10119ba:	4505                	li	a0,1
  fff10119bc:	bfe5                	j	fff10119b4 <spl+0x1934>
  fff10119be:	1101                	addi	sp,sp,-32
  fff10119c0:	ec06                	sd	ra,24(sp)
  fff10119c2:	e822                	sd	s0,16(sp)
  fff10119c4:	e42e                	sd	a1,8(sp)
  fff10119c6:	c105                	beqz	a0,fff10119e6 <spl+0x1966>
  fff10119c8:	00006597          	auipc	a1,0x6
  fff10119cc:	23058593          	addi	a1,a1,560 # fff1017bf8 <spl+0x7b78>
  fff10119d0:	842a                	mv	s0,a0
  fff10119d2:	edbff0ef          	jal	ra,fff10118ac <spl+0x182c>
  fff10119d6:	85aa                	mv	a1,a0
  fff10119d8:	8522                	mv	a0,s0
  fff10119da:	6442                	ld	s0,16(sp)
  fff10119dc:	6622                	ld	a2,8(sp)
  fff10119de:	60e2                	ld	ra,24(sp)
  fff10119e0:	4681                	li	a3,0
  fff10119e2:	6105                	addi	sp,sp,32
  fff10119e4:	bb65                	j	fff101179c <spl+0x171c>
  fff10119e6:	60e2                	ld	ra,24(sp)
  fff10119e8:	6442                	ld	s0,16(sp)
  fff10119ea:	6105                	addi	sp,sp,32
  fff10119ec:	8082                	ret
  fff10119ee:	7179                	addi	sp,sp,-48
  fff10119f0:	f022                	sd	s0,32(sp)
  fff10119f2:	ec26                	sd	s1,24(sp)
  fff10119f4:	843a                	mv	s0,a4
  fff10119f6:	84b6                	mv	s1,a3
  fff10119f8:	0027169b          	slliw	a3,a4,0x2
  fff10119fc:	0078                	addi	a4,sp,12
  fff10119fe:	f406                	sd	ra,40(sp)
  fff1011a00:	c602                	sw	zero,12(sp)
  fff1011a02:	f5fff0ef          	jal	ra,fff1011960 <spl+0x18e0>
  fff1011a06:	882a                	mv	a6,a0
  fff1011a08:	4532                	lw	a0,12(sp)
  fff1011a0a:	c521                	beqz	a0,fff1011a52 <spl+0x19d2>
  fff1011a0c:	70a2                	ld	ra,40(sp)
  fff1011a0e:	7402                	ld	s0,32(sp)
  fff1011a10:	64e2                	ld	s1,24(sp)
  fff1011a12:	6145                	addi	sp,sp,48
  fff1011a14:	8082                	ret
  fff1011a16:	00271613          	slli	a2,a4,0x2
  fff1011a1a:	00c807b3          	add	a5,a6,a2
  fff1011a1e:	439c                	lw	a5,0(a5)
  fff1011a20:	00c485b3          	add	a1,s1,a2
  fff1011a24:	0705                	addi	a4,a4,1
  fff1011a26:	0187d89b          	srliw	a7,a5,0x18
  fff1011a2a:	0187961b          	slliw	a2,a5,0x18
  fff1011a2e:	01166633          	or	a2,a2,a7
  fff1011a32:	0087989b          	slliw	a7,a5,0x8
  fff1011a36:	0068f8b3          	and	a7,a7,t1
  fff1011a3a:	0087d79b          	srliw	a5,a5,0x8
  fff1011a3e:	01166633          	or	a2,a2,a7
  fff1011a42:	8ff5                	and	a5,a5,a3
  fff1011a44:	8fd1                	or	a5,a5,a2
  fff1011a46:	c19c                	sw	a5,0(a1)
  fff1011a48:	0007079b          	sext.w	a5,a4
  fff1011a4c:	fc87c5e3          	blt	a5,s0,fff1011a16 <spl+0x1996>
  fff1011a50:	bf75                	j	fff1011a0c <spl+0x198c>
  fff1011a52:	66c1                	lui	a3,0x10
  fff1011a54:	4701                	li	a4,0
  fff1011a56:	00ff0337          	lui	t1,0xff0
  fff1011a5a:	f0068693          	addi	a3,a3,-256 # ff00 <ROM_BASE-0xfff1000100>
  fff1011a5e:	b7ed                	j	fff1011a48 <spl+0x19c8>
  fff1011a60:	6641                	lui	a2,0x10
  fff1011a62:	86aa                	mv	a3,a0
  fff1011a64:	58fd                	li	a7,-1
  fff1011a66:	4501                	li	a0,0
  fff1011a68:	00ff0337          	lui	t1,0xff0
  fff1011a6c:	f0060613          	addi	a2,a2,-256 # ff00 <ROM_BASE-0xfff1000100>
  fff1011a70:	35fd                	addiw	a1,a1,-1
  fff1011a72:	01159363          	bne	a1,a7,fff1011a78 <spl+0x19f8>
  fff1011a76:	8082                	ret
  fff1011a78:	4298                	lw	a4,0(a3)
  fff1011a7a:	1502                	slli	a0,a0,0x20
  fff1011a7c:	0691                	addi	a3,a3,4
  fff1011a7e:	0187581b          	srliw	a6,a4,0x18
  fff1011a82:	0187179b          	slliw	a5,a4,0x18
  fff1011a86:	0107e7b3          	or	a5,a5,a6
  fff1011a8a:	0087181b          	slliw	a6,a4,0x8
  fff1011a8e:	00687833          	and	a6,a6,t1
  fff1011a92:	0087571b          	srliw	a4,a4,0x8
  fff1011a96:	0107e7b3          	or	a5,a5,a6
  fff1011a9a:	8f71                	and	a4,a4,a2
  fff1011a9c:	8fd9                	or	a5,a5,a4
  fff1011a9e:	1782                	slli	a5,a5,0x20
  fff1011aa0:	9381                	srli	a5,a5,0x20
  fff1011aa2:	8d5d                	or	a0,a0,a5
  fff1011aa4:	b7f1                	j	fff1011a70 <spl+0x19f0>
  fff1011aa6:	7139                	addi	sp,sp,-64
  fff1011aa8:	f822                	sd	s0,48(sp)
  fff1011aaa:	8436                	mv	s0,a3
  fff1011aac:	0074                	addi	a3,sp,12
  fff1011aae:	f426                	sd	s1,40(sp)
  fff1011ab0:	f04a                	sd	s2,32(sp)
  fff1011ab2:	ec4e                	sd	s3,24(sp)
  fff1011ab4:	fc06                	sd	ra,56(sp)
  fff1011ab6:	e852                	sd	s4,16(sp)
  fff1011ab8:	893a                	mv	s2,a4
  fff1011aba:	84be                	mv	s1,a5
  fff1011abc:	89c2                	mv	s3,a6
  fff1011abe:	cdfff0ef          	jal	ra,fff101179c <spl+0x171c>
  fff1011ac2:	c929                	beqz	a0,fff1011b14 <spl+0x1a94>
  fff1011ac4:	0099063b          	addw	a2,s2,s1
  fff1011ac8:	028606bb          	mulw	a3,a2,s0
  fff1011acc:	47b2                	lw	a5,12(sp)
  fff1011ace:	88aa                	mv	a7,a0
  fff1011ad0:	00291a13          	slli	s4,s2,0x2
  fff1011ad4:	9bf1                	andi	a5,a5,-4
  fff1011ad6:	98be                	add	a7,a7,a5
  fff1011ad8:	00249793          	slli	a5,s1,0x2
  fff1011adc:	547d                	li	s0,-1
  fff1011ade:	068a                	slli	a3,a3,0x2
  fff1011ae0:	9536                	add	a0,a0,a3
  fff1011ae2:	9a2a                	add	s4,s4,a0
  fff1011ae4:	97d2                	add	a5,a5,s4
  fff1011ae6:	00f8ee63          	bltu	a7,a5,fff1011b02 <spl+0x1a82>
  fff1011aea:	85ca                	mv	a1,s2
  fff1011aec:	f75ff0ef          	jal	ra,fff1011a60 <spl+0x19e0>
  fff1011af0:	842a                	mv	s0,a0
  fff1011af2:	00098863          	beqz	s3,fff1011b02 <spl+0x1a82>
  fff1011af6:	85a6                	mv	a1,s1
  fff1011af8:	8552                	mv	a0,s4
  fff1011afa:	f67ff0ef          	jal	ra,fff1011a60 <spl+0x19e0>
  fff1011afe:	00a9b023          	sd	a0,0(s3)
  fff1011b02:	70e2                	ld	ra,56(sp)
  fff1011b04:	8522                	mv	a0,s0
  fff1011b06:	7442                	ld	s0,48(sp)
  fff1011b08:	74a2                	ld	s1,40(sp)
  fff1011b0a:	7902                	ld	s2,32(sp)
  fff1011b0c:	69e2                	ld	s3,24(sp)
  fff1011b0e:	6a42                	ld	s4,16(sp)
  fff1011b10:	6121                	addi	sp,sp,64
  fff1011b12:	8082                	ret
  fff1011b14:	547d                	li	s0,-1
  fff1011b16:	b7f5                	j	fff1011b02 <spl+0x1a82>
  fff1011b18:	715d                	addi	sp,sp,-80
  fff1011b1a:	e0a2                	sd	s0,64(sp)
  fff1011b1c:	f84a                	sd	s2,48(sp)
  fff1011b1e:	f44e                	sd	s3,40(sp)
  fff1011b20:	f052                	sd	s4,32(sp)
  fff1011b22:	ec56                	sd	s5,24(sp)
  fff1011b24:	e85a                	sd	s6,16(sp)
  fff1011b26:	e45e                	sd	s7,8(sp)
  fff1011b28:	e486                	sd	ra,72(sp)
  fff1011b2a:	fc26                	sd	s1,56(sp)
  fff1011b2c:	842a                	mv	s0,a0
  fff1011b2e:	8bae                	mv	s7,a1
  fff1011b30:	8932                	mv	s2,a2
  fff1011b32:	89b6                	mv	s3,a3
  fff1011b34:	8a3a                	mv	s4,a4
  fff1011b36:	8abe                	mv	s5,a5
  fff1011b38:	8b42                	mv	s6,a6
  fff1011b3a:	de5ff0ef          	jal	ra,fff101191e <spl+0x189e>
  fff1011b3e:	02a05c63          	blez	a0,fff1011b76 <spl+0x1af6>
  fff1011b42:	84aa                	mv	s1,a0
  fff1011b44:	85de                	mv	a1,s7
  fff1011b46:	8522                	mv	a0,s0
  fff1011b48:	dfbff0ef          	jal	ra,fff1011942 <spl+0x18c2>
  fff1011b4c:	87aa                	mv	a5,a0
  fff1011b4e:	02054463          	bltz	a0,fff1011b76 <spl+0x1af6>
  fff1011b52:	8522                	mv	a0,s0
  fff1011b54:	6406                	ld	s0,64(sp)
  fff1011b56:	60a6                	ld	ra,72(sp)
  fff1011b58:	6ba2                	ld	s7,8(sp)
  fff1011b5a:	88da                	mv	a7,s6
  fff1011b5c:	8856                	mv	a6,s5
  fff1011b5e:	6b42                	ld	s6,16(sp)
  fff1011b60:	6ae2                	ld	s5,24(sp)
  fff1011b62:	8726                	mv	a4,s1
  fff1011b64:	86d2                	mv	a3,s4
  fff1011b66:	74e2                	ld	s1,56(sp)
  fff1011b68:	7a02                	ld	s4,32(sp)
  fff1011b6a:	864e                	mv	a2,s3
  fff1011b6c:	85ca                	mv	a1,s2
  fff1011b6e:	79a2                	ld	s3,40(sp)
  fff1011b70:	7942                	ld	s2,48(sp)
  fff1011b72:	6161                	addi	sp,sp,80
  fff1011b74:	bf0d                	j	fff1011aa6 <spl+0x1a26>
  fff1011b76:	60a6                	ld	ra,72(sp)
  fff1011b78:	6406                	ld	s0,64(sp)
  fff1011b7a:	74e2                	ld	s1,56(sp)
  fff1011b7c:	7942                	ld	s2,48(sp)
  fff1011b7e:	79a2                	ld	s3,40(sp)
  fff1011b80:	7a02                	ld	s4,32(sp)
  fff1011b82:	6ae2                	ld	s5,24(sp)
  fff1011b84:	6b42                	ld	s6,16(sp)
  fff1011b86:	6ba2                	ld	s7,8(sp)
  fff1011b88:	557d                	li	a0,-1
  fff1011b8a:	6161                	addi	sp,sp,80
  fff1011b8c:	8082                	ret
  fff1011b8e:	4501                	li	a0,0
  fff1011b90:	8082                	ret
  fff1011b92:	1141                	addi	sp,sp,-16
  fff1011b94:	e406                	sd	ra,8(sp)
  fff1011b96:	00007517          	auipc	a0,0x7
  fff1011b9a:	22a53503          	ld	a0,554(a0) # fff1018dc0 <spl+0x8d40>
  fff1011b9e:	0ca1bc23          	sd	a0,216(gp)
  fff1011ba2:	0e01a823          	sw	zero,240(gp)
  fff1011ba6:	cd09                	beqz	a0,fff1011bc0 <spl+0x1b40>
  fff1011ba8:	e02ff0ef          	jal	ra,fff10111aa <spl+0x112a>
  fff1011bac:	e911                	bnez	a0,fff1011bc0 <spl+0x1b40>
  fff1011bae:	60a2                	ld	ra,8(sp)
  fff1011bb0:	0d81b503          	ld	a0,216(gp)
  fff1011bb4:	00007317          	auipc	t1,0x7
  fff1011bb8:	23c33303          	ld	t1,572(t1) # fff1018df0 <spl+0x8d70>
  fff1011bbc:	0141                	addi	sp,sp,16
  fff1011bbe:	8302                	jr	t1
  fff1011bc0:	00006517          	auipc	a0,0x6
  fff1011bc4:	02850513          	addi	a0,a0,40 # fff1017be8 <spl+0x7b68>
  fff1011bc8:	d20ff0ef          	jal	ra,fff10110e8 <spl+0x1068>
  fff1011bcc:	60a2                	ld	ra,8(sp)
  fff1011bce:	5579                	li	a0,-2
  fff1011bd0:	0141                	addi	sp,sp,16
  fff1011bd2:	8082                	ret
  fff1011bd4:	0035f793          	andi	a5,a1,3
  fff1011bd8:	cb85                	beqz	a5,fff1011c08 <spl+0x1b88>
  fff1011bda:	c61d                	beqz	a2,fff1011c08 <spl+0x1b88>
  fff1011bdc:	00006717          	auipc	a4,0x6
  fff1011be0:	aa470713          	addi	a4,a4,-1372 # fff1017680 <spl+0x7600>
  fff1011be4:	0005c783          	lbu	a5,0(a1)
  fff1011be8:	367d                	addiw	a2,a2,-1
  fff1011bea:	0585                	addi	a1,a1,1
  fff1011bec:	8fa9                	xor	a5,a5,a0
  fff1011bee:	0ff7f793          	zext.b	a5,a5
  fff1011bf2:	078a                	slli	a5,a5,0x2
  fff1011bf4:	97ba                	add	a5,a5,a4
  fff1011bf6:	439c                	lw	a5,0(a5)
  fff1011bf8:	0085551b          	srliw	a0,a0,0x8
  fff1011bfc:	8d3d                	xor	a0,a0,a5
  fff1011bfe:	2501                	sext.w	a0,a0
  fff1011c00:	c601                	beqz	a2,fff1011c08 <spl+0x1b88>
  fff1011c02:	0035f793          	andi	a5,a1,3
  fff1011c06:	fff9                	bnez	a5,fff1011be4 <spl+0x1b64>
  fff1011c08:	15f1                	addi	a1,a1,-4
  fff1011c0a:	00367693          	andi	a3,a2,3
  fff1011c0e:	0026571b          	srliw	a4,a2,0x2
  fff1011c12:	882e                	mv	a6,a1
  fff1011c14:	0026561b          	srliw	a2,a2,0x2
  fff1011c18:	00006897          	auipc	a7,0x6
  fff1011c1c:	a6888893          	addi	a7,a7,-1432 # fff1017680 <spl+0x7600>
  fff1011c20:	ea15                	bnez	a2,fff1011c54 <spl+0x1bd4>
  fff1011c22:	1702                	slli	a4,a4,0x20
  fff1011c24:	8379                	srli	a4,a4,0x1e
  fff1011c26:	972e                	add	a4,a4,a1
  fff1011c28:	c68d                	beqz	a3,fff1011c52 <spl+0x1bd2>
  fff1011c2a:	070d                	addi	a4,a4,3
  fff1011c2c:	00006617          	auipc	a2,0x6
  fff1011c30:	a5460613          	addi	a2,a2,-1452 # fff1017680 <spl+0x7600>
  fff1011c34:	00174783          	lbu	a5,1(a4)
  fff1011c38:	36fd                	addiw	a3,a3,-1
  fff1011c3a:	0705                	addi	a4,a4,1
  fff1011c3c:	8fa9                	xor	a5,a5,a0
  fff1011c3e:	0ff7f793          	zext.b	a5,a5
  fff1011c42:	078a                	slli	a5,a5,0x2
  fff1011c44:	97b2                	add	a5,a5,a2
  fff1011c46:	439c                	lw	a5,0(a5)
  fff1011c48:	0085551b          	srliw	a0,a0,0x8
  fff1011c4c:	8d3d                	xor	a0,a0,a5
  fff1011c4e:	2501                	sext.w	a0,a0
  fff1011c50:	f2f5                	bnez	a3,fff1011c34 <spl+0x1bb4>
  fff1011c52:	8082                	ret
  fff1011c54:	00482783          	lw	a5,4(a6)
  fff1011c58:	0811                	addi	a6,a6,4
  fff1011c5a:	367d                	addiw	a2,a2,-1
  fff1011c5c:	8d3d                	xor	a0,a0,a5
  fff1011c5e:	0ff57793          	zext.b	a5,a0
  fff1011c62:	078a                	slli	a5,a5,0x2
  fff1011c64:	97c6                	add	a5,a5,a7
  fff1011c66:	439c                	lw	a5,0(a5)
  fff1011c68:	0085551b          	srliw	a0,a0,0x8
  fff1011c6c:	8d3d                	xor	a0,a0,a5
  fff1011c6e:	0ff57793          	zext.b	a5,a0
  fff1011c72:	078a                	slli	a5,a5,0x2
  fff1011c74:	97c6                	add	a5,a5,a7
  fff1011c76:	439c                	lw	a5,0(a5)
  fff1011c78:	0085551b          	srliw	a0,a0,0x8
  fff1011c7c:	8d3d                	xor	a0,a0,a5
  fff1011c7e:	0ff57793          	zext.b	a5,a0
  fff1011c82:	078a                	slli	a5,a5,0x2
  fff1011c84:	97c6                	add	a5,a5,a7
  fff1011c86:	439c                	lw	a5,0(a5)
  fff1011c88:	0085551b          	srliw	a0,a0,0x8
  fff1011c8c:	8fa9                	xor	a5,a5,a0
  fff1011c8e:	0ff7f513          	zext.b	a0,a5
  fff1011c92:	050a                	slli	a0,a0,0x2
  fff1011c94:	9546                	add	a0,a0,a7
  fff1011c96:	4108                	lw	a0,0(a0)
  fff1011c98:	0087d79b          	srliw	a5,a5,0x8
  fff1011c9c:	8d3d                	xor	a0,a0,a5
  fff1011c9e:	2501                	sext.w	a0,a0
  fff1011ca0:	b741                	j	fff1011c20 <spl+0x1ba0>
  fff1011ca2:	1141                	addi	sp,sp,-16
  fff1011ca4:	fff54513          	not	a0,a0
  fff1011ca8:	e406                	sd	ra,8(sp)
  fff1011caa:	f2bff0ef          	jal	ra,fff1011bd4 <spl+0x1b54>
  fff1011cae:	60a2                	ld	ra,8(sp)
  fff1011cb0:	2501                	sext.w	a0,a0
  fff1011cb2:	fff54513          	not	a0,a0
  fff1011cb6:	0141                	addi	sp,sp,16
  fff1011cb8:	8082                	ret
  fff1011cba:	1141                	addi	sp,sp,-16
  fff1011cbc:	00006517          	auipc	a0,0x6
  fff1011cc0:	0bc50513          	addi	a0,a0,188 # fff1017d78 <spl+0x7cf8>
  fff1011cc4:	e406                	sd	ra,8(sp)
  fff1011cc6:	c22ff0ef          	jal	ra,fff10110e8 <spl+0x1068>
  fff1011cca:	a001                	j	fff1011cca <spl+0x1c4a>
  fff1011ccc:	87aa                	mv	a5,a0
  fff1011cce:	0005c703          	lbu	a4,0(a1)
  fff1011cd2:	0585                	addi	a1,a1,1
  fff1011cd4:	0785                	addi	a5,a5,1
  fff1011cd6:	fee78fa3          	sb	a4,-1(a5)
  fff1011cda:	fb75                	bnez	a4,fff1011cce <spl+0x1c4e>
  fff1011cdc:	8082                	ret
  fff1011cde:	4781                	li	a5,0
  fff1011ce0:	00c78c63          	beq	a5,a2,fff1011cf8 <spl+0x1c78>
  fff1011ce4:	00f58733          	add	a4,a1,a5
  fff1011ce8:	00074703          	lbu	a4,0(a4)
  fff1011cec:	00f506b3          	add	a3,a0,a5
  fff1011cf0:	0785                	addi	a5,a5,1
  fff1011cf2:	00e68023          	sb	a4,0(a3)
  fff1011cf6:	f76d                	bnez	a4,fff1011ce0 <spl+0x1c60>
  fff1011cf8:	8082                	ret
  fff1011cfa:	87aa                	mv	a5,a0
  fff1011cfc:	0005c703          	lbu	a4,0(a1)
  fff1011d00:	0007c503          	lbu	a0,0(a5)
  fff1011d04:	0785                	addi	a5,a5,1
  fff1011d06:	0585                	addi	a1,a1,1
  fff1011d08:	9d19                	subw	a0,a0,a4
  fff1011d0a:	e111                	bnez	a0,fff1011d0e <spl+0x1c8e>
  fff1011d0c:	fb65                	bnez	a4,fff1011cfc <spl+0x1c7c>
  fff1011d0e:	8082                	ret
  fff1011d10:	0ff5f593          	zext.b	a1,a1
  fff1011d14:	00054783          	lbu	a5,0(a0)
  fff1011d18:	00b79363          	bne	a5,a1,fff1011d1e <spl+0x1c9e>
  fff1011d1c:	8082                	ret
  fff1011d1e:	c399                	beqz	a5,fff1011d24 <spl+0x1ca4>
  fff1011d20:	0505                	addi	a0,a0,1
  fff1011d22:	bfcd                	j	fff1011d14 <spl+0x1c94>
  fff1011d24:	4501                	li	a0,0
  fff1011d26:	8082                	ret
  fff1011d28:	87aa                	mv	a5,a0
  fff1011d2a:	0007c703          	lbu	a4,0(a5)
  fff1011d2e:	e701                	bnez	a4,fff1011d36 <spl+0x1cb6>
  fff1011d30:	40a78533          	sub	a0,a5,a0
  fff1011d34:	8082                	ret
  fff1011d36:	0785                	addi	a5,a5,1
  fff1011d38:	bfcd                	j	fff1011d2a <spl+0x1caa>
  fff1011d3a:	95aa                	add	a1,a1,a0
  fff1011d3c:	87aa                	mv	a5,a0
  fff1011d3e:	00b78563          	beq	a5,a1,fff1011d48 <spl+0x1cc8>
  fff1011d42:	0007c703          	lbu	a4,0(a5)
  fff1011d46:	e701                	bnez	a4,fff1011d4e <spl+0x1cce>
  fff1011d48:	40a78533          	sub	a0,a5,a0
  fff1011d4c:	8082                	ret
  fff1011d4e:	0785                	addi	a5,a5,1
  fff1011d50:	b7fd                	j	fff1011d3e <spl+0x1cbe>
  fff1011d52:	1101                	addi	sp,sp,-32
  fff1011d54:	e822                	sd	s0,16(sp)
  fff1011d56:	ec06                	sd	ra,24(sp)
  fff1011d58:	e42a                	sd	a0,8(sp)
  fff1011d5a:	4401                	li	s0,0
  fff1011d5c:	c919                	beqz	a0,fff1011d72 <spl+0x1cf2>
  fff1011d5e:	fcbff0ef          	jal	ra,fff1011d28 <spl+0x1ca8>
  fff1011d62:	0505                	addi	a0,a0,1
  fff1011d64:	c0aff0ef          	jal	ra,fff101116e <spl+0x10ee>
  fff1011d68:	842a                	mv	s0,a0
  fff1011d6a:	c501                	beqz	a0,fff1011d72 <spl+0x1cf2>
  fff1011d6c:	65a2                	ld	a1,8(sp)
  fff1011d6e:	f5fff0ef          	jal	ra,fff1011ccc <spl+0x1c4c>
  fff1011d72:	60e2                	ld	ra,24(sp)
  fff1011d74:	8522                	mv	a0,s0
  fff1011d76:	6442                	ld	s0,16(sp)
  fff1011d78:	6105                	addi	sp,sp,32
  fff1011d7a:	8082                	ret
  fff1011d7c:	86aa                	mv	a3,a0
  fff1011d7e:	4701                	li	a4,0
  fff1011d80:	00c71463          	bne	a4,a2,fff1011d88 <spl+0x1d08>
  fff1011d84:	4501                	li	a0,0
  fff1011d86:	a829                	j	fff1011da0 <spl+0x1d20>
  fff1011d88:	00e687b3          	add	a5,a3,a4
  fff1011d8c:	00e58533          	add	a0,a1,a4
  fff1011d90:	0007c783          	lbu	a5,0(a5)
  fff1011d94:	00054503          	lbu	a0,0(a0)
  fff1011d98:	0705                	addi	a4,a4,1
  fff1011d9a:	40a7853b          	subw	a0,a5,a0
  fff1011d9e:	d16d                	beqz	a0,fff1011d80 <spl+0x1d00>
  fff1011da0:	8082                	ret
  fff1011da2:	962a                	add	a2,a2,a0
  fff1011da4:	0ff5f593          	zext.b	a1,a1
  fff1011da8:	00c51463          	bne	a0,a2,fff1011db0 <spl+0x1d30>
  fff1011dac:	4501                	li	a0,0
  fff1011dae:	8082                	ret
  fff1011db0:	00054703          	lbu	a4,0(a0)
  fff1011db4:	00150793          	addi	a5,a0,1
  fff1011db8:	feb70be3          	beq	a4,a1,fff1011dae <spl+0x1d2e>
  fff1011dbc:	853e                	mv	a0,a5
  fff1011dbe:	b7ed                	j	fff1011da8 <spl+0x1d28>
  fff1011dc0:	0d01b783          	ld	a5,208(gp)
  fff1011dc4:	ef99                	bnez	a5,fff1011de2 <spl+0x1d62>
  fff1011dc6:	1141                	addi	sp,sp,-16
  fff1011dc8:	e406                	sd	ra,8(sp)
  fff1011dca:	7e5030ef          	jal	ra,fff1015dae <spl+0x5d2e>
  fff1011dce:	e519                	bnez	a0,fff1011ddc <spl+0x1d5c>
  fff1011dd0:	60a2                	ld	ra,8(sp)
  fff1011dd2:	0d01b503          	ld	a0,208(gp)
  fff1011dd6:	0141                	addi	sp,sp,16
  fff1011dd8:	7970306f          	j	fff1015d6e <spl+0x5cee>
  fff1011ddc:	60a2                	ld	ra,8(sp)
  fff1011dde:	0141                	addi	sp,sp,16
  fff1011de0:	8082                	ret
  fff1011de2:	0d01b503          	ld	a0,208(gp)
  fff1011de6:	bfcd                	j	fff1011dd8 <spl+0x1d58>
  fff1011de8:	1101                	addi	sp,sp,-32
  fff1011dea:	ec06                	sd	ra,24(sp)
  fff1011dec:	0d01b783          	ld	a5,208(gp)
  fff1011df0:	eb89                	bnez	a5,fff1011e02 <spl+0x1d82>
  fff1011df2:	7bd030ef          	jal	ra,fff1015dae <spl+0x5d2e>
  fff1011df6:	85aa                	mv	a1,a0
  fff1011df8:	00006517          	auipc	a0,0x6
  fff1011dfc:	ef850513          	addi	a0,a0,-264 # fff1017cf0 <spl+0x7c70>
  fff1011e00:	ed81                	bnez	a1,fff1011e18 <spl+0x1d98>
  fff1011e02:	0d01b503          	ld	a0,208(gp)
  fff1011e06:	002c                	addi	a1,sp,8
  fff1011e08:	743030ef          	jal	ra,fff1015d4a <spl+0x5cca>
  fff1011e0c:	85aa                	mv	a1,a0
  fff1011e0e:	c519                	beqz	a0,fff1011e1c <spl+0x1d9c>
  fff1011e10:	00006517          	auipc	a0,0x6
  fff1011e14:	f0850513          	addi	a0,a0,-248 # fff1017d18 <spl+0x7c98>
  fff1011e18:	0fc000ef          	jal	ra,fff1011f14 <spl+0x1e94>
  fff1011e1c:	60e2                	ld	ra,24(sp)
  fff1011e1e:	6522                	ld	a0,8(sp)
  fff1011e20:	6105                	addi	sp,sp,32
  fff1011e22:	8082                	ret
  fff1011e24:	4501                	li	a0,0
  fff1011e26:	8082                	ret
  fff1011e28:	1101                	addi	sp,sp,-32
  fff1011e2a:	ec06                	sd	ra,24(sp)
  fff1011e2c:	e822                	sd	s0,16(sp)
  fff1011e2e:	e426                	sd	s1,8(sp)
  fff1011e30:	84aa                	mv	s1,a0
  fff1011e32:	fb7ff0ef          	jal	ra,fff1011de8 <spl+0x1d68>
  fff1011e36:	842a                	mv	s0,a0
  fff1011e38:	f89ff0ef          	jal	ra,fff1011dc0 <spl+0x1d40>
  fff1011e3c:	3e800793          	li	a5,1000
  fff1011e40:	02f40433          	mul	s0,s0,a5
  fff1011e44:	1502                	slli	a0,a0,0x20
  fff1011e46:	9101                	srli	a0,a0,0x20
  fff1011e48:	60e2                	ld	ra,24(sp)
  fff1011e4a:	02a45533          	divu	a0,s0,a0
  fff1011e4e:	6442                	ld	s0,16(sp)
  fff1011e50:	8d05                	sub	a0,a0,s1
  fff1011e52:	64a2                	ld	s1,8(sp)
  fff1011e54:	6105                	addi	sp,sp,32
  fff1011e56:	8082                	ret
  fff1011e58:	1141                	addi	sp,sp,-16
  fff1011e5a:	e022                	sd	s0,0(sp)
  fff1011e5c:	e406                	sd	ra,8(sp)
  fff1011e5e:	842a                	mv	s0,a0
  fff1011e60:	f61ff0ef          	jal	ra,fff1011dc0 <spl+0x1d40>
  fff1011e64:	02a40533          	mul	a0,s0,a0
  fff1011e68:	60a2                	ld	ra,8(sp)
  fff1011e6a:	6402                	ld	s0,0(sp)
  fff1011e6c:	000f47b7          	lui	a5,0xf4
  fff1011e70:	24078793          	addi	a5,a5,576 # f4240 <ROM_BASE-0xfff0f1bdc0>
  fff1011e74:	0141                	addi	sp,sp,16
  fff1011e76:	02f55533          	divu	a0,a0,a5
  fff1011e7a:	8082                	ret
  fff1011e7c:	1101                	addi	sp,sp,-32
  fff1011e7e:	ec06                	sd	ra,24(sp)
  fff1011e80:	e822                	sd	s0,16(sp)
  fff1011e82:	e426                	sd	s1,8(sp)
  fff1011e84:	84aa                	mv	s1,a0
  fff1011e86:	f63ff0ef          	jal	ra,fff1011de8 <spl+0x1d68>
  fff1011e8a:	842a                	mv	s0,a0
  fff1011e8c:	8526                	mv	a0,s1
  fff1011e8e:	fcbff0ef          	jal	ra,fff1011e58 <spl+0x1dd8>
  fff1011e92:	942a                	add	s0,s0,a0
  fff1011e94:	0405                	addi	s0,s0,1
  fff1011e96:	f53ff0ef          	jal	ra,fff1011de8 <spl+0x1d68>
  fff1011e9a:	fe856ee3          	bltu	a0,s0,fff1011e96 <spl+0x1e16>
  fff1011e9e:	60e2                	ld	ra,24(sp)
  fff1011ea0:	6442                	ld	s0,16(sp)
  fff1011ea2:	64a2                	ld	s1,8(sp)
  fff1011ea4:	6105                	addi	sp,sp,32
  fff1011ea6:	8082                	ret
  fff1011ea8:	7179                	addi	sp,sp,-48
  fff1011eaa:	ec26                	sd	s1,24(sp)
  fff1011eac:	009894b7          	lui	s1,0x989
  fff1011eb0:	f022                	sd	s0,32(sp)
  fff1011eb2:	e44e                	sd	s3,8(sp)
  fff1011eb4:	f406                	sd	ra,40(sp)
  fff1011eb6:	e84a                	sd	s2,16(sp)
  fff1011eb8:	842a                	mv	s0,a0
  fff1011eba:	68048493          	addi	s1,s1,1664 # 989680 <ROM_BASE-0xfff0686980>
  fff1011ebe:	00007997          	auipc	s3,0x7
  fff1011ec2:	dc29b983          	ld	s3,-574(s3) # fff1018c80 <spl+0x8c00>
  fff1011ec6:	8922                	mv	s2,s0
  fff1011ec8:	0084f363          	bgeu	s1,s0,fff1011ece <spl+0x1e4e>
  fff1011ecc:	8926                	mv	s2,s1
  fff1011ece:	854a                	mv	a0,s2
  fff1011ed0:	41240433          	sub	s0,s0,s2
  fff1011ed4:	9982                	jalr	s3
  fff1011ed6:	f865                	bnez	s0,fff1011ec6 <spl+0x1e46>
  fff1011ed8:	70a2                	ld	ra,40(sp)
  fff1011eda:	7402                	ld	s0,32(sp)
  fff1011edc:	64e2                	ld	s1,24(sp)
  fff1011ede:	6942                	ld	s2,16(sp)
  fff1011ee0:	69a2                	ld	s3,8(sp)
  fff1011ee2:	6145                	addi	sp,sp,48
  fff1011ee4:	8082                	ret
  fff1011ee6:	1141                	addi	sp,sp,-16
  fff1011ee8:	4529                	li	a0,10
  fff1011eea:	e406                	sd	ra,8(sp)
  fff1011eec:	9c4ff0ef          	jal	ra,fff10110b0 <spl+0x1030>
  fff1011ef0:	6561                	lui	a0,0x18
  fff1011ef2:	6a050513          	addi	a0,a0,1696 # 186a0 <ROM_BASE-0xfff0ff7960>
  fff1011ef6:	fb3ff0ef          	jal	ra,fff1011ea8 <spl+0x1e28>
  fff1011efa:	4681                	li	a3,0
  fff1011efc:	4601                	li	a2,0
  fff1011efe:	4581                	li	a1,0
  fff1011f00:	4501                	li	a0,0
  fff1011f02:	f00fe0ef          	jal	ra,fff1010602 <spl+0x582>
  fff1011f06:	a001                	j	fff1011f06 <spl+0x1e86>
  fff1011f08:	1141                	addi	sp,sp,-16
  fff1011f0a:	e406                	sd	ra,8(sp)
  fff1011f0c:	9dcff0ef          	jal	ra,fff10110e8 <spl+0x1068>
  fff1011f10:	fd7ff0ef          	jal	ra,fff1011ee6 <spl+0x1e66>
  fff1011f14:	711d                	addi	sp,sp,-96
  fff1011f16:	f42e                	sd	a1,40(sp)
  fff1011f18:	102c                	addi	a1,sp,40
  fff1011f1a:	ec06                	sd	ra,24(sp)
  fff1011f1c:	f832                	sd	a2,48(sp)
  fff1011f1e:	fc36                	sd	a3,56(sp)
  fff1011f20:	e0ba                	sd	a4,64(sp)
  fff1011f22:	e4be                	sd	a5,72(sp)
  fff1011f24:	e8c2                	sd	a6,80(sp)
  fff1011f26:	ecc6                	sd	a7,88(sp)
  fff1011f28:	e42e                	sd	a1,8(sp)
  fff1011f2a:	2f2000ef          	jal	ra,fff101221c <spl+0x219c>
  fff1011f2e:	fb9ff0ef          	jal	ra,fff1011ee6 <spl+0x1e66>
  fff1011f32:	4781                	li	a5,0
  fff1011f34:	6198                	ld	a4,0(a1)
  fff1011f36:	02c77863          	bgeu	a4,a2,fff1011f66 <spl+0x1ee6>
  fff1011f3a:	00854703          	lbu	a4,8(a0)
  fff1011f3e:	8f5d                	or	a4,a4,a5
  fff1011f40:	c315                	beqz	a4,fff1011f64 <spl+0x1ee4>
  fff1011f42:	4725                	li	a4,9
  fff1011f44:	03000693          	li	a3,48
  fff1011f48:	00f77463          	bgeu	a4,a5,fff1011f50 <spl+0x1ed0>
  fff1011f4c:	05700693          	li	a3,87
  fff1011f50:	6118                	ld	a4,0(a0)
  fff1011f52:	9fb5                	addw	a5,a5,a3
  fff1011f54:	00170613          	addi	a2,a4,1
  fff1011f58:	e110                	sd	a2,0(a0)
  fff1011f5a:	00f70023          	sb	a5,0(a4)
  fff1011f5e:	4785                	li	a5,1
  fff1011f60:	00f50423          	sb	a5,8(a0)
  fff1011f64:	8082                	ret
  fff1011f66:	8f11                	sub	a4,a4,a2
  fff1011f68:	2785                	addiw	a5,a5,1
  fff1011f6a:	e198                	sd	a4,0(a1)
  fff1011f6c:	0ff7f793          	zext.b	a5,a5
  fff1011f70:	b7d1                	j	fff1011f34 <spl+0x1eb4>
  fff1011f72:	691c                	ld	a5,16(a0)
  fff1011f74:	00178713          	addi	a4,a5,1
  fff1011f78:	e918                	sd	a4,16(a0)
  fff1011f7a:	00b78023          	sb	a1,0(a5)
  fff1011f7e:	8082                	ret
  fff1011f80:	852e                	mv	a0,a1
  fff1011f82:	92eff06f          	j	fff10110b0 <spl+0x1030>
  fff1011f86:	7135                	addi	sp,sp,-160
  fff1011f88:	ecde                	sd	s7,88(sp)
  fff1011f8a:	083c                	addi	a5,sp,24
  fff1011f8c:	3b9adbb7          	lui	s7,0x3b9ad
  fff1011f90:	e922                	sd	s0,144(sp)
  fff1011f92:	e526                	sd	s1,136(sp)
  fff1011f94:	e14a                	sd	s2,128(sp)
  fff1011f96:	f8d2                	sd	s4,112(sp)
  fff1011f98:	f4d6                	sd	s5,104(sp)
  fff1011f9a:	f0da                	sd	s6,96(sp)
  fff1011f9c:	e8e2                	sd	s8,80(sp)
  fff1011f9e:	e4e6                	sd	s9,72(sp)
  fff1011fa0:	ed06                	sd	ra,152(sp)
  fff1011fa2:	fcce                	sd	s3,120(sp)
  fff1011fa4:	e0ea                	sd	s10,64(sp)
  fff1011fa6:	fc6e                	sd	s11,56(sp)
  fff1011fa8:	842a                	mv	s0,a0
  fff1011faa:	84ae                	mv	s1,a1
  fff1011fac:	8932                	mv	s2,a2
  fff1011fae:	02500a93          	li	s5,37
  fff1011fb2:	02010b13          	addi	s6,sp,32
  fff1011fb6:	e43e                	sd	a5,8(sp)
  fff1011fb8:	a00b8c13          	addi	s8,s7,-1536 # 3b9aca00 <ROM_BASE-0xffb5663600>
  fff1011fbc:	02110a13          	addi	s4,sp,33
  fff1011fc0:	00006c97          	auipc	s9,0x6
  fff1011fc4:	ac8cbc83          	ld	s9,-1336(s9) # fff1017a88 <spl+0x7a08>
  fff1011fc8:	0004c583          	lbu	a1,0(s1)
  fff1011fcc:	00148993          	addi	s3,s1,1
  fff1011fd0:	e18d                	bnez	a1,fff1011ff2 <spl+0x1f72>
  fff1011fd2:	60ea                	ld	ra,152(sp)
  fff1011fd4:	644a                	ld	s0,144(sp)
  fff1011fd6:	64aa                	ld	s1,136(sp)
  fff1011fd8:	690a                	ld	s2,128(sp)
  fff1011fda:	79e6                	ld	s3,120(sp)
  fff1011fdc:	7a46                	ld	s4,112(sp)
  fff1011fde:	7aa6                	ld	s5,104(sp)
  fff1011fe0:	7b06                	ld	s6,96(sp)
  fff1011fe2:	6be6                	ld	s7,88(sp)
  fff1011fe4:	6c46                	ld	s8,80(sp)
  fff1011fe6:	6ca6                	ld	s9,72(sp)
  fff1011fe8:	6d06                	ld	s10,64(sp)
  fff1011fea:	7de2                	ld	s11,56(sp)
  fff1011fec:	4501                	li	a0,0
  fff1011fee:	610d                	addi	sp,sp,160
  fff1011ff0:	8082                	ret
  fff1011ff2:	01558763          	beq	a1,s5,fff1012000 <spl+0x1f80>
  fff1011ff6:	6c1c                	ld	a5,24(s0)
  fff1011ff8:	8522                	mv	a0,s0
  fff1011ffa:	84ce                	mv	s1,s3
  fff1011ffc:	9782                	jalr	a5
  fff1011ffe:	b7e9                	j	fff1011fc8 <spl+0x1f48>
  fff1012000:	0014c783          	lbu	a5,1(s1)
  fff1012004:	02d00693          	li	a3,45
  fff1012008:	06d78e63          	beq	a5,a3,fff1012084 <spl+0x2004>
  fff101200c:	0489                	addi	s1,s1,2
  fff101200e:	03000693          	li	a3,48
  fff1012012:	4d01                	li	s10,0
  fff1012014:	00d79663          	bne	a5,a3,fff1012020 <spl+0x1fa0>
  fff1012018:	0004c783          	lbu	a5,0(s1)
  fff101201c:	4d05                	li	s10,1
  fff101201e:	0485                	addi	s1,s1,1
  fff1012020:	fd07869b          	addiw	a3,a5,-48
  fff1012024:	0ff6f693          	zext.b	a3,a3
  fff1012028:	4625                	li	a2,9
  fff101202a:	4d81                	li	s11,0
  fff101202c:	02d66263          	bltu	a2,a3,fff1012050 <spl+0x1fd0>
  fff1012030:	45a9                	li	a1,10
  fff1012032:	03b58dbb          	mulw	s11,a1,s11
  fff1012036:	0485                	addi	s1,s1,1
  fff1012038:	00fd8dbb          	addw	s11,s11,a5
  fff101203c:	fff4c783          	lbu	a5,-1(s1)
  fff1012040:	fd0d8d9b          	addiw	s11,s11,-48
  fff1012044:	fd07869b          	addiw	a3,a5,-48
  fff1012048:	0ff6f693          	zext.b	a3,a3
  fff101204c:	fed673e3          	bgeu	a2,a3,fff1012032 <spl+0x1fb2>
  fff1012050:	06c00613          	li	a2,108
  fff1012054:	4681                	li	a3,0
  fff1012056:	00c79663          	bne	a5,a2,fff1012062 <spl+0x1fe2>
  fff101205a:	0004c783          	lbu	a5,0(s1)
  fff101205e:	4685                	li	a3,1
  fff1012060:	0485                	addi	s1,s1,1
  fff1012062:	01643023          	sd	s6,0(s0)
  fff1012066:	00040423          	sb	zero,8(s0)
  fff101206a:	06900613          	li	a2,105
  fff101206e:	02c78763          	beq	a5,a2,fff101209c <spl+0x201c>
  fff1012072:	04f66f63          	bltu	a2,a5,fff10120d0 <spl+0x2050>
  fff1012076:	19578763          	beq	a5,s5,fff1012204 <spl+0x2184>
  fff101207a:	00fae963          	bltu	s5,a5,fff101208c <spl+0x200c>
  fff101207e:	dbb1                	beqz	a5,fff1011fd2 <spl+0x1f52>
  fff1012080:	89da                	mv	s3,s6
  fff1012082:	aa25                	j	fff10121ba <spl+0x213a>
  fff1012084:	0024c783          	lbu	a5,2(s1)
  fff1012088:	048d                	addi	s1,s1,3
  fff101208a:	b751                	j	fff101200e <spl+0x1f8e>
  fff101208c:	06300613          	li	a2,99
  fff1012090:	10c78a63          	beq	a5,a2,fff10121a4 <spl+0x2124>
  fff1012094:	06400613          	li	a2,100
  fff1012098:	fec794e3          	bne	a5,a2,fff1012080 <spl+0x2000>
  fff101209c:	00890993          	addi	s3,s2,8
  fff10120a0:	c6c1                	beqz	a3,fff1012128 <spl+0x20a8>
  fff10120a2:	00093683          	ld	a3,0(s2)
  fff10120a6:	07500613          	li	a2,117
  fff10120aa:	8966                	mv	s2,s9
  fff10120ac:	ec36                	sd	a3,24(sp)
  fff10120ae:	0ac79863          	bne	a5,a2,fff101215e <spl+0x20de>
  fff10120b2:	67e2                	ld	a5,24(sp)
  fff10120b4:	c3e9                	beqz	a5,fff1012176 <spl+0x20f6>
  fff10120b6:	65a2                	ld	a1,8(sp)
  fff10120b8:	864a                	mv	a2,s2
  fff10120ba:	8522                	mv	a0,s0
  fff10120bc:	e77ff0ef          	jal	ra,fff1011f32 <spl+0x1eb2>
  fff10120c0:	86ca                	mv	a3,s2
  fff10120c2:	4829                	li	a6,10
  fff10120c4:	47a5                	li	a5,9
  fff10120c6:	03095933          	divu	s2,s2,a6
  fff10120ca:	fed7e6e3          	bltu	a5,a3,fff10120b6 <spl+0x2036>
  fff10120ce:	a87d                	j	fff101218c <spl+0x210c>
  fff10120d0:	07300613          	li	a2,115
  fff10120d4:	0ec78063          	beq	a5,a2,fff10121b4 <spl+0x2134>
  fff10120d8:	02f66863          	bltu	a2,a5,fff1012108 <spl+0x2088>
  fff10120dc:	07000693          	li	a3,112
  fff10120e0:	fad790e3          	bne	a5,a3,fff1012080 <spl+0x2000>
  fff10120e4:	00093783          	ld	a5,0(s2)
  fff10120e8:	4985                	li	s3,1
  fff10120ea:	0921                	addi	s2,s2,8
  fff10120ec:	ec3e                	sd	a5,24(sp)
  fff10120ee:	19f2                	slli	s3,s3,0x3c
  fff10120f0:	67e2                	ld	a5,24(sp)
  fff10120f2:	efd9                	bnez	a5,fff1012190 <spl+0x2110>
  fff10120f4:	03000793          	li	a5,48
  fff10120f8:	02f10023          	sb	a5,32(sp)
  fff10120fc:	4785                	li	a5,1
  fff10120fe:	01443023          	sd	s4,0(s0)
  fff1012102:	00f40423          	sb	a5,8(s0)
  fff1012106:	bfad                	j	fff1012080 <spl+0x2000>
  fff1012108:	07500613          	li	a2,117
  fff101210c:	f8c788e3          	beq	a5,a2,fff101209c <spl+0x201c>
  fff1012110:	07800613          	li	a2,120
  fff1012114:	f6c796e3          	bne	a5,a2,fff1012080 <spl+0x2000>
  fff1012118:	f6f1                	bnez	a3,fff10120e4 <spl+0x2064>
  fff101211a:	00096783          	lwu	a5,0(s2)
  fff101211e:	100009b7          	lui	s3,0x10000
  fff1012122:	0921                	addi	s2,s2,8
  fff1012124:	ec3e                	sd	a5,24(sp)
  fff1012126:	b7e9                	j	fff10120f0 <spl+0x2070>
  fff1012128:	00092683          	lw	a3,0(s2)
  fff101212c:	8962                	mv	s2,s8
  fff101212e:	02069613          	slli	a2,a3,0x20
  fff1012132:	9201                	srli	a2,a2,0x20
  fff1012134:	ec32                	sd	a2,24(sp)
  fff1012136:	07500613          	li	a2,117
  fff101213a:	f6c78ce3          	beq	a5,a2,fff10120b2 <spl+0x2032>
  fff101213e:	0006879b          	sext.w	a5,a3
  fff1012142:	f606d8e3          	bgez	a3,fff10120b2 <spl+0x2032>
  fff1012146:	40f007bb          	negw	a5,a5
  fff101214a:	ec3e                	sd	a5,24(sp)
  fff101214c:	02d00793          	li	a5,45
  fff1012150:	01443023          	sd	s4,0(s0)
  fff1012154:	02f10023          	sb	a5,32(sp)
  fff1012158:	a00b8913          	addi	s2,s7,-1536
  fff101215c:	bf99                	j	fff10120b2 <spl+0x2032>
  fff101215e:	f406dae3          	bgez	a3,fff10120b2 <spl+0x2032>
  fff1012162:	40d006b3          	neg	a3,a3
  fff1012166:	02d00793          	li	a5,45
  fff101216a:	ec36                	sd	a3,24(sp)
  fff101216c:	01443023          	sd	s4,0(s0)
  fff1012170:	02f10023          	sb	a5,32(sp)
  fff1012174:	bf3d                	j	fff10120b2 <spl+0x2032>
  fff1012176:	601c                	ld	a5,0(s0)
  fff1012178:	00178693          	addi	a3,a5,1
  fff101217c:	e014                	sd	a3,0(s0)
  fff101217e:	03000693          	li	a3,48
  fff1012182:	00d78023          	sb	a3,0(a5)
  fff1012186:	4785                	li	a5,1
  fff1012188:	00f40423          	sb	a5,8(s0)
  fff101218c:	894e                	mv	s2,s3
  fff101218e:	bdcd                	j	fff1012080 <spl+0x2000>
  fff1012190:	65a2                	ld	a1,8(sp)
  fff1012192:	864e                	mv	a2,s3
  fff1012194:	8522                	mv	a0,s0
  fff1012196:	0049d993          	srli	s3,s3,0x4
  fff101219a:	d99ff0ef          	jal	ra,fff1011f32 <spl+0x1eb2>
  fff101219e:	fe0999e3          	bnez	s3,fff1012190 <spl+0x2110>
  fff10121a2:	bdf9                	j	fff1012080 <spl+0x2000>
  fff10121a4:	00094783          	lbu	a5,0(s2)
  fff10121a8:	01443023          	sd	s4,0(s0)
  fff10121ac:	0921                	addi	s2,s2,8
  fff10121ae:	02f10023          	sb	a5,32(sp)
  fff10121b2:	b5f9                	j	fff1012080 <spl+0x2000>
  fff10121b4:	00093983          	ld	s3,0(s2)
  fff10121b8:	0921                	addi	s2,s2,8
  fff10121ba:	601c                	ld	a5,0(s0)
  fff10121bc:	00078023          	sb	zero,0(a5)
  fff10121c0:	01343023          	sd	s3,0(s0)
  fff10121c4:	601c                	ld	a5,0(s0)
  fff10121c6:	00178693          	addi	a3,a5,1
  fff10121ca:	e014                	sd	a3,0(s0)
  fff10121cc:	0007c783          	lbu	a5,0(a5)
  fff10121d0:	c399                	beqz	a5,fff10121d6 <spl+0x2156>
  fff10121d2:	020d9e63          	bnez	s11,fff101220e <spl+0x218e>
  fff10121d6:	02000593          	li	a1,32
  fff10121da:	000d0463          	beqz	s10,fff10121e2 <spl+0x2162>
  fff10121de:	03000593          	li	a1,48
  fff10121e2:	0ff5fd13          	zext.b	s10,a1
  fff10121e6:	57fd                	li	a5,-1
  fff10121e8:	3dfd                	addiw	s11,s11,-1
  fff10121ea:	02fd9463          	bne	s11,a5,fff1012212 <spl+0x2192>
  fff10121ee:	dc098de3          	beqz	s3,fff1011fc8 <spl+0x1f48>
  fff10121f2:	0009c583          	lbu	a1,0(s3) # 10000000 <ROM_BASE-0xffe1010000>
  fff10121f6:	0985                	addi	s3,s3,1
  fff10121f8:	dc0588e3          	beqz	a1,fff1011fc8 <spl+0x1f48>
  fff10121fc:	6c1c                	ld	a5,24(s0)
  fff10121fe:	8522                	mv	a0,s0
  fff1012200:	9782                	jalr	a5
  fff1012202:	bfc5                	j	fff10121f2 <spl+0x2172>
  fff1012204:	01443023          	sd	s4,0(s0)
  fff1012208:	03510023          	sb	s5,32(sp)
  fff101220c:	bd95                	j	fff1012080 <spl+0x2000>
  fff101220e:	3dfd                	addiw	s11,s11,-1
  fff1012210:	bf55                	j	fff10121c4 <spl+0x2144>
  fff1012212:	6c14                	ld	a3,24(s0)
  fff1012214:	85ea                	mv	a1,s10
  fff1012216:	8522                	mv	a0,s0
  fff1012218:	9682                	jalr	a3
  fff101221a:	b7f1                	j	fff10121e6 <spl+0x2166>
  fff101221c:	7179                	addi	sp,sp,-48
  fff101221e:	862e                	mv	a2,a1
  fff1012220:	00000797          	auipc	a5,0x0
  fff1012224:	d6078793          	addi	a5,a5,-672 # fff1011f80 <spl+0x1f00>
  fff1012228:	85aa                	mv	a1,a0
  fff101222a:	850a                	mv	a0,sp
  fff101222c:	f406                	sd	ra,40(sp)
  fff101222e:	ec3e                	sd	a5,24(sp)
  fff1012230:	d57ff0ef          	jal	ra,fff1011f86 <spl+0x1f06>
  fff1012234:	70a2                	ld	ra,40(sp)
  fff1012236:	6145                	addi	sp,sp,48
  fff1012238:	8082                	ret
  fff101223a:	7119                	addi	sp,sp,-128
  fff101223c:	e4ae                	sd	a1,72(sp)
  fff101223e:	e8b2                	sd	a2,80(sp)
  fff1012240:	f4be                	sd	a5,104(sp)
  fff1012242:	00b0                	addi	a2,sp,72
  fff1012244:	00000797          	auipc	a5,0x0
  fff1012248:	d3c78793          	addi	a5,a5,-708 # fff1011f80 <spl+0x1f00>
  fff101224c:	85aa                	mv	a1,a0
  fff101224e:	0808                	addi	a0,sp,16
  fff1012250:	fc06                	sd	ra,56(sp)
  fff1012252:	ecb6                	sd	a3,88(sp)
  fff1012254:	f0ba                	sd	a4,96(sp)
  fff1012256:	f8c2                	sd	a6,112(sp)
  fff1012258:	fcc6                	sd	a7,120(sp)
  fff101225a:	f43e                	sd	a5,40(sp)
  fff101225c:	e432                	sd	a2,8(sp)
  fff101225e:	d29ff0ef          	jal	ra,fff1011f86 <spl+0x1f06>
  fff1012262:	70e2                	ld	ra,56(sp)
  fff1012264:	6109                	addi	sp,sp,128
  fff1012266:	8082                	ret
  fff1012268:	7159                	addi	sp,sp,-112
  fff101226a:	ecbe                	sd	a5,88(sp)
  fff101226c:	f02a                	sd	a0,32(sp)
  fff101226e:	00000797          	auipc	a5,0x0
  fff1012272:	d0478793          	addi	a5,a5,-764 # fff1011f72 <spl+0x1ef2>
  fff1012276:	85b2                	mv	a1,a2
  fff1012278:	0808                	addi	a0,sp,16
  fff101227a:	00b0                	addi	a2,sp,72
  fff101227c:	fc06                	sd	ra,56(sp)
  fff101227e:	f43e                	sd	a5,40(sp)
  fff1012280:	e4b6                	sd	a3,72(sp)
  fff1012282:	e8ba                	sd	a4,80(sp)
  fff1012284:	f0c2                	sd	a6,96(sp)
  fff1012286:	f4c6                	sd	a7,104(sp)
  fff1012288:	e432                	sd	a2,8(sp)
  fff101228a:	cfdff0ef          	jal	ra,fff1011f86 <spl+0x1f06>
  fff101228e:	7782                	ld	a5,32(sp)
  fff1012290:	00078023          	sb	zero,0(a5)
  fff1012294:	70e2                	ld	ra,56(sp)
  fff1012296:	6165                	addi	sp,sp,112
  fff1012298:	8082                	ret
  fff101229a:	1101                	addi	sp,sp,-32
  fff101229c:	e822                	sd	s0,16(sp)
  fff101229e:	e426                	sd	s1,8(sp)
  fff10122a0:	00007417          	auipc	s0,0x7
  fff10122a4:	01840413          	addi	s0,s0,24 # fff10192b8 <spl+0x9238>
  fff10122a8:	00007497          	auipc	s1,0x7
  fff10122ac:	03848493          	addi	s1,s1,56 # fff10192e0 <spl+0x9260>
  fff10122b0:	8c81                	sub	s1,s1,s0
  fff10122b2:	00005717          	auipc	a4,0x5
  fff10122b6:	7de73703          	ld	a4,2014(a4) # fff1017a90 <spl+0x7a10>
  fff10122ba:	848d                	srai	s1,s1,0x3
  fff10122bc:	02e484bb          	mulw	s1,s1,a4
  fff10122c0:	02800713          	li	a4,40
  fff10122c4:	ec06                	sd	ra,24(sp)
  fff10122c6:	e04a                	sd	s2,0(sp)
  fff10122c8:	00854783          	lbu	a5,8(a0)
  fff10122cc:	02e484b3          	mul	s1,s1,a4
  fff10122d0:	94a2                	add	s1,s1,s0
  fff10122d2:	cf95                	beqz	a5,fff101230e <spl+0x228e>
  fff10122d4:	2781                	sext.w	a5,a5
  fff10122d6:	02940a63          	beq	s0,s1,fff101230a <spl+0x228a>
  fff10122da:	4418                	lw	a4,8(s0)
  fff10122dc:	00f70c63          	beq	a4,a5,fff10122f4 <spl+0x2274>
  fff10122e0:	02840413          	addi	s0,s0,40
  fff10122e4:	bfcd                	j	fff10122d6 <spl+0x2256>
  fff10122e6:	701c                	ld	a5,32(s0)
  fff10122e8:	854a                	mv	a0,s2
  fff10122ea:	9782                	jalr	a5
  fff10122ec:	e919                	bnez	a0,fff1012302 <spl+0x2282>
  fff10122ee:	441c                	lw	a5,8(s0)
  fff10122f0:	00f90423          	sb	a5,8(s2)
  fff10122f4:	60e2                	ld	ra,24(sp)
  fff10122f6:	8522                	mv	a0,s0
  fff10122f8:	6442                	ld	s0,16(sp)
  fff10122fa:	64a2                	ld	s1,8(sp)
  fff10122fc:	6902                	ld	s2,0(sp)
  fff10122fe:	6105                	addi	sp,sp,32
  fff1012300:	8082                	ret
  fff1012302:	02840413          	addi	s0,s0,40
  fff1012306:	fe9410e3          	bne	s0,s1,fff10122e6 <spl+0x2266>
  fff101230a:	4401                	li	s0,0
  fff101230c:	b7e5                	j	fff10122f4 <spl+0x2274>
  fff101230e:	892a                	mv	s2,a0
  fff1012310:	bfdd                	j	fff1012306 <spl+0x2286>
  fff1012312:	1101                	addi	sp,sp,-32
  fff1012314:	e822                	sd	s0,16(sp)
  fff1012316:	e426                	sd	s1,8(sp)
  fff1012318:	00007417          	auipc	s0,0x7
  fff101231c:	fc840413          	addi	s0,s0,-56 # fff10192e0 <spl+0x9260>
  fff1012320:	00007497          	auipc	s1,0x7
  fff1012324:	f9848493          	addi	s1,s1,-104 # fff10192b8 <spl+0x9238>
  fff1012328:	8c05                	sub	s0,s0,s1
  fff101232a:	00005797          	auipc	a5,0x5
  fff101232e:	7667b783          	ld	a5,1894(a5) # fff1017a90 <spl+0x7a10>
  fff1012332:	840d                	srai	s0,s0,0x3
  fff1012334:	02f4043b          	mulw	s0,s0,a5
  fff1012338:	02800793          	li	a5,40
  fff101233c:	e04a                	sd	s2,0(sp)
  fff101233e:	ec06                	sd	ra,24(sp)
  fff1012340:	892a                	mv	s2,a0
  fff1012342:	00050423          	sb	zero,8(a0)
  fff1012346:	02f40433          	mul	s0,s0,a5
  fff101234a:	9426                	add	s0,s0,s1
  fff101234c:	00848963          	beq	s1,s0,fff101235e <spl+0x22de>
  fff1012350:	709c                	ld	a5,32(s1)
  fff1012352:	854a                	mv	a0,s2
  fff1012354:	9782                	jalr	a5
  fff1012356:	e911                	bnez	a0,fff101236a <spl+0x22ea>
  fff1012358:	449c                	lw	a5,8(s1)
  fff101235a:	00f90423          	sb	a5,8(s2)
  fff101235e:	60e2                	ld	ra,24(sp)
  fff1012360:	6442                	ld	s0,16(sp)
  fff1012362:	64a2                	ld	s1,8(sp)
  fff1012364:	6902                	ld	s2,0(sp)
  fff1012366:	6105                	addi	sp,sp,32
  fff1012368:	8082                	ret
  fff101236a:	02848493          	addi	s1,s1,40
  fff101236e:	bff9                	j	fff101234c <spl+0x22cc>
  fff1012370:	1101                	addi	sp,sp,-32
  fff1012372:	e822                	sd	s0,16(sp)
  fff1012374:	ec06                	sd	ra,24(sp)
  fff1012376:	842a                	mv	s0,a0
  fff1012378:	e42e                	sd	a1,8(sp)
  fff101237a:	e032                	sd	a2,0(sp)
  fff101237c:	f1fff0ef          	jal	ra,fff101229a <spl+0x221a>
  fff1012380:	cd01                	beqz	a0,fff1012398 <spl+0x2318>
  fff1012382:	691c                	ld	a5,16(a0)
  fff1012384:	fda00513          	li	a0,-38
  fff1012388:	cb91                	beqz	a5,fff101239c <spl+0x231c>
  fff101238a:	6602                	ld	a2,0(sp)
  fff101238c:	65a2                	ld	a1,8(sp)
  fff101238e:	8522                	mv	a0,s0
  fff1012390:	9782                	jalr	a5
  fff1012392:	c509                	beqz	a0,fff101239c <spl+0x231c>
  fff1012394:	5579                	li	a0,-2
  fff1012396:	a019                	j	fff101239c <spl+0x231c>
  fff1012398:	fa300513          	li	a0,-93
  fff101239c:	60e2                	ld	ra,24(sp)
  fff101239e:	6442                	ld	s0,16(sp)
  fff10123a0:	6105                	addi	sp,sp,32
  fff10123a2:	8082                	ret
  fff10123a4:	7179                	addi	sp,sp,-48
  fff10123a6:	f022                	sd	s0,32(sp)
  fff10123a8:	ec26                	sd	s1,24(sp)
  fff10123aa:	e44e                	sd	s3,8(sp)
  fff10123ac:	e052                	sd	s4,0(sp)
  fff10123ae:	f406                	sd	ra,40(sp)
  fff10123b0:	e84a                	sd	s2,16(sp)
  fff10123b2:	89aa                	mv	s3,a0
  fff10123b4:	842e                	mv	s0,a1
  fff10123b6:	84b2                	mv	s1,a2
  fff10123b8:	463000ef          	jal	ra,fff101301a <spl+0x2f9a>
  fff10123bc:	611c                	ld	a5,0(a0)
  fff10123be:	0687ba03          	ld	s4,104(a5)
  fff10123c2:	010a3783          	ld	a5,16(s4)
  fff10123c6:	cf85                	beqz	a5,fff10123fe <spl+0x237e>
  fff10123c8:	892a                	mv	s2,a0
  fff10123ca:	854e                	mv	a0,s3
  fff10123cc:	437000ef          	jal	ra,fff1013002 <spl+0x2f82>
  fff10123d0:	691c                	ld	a5,16(a0)
  fff10123d2:	04f47063          	bgeu	s0,a5,fff1012412 <spl+0x2392>
  fff10123d6:	00940733          	add	a4,s0,s1
  fff10123da:	00e7f463          	bgeu	a5,a4,fff10123e2 <spl+0x2362>
  fff10123de:	408784b3          	sub	s1,a5,s0
  fff10123e2:	650c                	ld	a1,8(a0)
  fff10123e4:	010a3783          	ld	a5,16(s4)
  fff10123e8:	70a2                	ld	ra,40(sp)
  fff10123ea:	95a2                	add	a1,a1,s0
  fff10123ec:	7402                	ld	s0,32(sp)
  fff10123ee:	69a2                	ld	s3,8(sp)
  fff10123f0:	6a02                	ld	s4,0(sp)
  fff10123f2:	8626                	mv	a2,s1
  fff10123f4:	854a                	mv	a0,s2
  fff10123f6:	64e2                	ld	s1,24(sp)
  fff10123f8:	6942                	ld	s2,16(sp)
  fff10123fa:	6145                	addi	sp,sp,48
  fff10123fc:	8782                	jr	a5
  fff10123fe:	fda00513          	li	a0,-38
  fff1012402:	70a2                	ld	ra,40(sp)
  fff1012404:	7402                	ld	s0,32(sp)
  fff1012406:	64e2                	ld	s1,24(sp)
  fff1012408:	6942                	ld	s2,16(sp)
  fff101240a:	69a2                	ld	s3,8(sp)
  fff101240c:	6a02                	ld	s4,0(sp)
  fff101240e:	6145                	addi	sp,sp,48
  fff1012410:	8082                	ret
  fff1012412:	4501                	li	a0,0
  fff1012414:	b7fd                	j	fff1012402 <spl+0x2382>
  fff1012416:	7139                	addi	sp,sp,-64
  fff1012418:	f822                	sd	s0,48(sp)
  fff101241a:	f426                	sd	s1,40(sp)
  fff101241c:	ec4e                	sd	s3,24(sp)
  fff101241e:	e852                	sd	s4,16(sp)
  fff1012420:	e456                	sd	s5,8(sp)
  fff1012422:	fc06                	sd	ra,56(sp)
  fff1012424:	f04a                	sd	s2,32(sp)
  fff1012426:	8a2a                	mv	s4,a0
  fff1012428:	842e                	mv	s0,a1
  fff101242a:	84b2                	mv	s1,a2
  fff101242c:	89b6                	mv	s3,a3
  fff101242e:	3ed000ef          	jal	ra,fff101301a <spl+0x2f9a>
  fff1012432:	611c                	ld	a5,0(a0)
  fff1012434:	0687ba83          	ld	s5,104(a5)
  fff1012438:	008ab783          	ld	a5,8(s5)
  fff101243c:	cf95                	beqz	a5,fff1012478 <spl+0x23f8>
  fff101243e:	892a                	mv	s2,a0
  fff1012440:	8552                	mv	a0,s4
  fff1012442:	3c1000ef          	jal	ra,fff1013002 <spl+0x2f82>
  fff1012446:	691c                	ld	a5,16(a0)
  fff1012448:	04f47363          	bgeu	s0,a5,fff101248e <spl+0x240e>
  fff101244c:	00940733          	add	a4,s0,s1
  fff1012450:	00e7f463          	bgeu	a5,a4,fff1012458 <spl+0x23d8>
  fff1012454:	408784b3          	sub	s1,a5,s0
  fff1012458:	650c                	ld	a1,8(a0)
  fff101245a:	008ab783          	ld	a5,8(s5)
  fff101245e:	70e2                	ld	ra,56(sp)
  fff1012460:	95a2                	add	a1,a1,s0
  fff1012462:	7442                	ld	s0,48(sp)
  fff1012464:	6a42                	ld	s4,16(sp)
  fff1012466:	6aa2                	ld	s5,8(sp)
  fff1012468:	86ce                	mv	a3,s3
  fff101246a:	8626                	mv	a2,s1
  fff101246c:	69e2                	ld	s3,24(sp)
  fff101246e:	74a2                	ld	s1,40(sp)
  fff1012470:	854a                	mv	a0,s2
  fff1012472:	7902                	ld	s2,32(sp)
  fff1012474:	6121                	addi	sp,sp,64
  fff1012476:	8782                	jr	a5
  fff1012478:	fda00513          	li	a0,-38
  fff101247c:	70e2                	ld	ra,56(sp)
  fff101247e:	7442                	ld	s0,48(sp)
  fff1012480:	74a2                	ld	s1,40(sp)
  fff1012482:	7902                	ld	s2,32(sp)
  fff1012484:	69e2                	ld	s3,24(sp)
  fff1012486:	6a42                	ld	s4,16(sp)
  fff1012488:	6aa2                	ld	s5,8(sp)
  fff101248a:	6121                	addi	sp,sp,64
  fff101248c:	8082                	ret
  fff101248e:	4501                	li	a0,0
  fff1012490:	b7f5                	j	fff101247c <spl+0x23fc>
  fff1012492:	7139                	addi	sp,sp,-64
  fff1012494:	f822                	sd	s0,48(sp)
  fff1012496:	f426                	sd	s1,40(sp)
  fff1012498:	ec4e                	sd	s3,24(sp)
  fff101249a:	e852                	sd	s4,16(sp)
  fff101249c:	e456                	sd	s5,8(sp)
  fff101249e:	fc06                	sd	ra,56(sp)
  fff10124a0:	f04a                	sd	s2,32(sp)
  fff10124a2:	8a2a                	mv	s4,a0
  fff10124a4:	842e                	mv	s0,a1
  fff10124a6:	84b2                	mv	s1,a2
  fff10124a8:	89b6                	mv	s3,a3
  fff10124aa:	371000ef          	jal	ra,fff101301a <spl+0x2f9a>
  fff10124ae:	611c                	ld	a5,0(a0)
  fff10124b0:	0687ba83          	ld	s5,104(a5)
  fff10124b4:	000ab783          	ld	a5,0(s5)
  fff10124b8:	cf95                	beqz	a5,fff10124f4 <spl+0x2474>
  fff10124ba:	892a                	mv	s2,a0
  fff10124bc:	8552                	mv	a0,s4
  fff10124be:	345000ef          	jal	ra,fff1013002 <spl+0x2f82>
  fff10124c2:	691c                	ld	a5,16(a0)
  fff10124c4:	04f47363          	bgeu	s0,a5,fff101250a <spl+0x248a>
  fff10124c8:	00940733          	add	a4,s0,s1
  fff10124cc:	00e7f463          	bgeu	a5,a4,fff10124d4 <spl+0x2454>
  fff10124d0:	408784b3          	sub	s1,a5,s0
  fff10124d4:	650c                	ld	a1,8(a0)
  fff10124d6:	000ab783          	ld	a5,0(s5)
  fff10124da:	70e2                	ld	ra,56(sp)
  fff10124dc:	95a2                	add	a1,a1,s0
  fff10124de:	7442                	ld	s0,48(sp)
  fff10124e0:	6a42                	ld	s4,16(sp)
  fff10124e2:	6aa2                	ld	s5,8(sp)
  fff10124e4:	86ce                	mv	a3,s3
  fff10124e6:	8626                	mv	a2,s1
  fff10124e8:	69e2                	ld	s3,24(sp)
  fff10124ea:	74a2                	ld	s1,40(sp)
  fff10124ec:	854a                	mv	a0,s2
  fff10124ee:	7902                	ld	s2,32(sp)
  fff10124f0:	6121                	addi	sp,sp,64
  fff10124f2:	8782                	jr	a5
  fff10124f4:	fda00513          	li	a0,-38
  fff10124f8:	70e2                	ld	ra,56(sp)
  fff10124fa:	7442                	ld	s0,48(sp)
  fff10124fc:	74a2                	ld	s1,40(sp)
  fff10124fe:	7902                	ld	s2,32(sp)
  fff1012500:	69e2                	ld	s3,24(sp)
  fff1012502:	6a42                	ld	s4,16(sp)
  fff1012504:	6aa2                	ld	s5,8(sp)
  fff1012506:	6121                	addi	sp,sp,64
  fff1012508:	8082                	ret
  fff101250a:	4501                	li	a0,0
  fff101250c:	b7f5                	j	fff10124f8 <spl+0x2478>
  fff101250e:	7115                	addi	sp,sp,-224
  fff1012510:	ed86                	sd	ra,216(sp)
  fff1012512:	e5a6                	sd	s1,200(sp)
  fff1012514:	e1ca                	sd	s2,192(sp)
  fff1012516:	84aa                	mv	s1,a0
  fff1012518:	e9a2                	sd	s0,208(sp)
  fff101251a:	fd4e                	sd	s3,184(sp)
  fff101251c:	f952                	sd	s4,176(sp)
  fff101251e:	f556                	sd	s5,168(sp)
  fff1012520:	f15a                	sd	s6,160(sp)
  fff1012522:	ed5e                	sd	s7,152(sp)
  fff1012524:	e962                	sd	s8,144(sp)
  fff1012526:	2dd000ef          	jal	ra,fff1013002 <spl+0x2f82>
  fff101252a:	892a                	mv	s2,a0
  fff101252c:	8526                	mv	a0,s1
  fff101252e:	2f5000ef          	jal	ra,fff1013022 <spl+0x2fa2>
  fff1012532:	47d9                	li	a5,22
  fff1012534:	06f51b63          	bne	a0,a5,fff10125aa <spl+0x252a>
  fff1012538:	4405                	li	s0,1
  fff101253a:	03010993          	addi	s3,sp,48
  fff101253e:	01010a13          	addi	s4,sp,16
  fff1012542:	00006b17          	auipc	s6,0x6
  fff1012546:	a3eb0b13          	addi	s6,s6,-1474 # fff1017f80 <spl+0x7f00>
  fff101254a:	00810b93          	addi	s7,sp,8
  fff101254e:	00006c17          	auipc	s8,0x6
  fff1012552:	a3ac0c13          	addi	s8,s8,-1478 # fff1017f88 <spl+0x7f08>
  fff1012556:	08100a93          	li	s5,129
  fff101255a:	864e                	mv	a2,s3
  fff101255c:	85a2                	mv	a1,s0
  fff101255e:	854a                	mv	a0,s2
  fff1012560:	e11ff0ef          	jal	ra,fff1012370 <spl+0x22f0>
  fff1012564:	e121                	bnez	a0,fff10125a4 <spl+0x2524>
  fff1012566:	6494                	ld	a3,8(s1)
  fff1012568:	865a                	mv	a2,s6
  fff101256a:	02000593          	li	a1,32
  fff101256e:	8722                	mv	a4,s0
  fff1012570:	8552                	mv	a0,s4
  fff1012572:	cf7ff0ef          	jal	ra,fff1012268 <spl+0x21e8>
  fff1012576:	8552                	mv	a0,s4
  fff1012578:	fdaff0ef          	jal	ra,fff1011d52 <spl+0x1cd2>
  fff101257c:	862a                	mv	a2,a0
  fff101257e:	86de                	mv	a3,s7
  fff1012580:	85e2                	mv	a1,s8
  fff1012582:	8526                	mv	a0,s1
  fff1012584:	0a2010ef          	jal	ra,fff1013626 <spl+0x35a6>
  fff1012588:	e115                	bnez	a0,fff10125ac <spl+0x252c>
  fff101258a:	6522                	ld	a0,8(sp)
  fff101258c:	277000ef          	jal	ra,fff1013002 <spl+0x2f82>
  fff1012590:	c100                	sw	s0,0(a0)
  fff1012592:	06000613          	li	a2,96
  fff1012596:	85ce                	mv	a1,s3
  fff1012598:	0521                	addi	a0,a0,8
  fff101259a:	c06fe0ef          	jal	ra,fff10109a0 <spl+0x920>
  fff101259e:	6522                	ld	a0,8(sp)
  fff10125a0:	3db000ef          	jal	ra,fff101317a <spl+0x30fa>
  fff10125a4:	2405                	addiw	s0,s0,1
  fff10125a6:	fb541ae3          	bne	s0,s5,fff101255a <spl+0x24da>
  fff10125aa:	4501                	li	a0,0
  fff10125ac:	60ee                	ld	ra,216(sp)
  fff10125ae:	644e                	ld	s0,208(sp)
  fff10125b0:	64ae                	ld	s1,200(sp)
  fff10125b2:	690e                	ld	s2,192(sp)
  fff10125b4:	79ea                	ld	s3,184(sp)
  fff10125b6:	7a4a                	ld	s4,176(sp)
  fff10125b8:	7aaa                	ld	s5,168(sp)
  fff10125ba:	7b0a                	ld	s6,160(sp)
  fff10125bc:	6bea                	ld	s7,152(sp)
  fff10125be:	6c4a                	ld	s8,144(sp)
  fff10125c0:	612d                	addi	sp,sp,224
  fff10125c2:	8082                	ret
  fff10125c4:	4701                	li	a4,0
  fff10125c6:	00006817          	auipc	a6,0x6
  fff10125ca:	79283803          	ld	a6,1938(a6) # fff1018d58 <spl+0x8cd8>
  fff10125ce:	ffffe597          	auipc	a1,0xffffe
  fff10125d2:	aea58593          	addi	a1,a1,-1302 # fff10100b8 <spl+0x38>
  fff10125d6:	02400613          	li	a2,36
  fff10125da:	0007079b          	sext.w	a5,a4
  fff10125de:	07e1                	addi	a5,a5,24
  fff10125e0:	0786                	slli	a5,a5,0x1
  fff10125e2:	97aa                	add	a5,a5,a0
  fff10125e4:	0087c783          	lbu	a5,8(a5)
  fff10125e8:	cb91                	beqz	a5,fff10125fc <spl+0x257c>
  fff10125ea:	00f806b3          	add	a3,a6,a5
  fff10125ee:	0006c683          	lbu	a3,0(a3)
  fff10125f2:	0976f693          	andi	a3,a3,151
  fff10125f6:	e299                	bnez	a3,fff10125fc <spl+0x257c>
  fff10125f8:	02e00793          	li	a5,46
  fff10125fc:	00e586b3          	add	a3,a1,a4
  fff1012600:	00f68023          	sb	a5,0(a3)
  fff1012604:	0705                	addi	a4,a4,1
  fff1012606:	fcc71ae3          	bne	a4,a2,fff10125da <spl+0x255a>
  fff101260a:	ffffe797          	auipc	a5,0xffffe
  fff101260e:	ac078923          	sb	zero,-1326(a5) # fff10100dc <spl+0x5c>
  fff1012612:	ffffe517          	auipc	a0,0xffffe
  fff1012616:	aa650513          	addi	a0,a0,-1370 # fff10100b8 <spl+0x38>
  fff101261a:	8082                	ret
  fff101261c:	1101                	addi	sp,sp,-32
  fff101261e:	e822                	sd	s0,16(sp)
  fff1012620:	e426                	sd	s1,8(sp)
  fff1012622:	ec06                	sd	ra,24(sp)
  fff1012624:	1000                	addi	s0,sp,32
  fff1012626:	6d18                	ld	a4,24(a0)
  fff1012628:	1ff00793          	li	a5,511
  fff101262c:	4605                	li	a2,1
  fff101262e:	02e7d7b3          	divu	a5,a5,a4
  fff1012632:	4581                	li	a1,0
  fff1012634:	0785                	addi	a5,a5,1
  fff1012636:	02e787b3          	mul	a5,a5,a4
  fff101263a:	07fd                	addi	a5,a5,31
  fff101263c:	9b81                	andi	a5,a5,-32
  fff101263e:	02078793          	addi	a5,a5,32
  fff1012642:	40f10133          	sub	sp,sp,a5
  fff1012646:	01f10493          	addi	s1,sp,31
  fff101264a:	9881                	andi	s1,s1,-32
  fff101264c:	86a6                	mv	a3,s1
  fff101264e:	71a000ef          	jal	ra,fff1012d68 <spl+0x2ce8>
  fff1012652:	4785                	li	a5,1
  fff1012654:	04f51563          	bne	a0,a5,fff101269e <spl+0x261e>
  fff1012658:	557d                	li	a0,-1
  fff101265a:	c0b9                	beqz	s1,fff10126a0 <spl+0x2620>
  fff101265c:	1fe4d703          	lhu	a4,510(s1)
  fff1012660:	67ad                	lui	a5,0xb
  fff1012662:	a5578793          	addi	a5,a5,-1451 # aa55 <ROM_BASE-0xfff10055ab>
  fff1012666:	02f71d63          	bne	a4,a5,fff10126a0 <spl+0x2620>
  fff101266a:	1c248713          	addi	a4,s1,450
  fff101266e:	1be48693          	addi	a3,s1,446
  fff1012672:	0ee00613          	li	a2,238
  fff1012676:	20248493          	addi	s1,s1,514
  fff101267a:	4585                	li	a1,1
  fff101267c:	00074783          	lbu	a5,0(a4)
  fff1012680:	00c79b63          	bne	a5,a2,fff1012696 <spl+0x2616>
  fff1012684:	00a6d783          	lhu	a5,10(a3)
  fff1012688:	0086d503          	lhu	a0,8(a3)
  fff101268c:	07c2                	slli	a5,a5,0x10
  fff101268e:	8fc9                	or	a5,a5,a0
  fff1012690:	2781                	sext.w	a5,a5
  fff1012692:	00b78e63          	beq	a5,a1,fff10126ae <spl+0x262e>
  fff1012696:	0741                	addi	a4,a4,16
  fff1012698:	06c1                	addi	a3,a3,16
  fff101269a:	fe9711e3          	bne	a4,s1,fff101267c <spl+0x25fc>
  fff101269e:	557d                	li	a0,-1
  fff10126a0:	fe040113          	addi	sp,s0,-32
  fff10126a4:	60e2                	ld	ra,24(sp)
  fff10126a6:	6442                	ld	s0,16(sp)
  fff10126a8:	64a2                	ld	s1,8(sp)
  fff10126aa:	6105                	addi	sp,sp,32
  fff10126ac:	8082                	ret
  fff10126ae:	4501                	li	a0,0
  fff10126b0:	bfc5                	j	fff10126a0 <spl+0x2620>
  fff10126b2:	715d                	addi	sp,sp,-80
  fff10126b4:	e486                	sd	ra,72(sp)
  fff10126b6:	e0a2                	sd	s0,64(sp)
  fff10126b8:	fc26                	sd	s1,56(sp)
  fff10126ba:	f84a                	sd	s2,48(sp)
  fff10126bc:	f44e                	sd	s3,40(sp)
  fff10126be:	f052                	sd	s4,32(sp)
  fff10126c0:	ec56                	sd	s5,24(sp)
  fff10126c2:	00154703          	lbu	a4,1(a0)
  fff10126c6:	00054783          	lbu	a5,0(a0)
  fff10126ca:	c602                	sw	zero,12(sp)
  fff10126cc:	0722                	slli	a4,a4,0x8
  fff10126ce:	8f5d                	or	a4,a4,a5
  fff10126d0:	00254783          	lbu	a5,2(a0)
  fff10126d4:	07c2                	slli	a5,a5,0x10
  fff10126d6:	8f5d                	or	a4,a4,a5
  fff10126d8:	00354783          	lbu	a5,3(a0)
  fff10126dc:	07e2                	slli	a5,a5,0x18
  fff10126de:	8fd9                	or	a5,a5,a4
  fff10126e0:	00454703          	lbu	a4,4(a0)
  fff10126e4:	1702                	slli	a4,a4,0x20
  fff10126e6:	8fd9                	or	a5,a5,a4
  fff10126e8:	00554703          	lbu	a4,5(a0)
  fff10126ec:	1722                	slli	a4,a4,0x28
  fff10126ee:	8f5d                	or	a4,a4,a5
  fff10126f0:	00654783          	lbu	a5,6(a0)
  fff10126f4:	17c2                	slli	a5,a5,0x30
  fff10126f6:	8f5d                	or	a4,a4,a5
  fff10126f8:	00754783          	lbu	a5,7(a0)
  fff10126fc:	17e2                	slli	a5,a5,0x38
  fff10126fe:	8fd9                	or	a5,a5,a4
  fff1012700:	00005717          	auipc	a4,0x5
  fff1012704:	3a073703          	ld	a4,928(a4) # fff1017aa0 <spl+0x7a20>
  fff1012708:	00e78c63          	beq	a5,a4,fff1012720 <spl+0x26a0>
  fff101270c:	557d                	li	a0,-1
  fff101270e:	60a6                	ld	ra,72(sp)
  fff1012710:	6406                	ld	s0,64(sp)
  fff1012712:	74e2                	ld	s1,56(sp)
  fff1012714:	7942                	ld	s2,48(sp)
  fff1012716:	79a2                	ld	s3,40(sp)
  fff1012718:	7a02                	ld	s4,32(sp)
  fff101271a:	6ae2                	ld	s5,24(sp)
  fff101271c:	6161                	addi	sp,sp,80
  fff101271e:	8082                	ret
  fff1012720:	01050993          	addi	s3,a0,16
  fff1012724:	00c10a13          	addi	s4,sp,12
  fff1012728:	842a                	mv	s0,a0
  fff101272a:	892e                	mv	s2,a1
  fff101272c:	84b2                	mv	s1,a2
  fff101272e:	85ce                	mv	a1,s3
  fff1012730:	4611                	li	a2,4
  fff1012732:	8552                	mv	a0,s4
  fff1012734:	a6cfe0ef          	jal	ra,fff10109a0 <spl+0x920>
  fff1012738:	4611                	li	a2,4
  fff101273a:	4581                	li	a1,0
  fff101273c:	854e                	mv	a0,s3
  fff101273e:	952fe0ef          	jal	ra,fff1010890 <spl+0x810>
  fff1012742:	00d44783          	lbu	a5,13(s0)
  fff1012746:	00c44603          	lbu	a2,12(s0)
  fff101274a:	85a2                	mv	a1,s0
  fff101274c:	07a2                	slli	a5,a5,0x8
  fff101274e:	8fd1                	or	a5,a5,a2
  fff1012750:	00e44603          	lbu	a2,14(s0)
  fff1012754:	4501                	li	a0,0
  fff1012756:	0642                	slli	a2,a2,0x10
  fff1012758:	8fd1                	or	a5,a5,a2
  fff101275a:	00f44603          	lbu	a2,15(s0)
  fff101275e:	0662                	slli	a2,a2,0x18
  fff1012760:	8e5d                	or	a2,a2,a5
  fff1012762:	2601                	sext.w	a2,a2
  fff1012764:	d3eff0ef          	jal	ra,fff1011ca2 <spl+0x1c22>
  fff1012768:	00050a9b          	sext.w	s5,a0
  fff101276c:	4611                	li	a2,4
  fff101276e:	85d2                	mv	a1,s4
  fff1012770:	854e                	mv	a0,s3
  fff1012772:	a2efe0ef          	jal	ra,fff10109a0 <spl+0x920>
  fff1012776:	47b2                	lw	a5,12(sp)
  fff1012778:	f9579ae3          	bne	a5,s5,fff101270c <spl+0x268c>
  fff101277c:	01944703          	lbu	a4,25(s0)
  fff1012780:	01844783          	lbu	a5,24(s0)
  fff1012784:	0722                	slli	a4,a4,0x8
  fff1012786:	8f5d                	or	a4,a4,a5
  fff1012788:	01a44783          	lbu	a5,26(s0)
  fff101278c:	07c2                	slli	a5,a5,0x10
  fff101278e:	8f5d                	or	a4,a4,a5
  fff1012790:	01b44783          	lbu	a5,27(s0)
  fff1012794:	07e2                	slli	a5,a5,0x18
  fff1012796:	8fd9                	or	a5,a5,a4
  fff1012798:	01c44703          	lbu	a4,28(s0)
  fff101279c:	1702                	slli	a4,a4,0x20
  fff101279e:	8fd9                	or	a5,a5,a4
  fff10127a0:	01d44703          	lbu	a4,29(s0)
  fff10127a4:	1722                	slli	a4,a4,0x28
  fff10127a6:	8f5d                	or	a4,a4,a5
  fff10127a8:	01e44783          	lbu	a5,30(s0)
  fff10127ac:	17c2                	slli	a5,a5,0x30
  fff10127ae:	8f5d                	or	a4,a4,a5
  fff10127b0:	01f44783          	lbu	a5,31(s0)
  fff10127b4:	17e2                	slli	a5,a5,0x38
  fff10127b6:	8fd9                	or	a5,a5,a4
  fff10127b8:	f5279ae3          	bne	a5,s2,fff101270c <spl+0x268c>
  fff10127bc:	02944703          	lbu	a4,41(s0)
  fff10127c0:	02844783          	lbu	a5,40(s0)
  fff10127c4:	0722                	slli	a4,a4,0x8
  fff10127c6:	8f5d                	or	a4,a4,a5
  fff10127c8:	02a44783          	lbu	a5,42(s0)
  fff10127cc:	07c2                	slli	a5,a5,0x10
  fff10127ce:	8f5d                	or	a4,a4,a5
  fff10127d0:	02b44783          	lbu	a5,43(s0)
  fff10127d4:	07e2                	slli	a5,a5,0x18
  fff10127d6:	8fd9                	or	a5,a5,a4
  fff10127d8:	02c44703          	lbu	a4,44(s0)
  fff10127dc:	1702                	slli	a4,a4,0x20
  fff10127de:	8fd9                	or	a5,a5,a4
  fff10127e0:	02d44703          	lbu	a4,45(s0)
  fff10127e4:	1722                	slli	a4,a4,0x28
  fff10127e6:	8f5d                	or	a4,a4,a5
  fff10127e8:	02e44783          	lbu	a5,46(s0)
  fff10127ec:	17c2                	slli	a5,a5,0x30
  fff10127ee:	8f5d                	or	a4,a4,a5
  fff10127f0:	02f44783          	lbu	a5,47(s0)
  fff10127f4:	17e2                	slli	a5,a5,0x38
  fff10127f6:	8fd9                	or	a5,a5,a4
  fff10127f8:	f0f4eae3          	bltu	s1,a5,fff101270c <spl+0x268c>
  fff10127fc:	03144783          	lbu	a5,49(s0)
  fff1012800:	03044703          	lbu	a4,48(s0)
  fff1012804:	07a2                	slli	a5,a5,0x8
  fff1012806:	8f5d                	or	a4,a4,a5
  fff1012808:	03244783          	lbu	a5,50(s0)
  fff101280c:	07c2                	slli	a5,a5,0x10
  fff101280e:	8fd9                	or	a5,a5,a4
  fff1012810:	03344703          	lbu	a4,51(s0)
  fff1012814:	0762                	slli	a4,a4,0x18
  fff1012816:	8fd9                	or	a5,a5,a4
  fff1012818:	03444703          	lbu	a4,52(s0)
  fff101281c:	1702                	slli	a4,a4,0x20
  fff101281e:	8f5d                	or	a4,a4,a5
  fff1012820:	03544783          	lbu	a5,53(s0)
  fff1012824:	17a2                	slli	a5,a5,0x28
  fff1012826:	8f5d                	or	a4,a4,a5
  fff1012828:	03644783          	lbu	a5,54(s0)
  fff101282c:	03079513          	slli	a0,a5,0x30
  fff1012830:	00e567b3          	or	a5,a0,a4
  fff1012834:	03744503          	lbu	a0,55(s0)
  fff1012838:	1562                	slli	a0,a0,0x38
  fff101283a:	8d5d                	or	a0,a0,a5
  fff101283c:	00a4b533          	sltu	a0,s1,a0
  fff1012840:	40a0053b          	negw	a0,a0
  fff1012844:	b5e9                	j	fff101270e <spl+0x268e>
  fff1012846:	711d                	addi	sp,sp,-96
  fff1012848:	e8a2                	sd	s0,80(sp)
  fff101284a:	ec86                	sd	ra,88(sp)
  fff101284c:	e4a6                	sd	s1,72(sp)
  fff101284e:	e0ca                	sd	s2,64(sp)
  fff1012850:	fc4e                	sd	s3,56(sp)
  fff1012852:	f852                	sd	s4,48(sp)
  fff1012854:	f456                	sd	s5,40(sp)
  fff1012856:	f05a                	sd	s6,32(sp)
  fff1012858:	ec5e                	sd	s7,24(sp)
  fff101285a:	1080                	addi	s0,sp,96
  fff101285c:	e105                	bnez	a0,fff101287c <spl+0x27fc>
  fff101285e:	4981                	li	s3,0
  fff1012860:	fa040113          	addi	sp,s0,-96
  fff1012864:	60e6                	ld	ra,88(sp)
  fff1012866:	854e                	mv	a0,s3
  fff1012868:	6446                	ld	s0,80(sp)
  fff101286a:	64a6                	ld	s1,72(sp)
  fff101286c:	6906                	ld	s2,64(sp)
  fff101286e:	79e2                	ld	s3,56(sp)
  fff1012870:	7a42                	ld	s4,48(sp)
  fff1012872:	7aa2                	ld	s5,40(sp)
  fff1012874:	7b02                	ld	s6,32(sp)
  fff1012876:	6be2                	ld	s7,24(sp)
  fff1012878:	6125                	addi	sp,sp,96
  fff101287a:	8082                	ret
  fff101287c:	84b2                	mv	s1,a2
  fff101287e:	d265                	beqz	a2,fff101285e <spl+0x27de>
  fff1012880:	6d18                	ld	a4,24(a0)
  fff1012882:	1ff00793          	li	a5,511
  fff1012886:	892e                	mv	s2,a1
  fff1012888:	02e7d7b3          	divu	a5,a5,a4
  fff101288c:	8a36                	mv	s4,a3
  fff101288e:	4605                	li	a2,1
  fff1012890:	4581                	li	a1,0
  fff1012892:	8aaa                	mv	s5,a0
  fff1012894:	0785                	addi	a5,a5,1
  fff1012896:	02e787b3          	mul	a5,a5,a4
  fff101289a:	07fd                	addi	a5,a5,31
  fff101289c:	9b81                	andi	a5,a5,-32
  fff101289e:	02078793          	addi	a5,a5,32
  fff10128a2:	40f10133          	sub	sp,sp,a5
  fff10128a6:	01f10b13          	addi	s6,sp,31
  fff10128aa:	fe0b7b13          	andi	s6,s6,-32
  fff10128ae:	86da                	mv	a3,s6
  fff10128b0:	4b8000ef          	jal	ra,fff1012d68 <spl+0x2ce8>
  fff10128b4:	4785                	li	a5,1
  fff10128b6:	89aa                	mv	s3,a0
  fff10128b8:	faf513e3          	bne	a0,a5,fff101285e <spl+0x27de>
  fff10128bc:	86a6                	mv	a3,s1
  fff10128be:	4605                	li	a2,1
  fff10128c0:	85ca                	mv	a1,s2
  fff10128c2:	8556                	mv	a0,s5
  fff10128c4:	4a4000ef          	jal	ra,fff1012d68 <spl+0x2ce8>
  fff10128c8:	8baa                	mv	s7,a0
  fff10128ca:	f9351ae3          	bne	a0,s3,fff101285e <spl+0x27de>
  fff10128ce:	0014c703          	lbu	a4,1(s1)
  fff10128d2:	0004c783          	lbu	a5,0(s1)
  fff10128d6:	4989                	li	s3,2
  fff10128d8:	0722                	slli	a4,a4,0x8
  fff10128da:	8f5d                	or	a4,a4,a5
  fff10128dc:	0024c783          	lbu	a5,2(s1)
  fff10128e0:	07c2                	slli	a5,a5,0x10
  fff10128e2:	8f5d                	or	a4,a4,a5
  fff10128e4:	0034c783          	lbu	a5,3(s1)
  fff10128e8:	07e2                	slli	a5,a5,0x18
  fff10128ea:	8fd9                	or	a5,a5,a4
  fff10128ec:	0044c703          	lbu	a4,4(s1)
  fff10128f0:	1702                	slli	a4,a4,0x20
  fff10128f2:	8fd9                	or	a5,a5,a4
  fff10128f4:	0054c703          	lbu	a4,5(s1)
  fff10128f8:	1722                	slli	a4,a4,0x28
  fff10128fa:	8f5d                	or	a4,a4,a5
  fff10128fc:	0064c783          	lbu	a5,6(s1)
  fff1012900:	17c2                	slli	a5,a5,0x30
  fff1012902:	8f5d                	or	a4,a4,a5
  fff1012904:	0074c783          	lbu	a5,7(s1)
  fff1012908:	17e2                	slli	a5,a5,0x38
  fff101290a:	8fd9                	or	a5,a5,a4
  fff101290c:	00005717          	auipc	a4,0x5
  fff1012910:	19c73703          	ld	a4,412(a4) # fff1017aa8 <spl+0x7a28>
  fff1012914:	f4e786e3          	beq	a5,a4,fff1012860 <spl+0x27e0>
  fff1012918:	010ab603          	ld	a2,16(s5)
  fff101291c:	85ca                	mv	a1,s2
  fff101291e:	8526                	mv	a0,s1
  fff1012920:	d93ff0ef          	jal	ra,fff10126b2 <spl+0x2632>
  fff1012924:	89aa                	mv	s3,a0
  fff1012926:	fd05                	bnez	a0,fff101285e <spl+0x27de>
  fff1012928:	06caa783          	lw	a5,108(s5)
  fff101292c:	e79d                	bnez	a5,fff101295a <spl+0x28da>
  fff101292e:	03848913          	addi	s2,s1,56
  fff1012932:	4641                	li	a2,16
  fff1012934:	fa040593          	addi	a1,s0,-96
  fff1012938:	854a                	mv	a0,s2
  fff101293a:	fa043023          	sd	zero,-96(s0)
  fff101293e:	fa043423          	sd	zero,-88(s0)
  fff1012942:	c3aff0ef          	jal	ra,fff1011d7c <spl+0x1cfc>
  fff1012946:	c979                	beqz	a0,fff1012a1c <spl+0x299c>
  fff1012948:	4789                	li	a5,2
  fff101294a:	06faa623          	sw	a5,108(s5)
  fff101294e:	4641                	li	a2,16
  fff1012950:	85ca                	mv	a1,s2
  fff1012952:	070a8513          	addi	a0,s5,112
  fff1012956:	84afe0ef          	jal	ra,fff10109a0 <spl+0x920>
  fff101295a:	0514c783          	lbu	a5,81(s1)
  fff101295e:	0504c903          	lbu	s2,80(s1)
  fff1012962:	0554c703          	lbu	a4,85(s1)
  fff1012966:	07a2                	slli	a5,a5,0x8
  fff1012968:	0127e7b3          	or	a5,a5,s2
  fff101296c:	0524c903          	lbu	s2,82(s1)
  fff1012970:	0722                	slli	a4,a4,0x8
  fff1012972:	0942                	slli	s2,s2,0x10
  fff1012974:	00f967b3          	or	a5,s2,a5
  fff1012978:	0534c903          	lbu	s2,83(s1)
  fff101297c:	0962                	slli	s2,s2,0x18
  fff101297e:	00f96933          	or	s2,s2,a5
  fff1012982:	0544c783          	lbu	a5,84(s1)
  fff1012986:	8f5d                	or	a4,a4,a5
  fff1012988:	0564c783          	lbu	a5,86(s1)
  fff101298c:	07c2                	slli	a5,a5,0x10
  fff101298e:	8f5d                	or	a4,a4,a5
  fff1012990:	0574c783          	lbu	a5,87(s1)
  fff1012994:	07e2                	slli	a5,a5,0x18
  fff1012996:	8fd9                	or	a5,a5,a4
  fff1012998:	02f9093b          	mulw	s2,s2,a5
  fff101299c:	1902                	slli	s2,s2,0x20
  fff101299e:	02095913          	srli	s2,s2,0x20
  fff10129a2:	06090a63          	beqz	s2,fff1012a16 <spl+0x2996>
  fff10129a6:	018ab583          	ld	a1,24(s5)
  fff10129aa:	197d                	addi	s2,s2,-1
  fff10129ac:	02000513          	li	a0,32
  fff10129b0:	02b957b3          	divu	a5,s2,a1
  fff10129b4:	0785                	addi	a5,a5,1
  fff10129b6:	02b785b3          	mul	a1,a5,a1
  fff10129ba:	fb8fe0ef          	jal	ra,fff1011172 <spl+0x10f2>
  fff10129be:	8b2a                	mv	s6,a0
  fff10129c0:	c939                	beqz	a0,fff1012a16 <spl+0x2996>
  fff10129c2:	018ab603          	ld	a2,24(s5)
  fff10129c6:	0494c583          	lbu	a1,73(s1)
  fff10129ca:	0484c783          	lbu	a5,72(s1)
  fff10129ce:	02c95933          	divu	s2,s2,a2
  fff10129d2:	05a2                	slli	a1,a1,0x8
  fff10129d4:	8ddd                	or	a1,a1,a5
  fff10129d6:	04a4c783          	lbu	a5,74(s1)
  fff10129da:	86aa                	mv	a3,a0
  fff10129dc:	8556                	mv	a0,s5
  fff10129de:	07c2                	slli	a5,a5,0x10
  fff10129e0:	8fcd                	or	a5,a5,a1
  fff10129e2:	04b4c583          	lbu	a1,75(s1)
  fff10129e6:	05e2                	slli	a1,a1,0x18
  fff10129e8:	8ddd                	or	a1,a1,a5
  fff10129ea:	04c4c783          	lbu	a5,76(s1)
  fff10129ee:	1782                	slli	a5,a5,0x20
  fff10129f0:	8fcd                	or	a5,a5,a1
  fff10129f2:	04d4c583          	lbu	a1,77(s1)
  fff10129f6:	15a2                	slli	a1,a1,0x28
  fff10129f8:	8ddd                	or	a1,a1,a5
  fff10129fa:	04e4c783          	lbu	a5,78(s1)
  fff10129fe:	17c2                	slli	a5,a5,0x30
  fff1012a00:	8fcd                	or	a5,a5,a1
  fff1012a02:	04f4c583          	lbu	a1,79(s1)
  fff1012a06:	15e2                	slli	a1,a1,0x38
  fff1012a08:	8ddd                	or	a1,a1,a5
  fff1012a0a:	0905                	addi	s2,s2,1
  fff1012a0c:	864a                	mv	a2,s2
  fff1012a0e:	35a000ef          	jal	ra,fff1012d68 <spl+0x2ce8>
  fff1012a12:	00a90f63          	beq	s2,a0,fff1012a30 <spl+0x29b0>
  fff1012a16:	000a3023          	sd	zero,0(s4)
  fff1012a1a:	b599                	j	fff1012860 <spl+0x27e0>
  fff1012a1c:	1b8b2783          	lw	a5,440(s6)
  fff1012a20:	df8d                	beqz	a5,fff101295a <spl+0x28da>
  fff1012a22:	077aa623          	sw	s7,108(s5)
  fff1012a26:	1b8b2783          	lw	a5,440(s6)
  fff1012a2a:	06faa823          	sw	a5,112(s5)
  fff1012a2e:	b735                	j	fff101295a <spl+0x28da>
  fff1012a30:	016a3023          	sd	s6,0(s4)
  fff1012a34:	0514c783          	lbu	a5,81(s1)
  fff1012a38:	0504c603          	lbu	a2,80(s1)
  fff1012a3c:	0554c703          	lbu	a4,85(s1)
  fff1012a40:	07a2                	slli	a5,a5,0x8
  fff1012a42:	8fd1                	or	a5,a5,a2
  fff1012a44:	0524c603          	lbu	a2,82(s1)
  fff1012a48:	0722                	slli	a4,a4,0x8
  fff1012a4a:	85da                	mv	a1,s6
  fff1012a4c:	0642                	slli	a2,a2,0x10
  fff1012a4e:	8fd1                	or	a5,a5,a2
  fff1012a50:	0534c603          	lbu	a2,83(s1)
  fff1012a54:	4501                	li	a0,0
  fff1012a56:	0662                	slli	a2,a2,0x18
  fff1012a58:	8e5d                	or	a2,a2,a5
  fff1012a5a:	0544c783          	lbu	a5,84(s1)
  fff1012a5e:	8f5d                	or	a4,a4,a5
  fff1012a60:	0564c783          	lbu	a5,86(s1)
  fff1012a64:	07c2                	slli	a5,a5,0x10
  fff1012a66:	8f5d                	or	a4,a4,a5
  fff1012a68:	0574c783          	lbu	a5,87(s1)
  fff1012a6c:	07e2                	slli	a5,a5,0x18
  fff1012a6e:	8fd9                	or	a5,a5,a4
  fff1012a70:	02f6063b          	mulw	a2,a2,a5
  fff1012a74:	a2eff0ef          	jal	ra,fff1011ca2 <spl+0x1c22>
  fff1012a78:	0594c783          	lbu	a5,89(s1)
  fff1012a7c:	0584c703          	lbu	a4,88(s1)
  fff1012a80:	2501                	sext.w	a0,a0
  fff1012a82:	07a2                	slli	a5,a5,0x8
  fff1012a84:	8f5d                	or	a4,a4,a5
  fff1012a86:	05a4c783          	lbu	a5,90(s1)
  fff1012a8a:	01079993          	slli	s3,a5,0x10
  fff1012a8e:	00e9e7b3          	or	a5,s3,a4
  fff1012a92:	05b4c983          	lbu	s3,91(s1)
  fff1012a96:	09e2                	slli	s3,s3,0x18
  fff1012a98:	00f9e9b3          	or	s3,s3,a5
  fff1012a9c:	2981                	sext.w	s3,s3
  fff1012a9e:	40a989b3          	sub	s3,s3,a0
  fff1012aa2:	0019b993          	seqz	s3,s3
  fff1012aa6:	bb6d                	j	fff1012860 <spl+0x27e0>
  fff1012aa8:	7179                	addi	sp,sp,-48
  fff1012aaa:	f022                	sd	s0,32(sp)
  fff1012aac:	840a                	mv	s0,sp
  fff1012aae:	ec26                	sd	s1,24(sp)
  fff1012ab0:	4641                	li	a2,16
  fff1012ab2:	84aa                	mv	s1,a0
  fff1012ab4:	4581                	li	a1,0
  fff1012ab6:	8522                	mv	a0,s0
  fff1012ab8:	f406                	sd	ra,40(sp)
  fff1012aba:	dd7fd0ef          	jal	ra,fff1010890 <spl+0x810>
  fff1012abe:	85a2                	mv	a1,s0
  fff1012ac0:	8526                	mv	a0,s1
  fff1012ac2:	4641                	li	a2,16
  fff1012ac4:	ab8ff0ef          	jal	ra,fff1011d7c <spl+0x1cfc>
  fff1012ac8:	70a2                	ld	ra,40(sp)
  fff1012aca:	7402                	ld	s0,32(sp)
  fff1012acc:	64e2                	ld	s1,24(sp)
  fff1012ace:	00a03533          	snez	a0,a0
  fff1012ad2:	6145                	addi	sp,sp,48
  fff1012ad4:	8082                	ret
  fff1012ad6:	7179                	addi	sp,sp,-48
  fff1012ad8:	ec26                	sd	s1,24(sp)
  fff1012ada:	86b2                	mv	a3,a2
  fff1012adc:	e432                	sd	a2,8(sp)
  fff1012ade:	84ae                	mv	s1,a1
  fff1012ae0:	862e                	mv	a2,a1
  fff1012ae2:	4585                	li	a1,1
  fff1012ae4:	f022                	sd	s0,32(sp)
  fff1012ae6:	f406                	sd	ra,40(sp)
  fff1012ae8:	842a                	mv	s0,a0
  fff1012aea:	d5dff0ef          	jal	ra,fff1012846 <spl+0x27c6>
  fff1012aee:	4785                	li	a5,1
  fff1012af0:	00f50c63          	beq	a0,a5,fff1012b08 <spl+0x2a88>
  fff1012af4:	680c                	ld	a1,16(s0)
  fff1012af6:	66a2                	ld	a3,8(sp)
  fff1012af8:	8626                	mv	a2,s1
  fff1012afa:	15fd                	addi	a1,a1,-1
  fff1012afc:	8522                	mv	a0,s0
  fff1012afe:	d49ff0ef          	jal	ra,fff1012846 <spl+0x27c6>
  fff1012b02:	157d                	addi	a0,a0,-1
  fff1012b04:	00153513          	seqz	a0,a0
  fff1012b08:	70a2                	ld	ra,40(sp)
  fff1012b0a:	7402                	ld	s0,32(sp)
  fff1012b0c:	64e2                	ld	s1,24(sp)
  fff1012b0e:	6145                	addi	sp,sp,48
  fff1012b10:	8082                	ret
  fff1012b12:	7139                	addi	sp,sp,-64
  fff1012b14:	f822                	sd	s0,48(sp)
  fff1012b16:	fc06                	sd	ra,56(sp)
  fff1012b18:	f426                	sd	s1,40(sp)
  fff1012b1a:	f04a                	sd	s2,32(sp)
  fff1012b1c:	ec4e                	sd	s3,24(sp)
  fff1012b1e:	e852                	sd	s4,16(sp)
  fff1012b20:	0080                	addi	s0,sp,64
  fff1012b22:	6d18                	ld	a4,24(a0)
  fff1012b24:	05b00793          	li	a5,91
  fff1012b28:	fc043423          	sd	zero,-56(s0)
  fff1012b2c:	02e7d7b3          	divu	a5,a5,a4
  fff1012b30:	0785                	addi	a5,a5,1
  fff1012b32:	02e787b3          	mul	a5,a5,a4
  fff1012b36:	07fd                	addi	a5,a5,31
  fff1012b38:	9b81                	andi	a5,a5,-32
  fff1012b3a:	02078793          	addi	a5,a5,32
  fff1012b3e:	40f10133          	sub	sp,sp,a5
  fff1012b42:	00b04d63          	bgtz	a1,fff1012b5c <spl+0x2adc>
  fff1012b46:	5529                	li	a0,-22
  fff1012b48:	fc040113          	addi	sp,s0,-64
  fff1012b4c:	70e2                	ld	ra,56(sp)
  fff1012b4e:	7442                	ld	s0,48(sp)
  fff1012b50:	74a2                	ld	s1,40(sp)
  fff1012b52:	7902                	ld	s2,32(sp)
  fff1012b54:	69e2                	ld	s3,24(sp)
  fff1012b56:	6a42                	ld	s4,16(sp)
  fff1012b58:	6121                	addi	sp,sp,64
  fff1012b5a:	8082                	ret
  fff1012b5c:	01f10a13          	addi	s4,sp,31
  fff1012b60:	fe0a7a13          	andi	s4,s4,-32
  fff1012b64:	84ae                	mv	s1,a1
  fff1012b66:	8932                	mv	s2,a2
  fff1012b68:	85d2                	mv	a1,s4
  fff1012b6a:	fc840613          	addi	a2,s0,-56
  fff1012b6e:	89aa                	mv	s3,a0
  fff1012b70:	f67ff0ef          	jal	ra,fff1012ad6 <spl+0x2a56>
  fff1012b74:	4785                	li	a5,1
  fff1012b76:	fcf518e3          	bne	a0,a5,fff1012b46 <spl+0x2ac6>
  fff1012b7a:	050a2783          	lw	a5,80(s4)
  fff1012b7e:	0097f463          	bgeu	a5,s1,fff1012b86 <spl+0x2b06>
  fff1012b82:	557d                	li	a0,-1
  fff1012b84:	b7d1                	j	fff1012b48 <spl+0x2ac8>
  fff1012b86:	fc843503          	ld	a0,-56(s0)
  fff1012b8a:	049e                	slli	s1,s1,0x7
  fff1012b8c:	f8048493          	addi	s1,s1,-128
  fff1012b90:	9526                	add	a0,a0,s1
  fff1012b92:	d965                	beqz	a0,fff1012b82 <spl+0x2b02>
  fff1012b94:	f15ff0ef          	jal	ra,fff1012aa8 <spl+0x2a28>
  fff1012b98:	d56d                	beqz	a0,fff1012b82 <spl+0x2b02>
  fff1012b9a:	fc843503          	ld	a0,-56(s0)
  fff1012b9e:	9526                	add	a0,a0,s1
  fff1012ba0:	02154683          	lbu	a3,33(a0)
  fff1012ba4:	02054703          	lbu	a4,32(a0)
  fff1012ba8:	02754783          	lbu	a5,39(a0)
  fff1012bac:	06a2                	slli	a3,a3,0x8
  fff1012bae:	8ed9                	or	a3,a3,a4
  fff1012bb0:	02254703          	lbu	a4,34(a0)
  fff1012bb4:	17e2                	slli	a5,a5,0x38
  fff1012bb6:	0742                	slli	a4,a4,0x10
  fff1012bb8:	8ed9                	or	a3,a3,a4
  fff1012bba:	02354703          	lbu	a4,35(a0)
  fff1012bbe:	0762                	slli	a4,a4,0x18
  fff1012bc0:	8f55                	or	a4,a4,a3
  fff1012bc2:	02454683          	lbu	a3,36(a0)
  fff1012bc6:	1682                	slli	a3,a3,0x20
  fff1012bc8:	8f55                	or	a4,a4,a3
  fff1012bca:	02554683          	lbu	a3,37(a0)
  fff1012bce:	16a2                	slli	a3,a3,0x28
  fff1012bd0:	8ed9                	or	a3,a3,a4
  fff1012bd2:	02654703          	lbu	a4,38(a0)
  fff1012bd6:	1742                	slli	a4,a4,0x30
  fff1012bd8:	8ed9                	or	a3,a3,a4
  fff1012bda:	00d7e733          	or	a4,a5,a3
  fff1012bde:	00e93023          	sd	a4,0(s2)
  fff1012be2:	02954683          	lbu	a3,41(a0)
  fff1012be6:	02854783          	lbu	a5,40(a0)
  fff1012bea:	06a2                	slli	a3,a3,0x8
  fff1012bec:	8edd                	or	a3,a3,a5
  fff1012bee:	02a54783          	lbu	a5,42(a0)
  fff1012bf2:	07c2                	slli	a5,a5,0x10
  fff1012bf4:	8edd                	or	a3,a3,a5
  fff1012bf6:	02b54783          	lbu	a5,43(a0)
  fff1012bfa:	07e2                	slli	a5,a5,0x18
  fff1012bfc:	8fd5                	or	a5,a5,a3
  fff1012bfe:	02c54683          	lbu	a3,44(a0)
  fff1012c02:	1682                	slli	a3,a3,0x20
  fff1012c04:	8fd5                	or	a5,a5,a3
  fff1012c06:	02d54683          	lbu	a3,45(a0)
  fff1012c0a:	16a2                	slli	a3,a3,0x28
  fff1012c0c:	8edd                	or	a3,a3,a5
  fff1012c0e:	02e54783          	lbu	a5,46(a0)
  fff1012c12:	17c2                	slli	a5,a5,0x30
  fff1012c14:	8edd                	or	a3,a3,a5
  fff1012c16:	02f54783          	lbu	a5,47(a0)
  fff1012c1a:	17e2                	slli	a5,a5,0x38
  fff1012c1c:	8fd5                	or	a5,a5,a3
  fff1012c1e:	0785                	addi	a5,a5,1
  fff1012c20:	8f99                	sub	a5,a5,a4
  fff1012c22:	00f93423          	sd	a5,8(s2)
  fff1012c26:	0189b783          	ld	a5,24(s3)
  fff1012c2a:	00f93823          	sd	a5,16(s2)
  fff1012c2e:	997ff0ef          	jal	ra,fff10125c4 <spl+0x2544>
  fff1012c32:	86aa                	mv	a3,a0
  fff1012c34:	00005617          	auipc	a2,0x5
  fff1012c38:	36460613          	addi	a2,a2,868 # fff1017f98 <spl+0x7f18>
  fff1012c3c:	02000593          	li	a1,32
  fff1012c40:	01890513          	addi	a0,s2,24
  fff1012c44:	e24ff0ef          	jal	ra,fff1012268 <spl+0x21e8>
  fff1012c48:	00006597          	auipc	a1,0x6
  fff1012c4c:	8d058593          	addi	a1,a1,-1840 # fff1018518 <spl+0x8498>
  fff1012c50:	03890513          	addi	a0,s2,56
  fff1012c54:	878ff0ef          	jal	ra,fff1011ccc <spl+0x1c4c>
  fff1012c58:	fc843783          	ld	a5,-56(s0)
  fff1012c5c:	4641                	li	a2,16
  fff1012c5e:	00006597          	auipc	a1,0x6
  fff1012c62:	c3a58593          	addi	a1,a1,-966 # fff1018898 <spl+0x8818>
  fff1012c66:	94be                	add	s1,s1,a5
  fff1012c68:	8526                	mv	a0,s1
  fff1012c6a:	912ff0ef          	jal	ra,fff1011d7c <spl+0x1cfc>
  fff1012c6e:	0304c783          	lbu	a5,48(s1)
  fff1012c72:	00153513          	seqz	a0,a0
  fff1012c76:	0506                	slli	a0,a0,0x1
  fff1012c78:	8b91                	andi	a5,a5,4
  fff1012c7a:	c399                	beqz	a5,fff1012c80 <spl+0x2c00>
  fff1012c7c:	00156513          	ori	a0,a0,1
  fff1012c80:	04a92c23          	sw	a0,88(s2)
  fff1012c84:	4501                	li	a0,0
  fff1012c86:	b5c9                	j	fff1012b48 <spl+0x2ac8>
  fff1012c88:	1101                	addi	sp,sp,-32
  fff1012c8a:	ec06                	sd	ra,24(sp)
  fff1012c8c:	e822                	sd	s0,16(sp)
  fff1012c8e:	e426                	sd	s1,8(sp)
  fff1012c90:	842a                	mv	s0,a0
  fff1012c92:	370000ef          	jal	ra,fff1013002 <spl+0x2f82>
  fff1012c96:	84aa                	mv	s1,a0
  fff1012c98:	e7aff0ef          	jal	ra,fff1012312 <spl+0x2292>
  fff1012c9c:	0084c783          	lbu	a5,8(s1)
  fff1012ca0:	c781                	beqz	a5,fff1012ca8 <spl+0x2c28>
  fff1012ca2:	8522                	mv	a0,s0
  fff1012ca4:	86bff0ef          	jal	ra,fff101250e <spl+0x248e>
  fff1012ca8:	60e2                	ld	ra,24(sp)
  fff1012caa:	6442                	ld	s0,16(sp)
  fff1012cac:	64a2                	ld	s1,8(sp)
  fff1012cae:	4501                	li	a0,0
  fff1012cb0:	6105                	addi	sp,sp,32
  fff1012cb2:	8082                	ret
  fff1012cb4:	611c                	ld	a5,0(a0)
  fff1012cb6:	77bc                	ld	a5,104(a5)
  fff1012cb8:	c781                	beqz	a5,fff1012cc0 <spl+0x2c40>
  fff1012cba:	6f9c                	ld	a5,24(a5)
  fff1012cbc:	c789                	beqz	a5,fff1012cc6 <spl+0x2c46>
  fff1012cbe:	8782                	jr	a5
  fff1012cc0:	fda00513          	li	a0,-38
  fff1012cc4:	8082                	ret
  fff1012cc6:	4501                	li	a0,0
  fff1012cc8:	8082                	ret
  fff1012cca:	6148                	ld	a0,128(a0)
  fff1012ccc:	b7e5                	j	fff1012cb4 <spl+0x2c34>
  fff1012cce:	7139                	addi	sp,sp,-64
  fff1012cd0:	f04a                	sd	s2,32(sp)
  fff1012cd2:	ec4e                	sd	s3,24(sp)
  fff1012cd4:	892a                	mv	s2,a0
  fff1012cd6:	89ae                	mv	s3,a1
  fff1012cd8:	4559                	li	a0,22
  fff1012cda:	002c                	addi	a1,sp,8
  fff1012cdc:	f426                	sd	s1,40(sp)
  fff1012cde:	e852                	sd	s4,16(sp)
  fff1012ce0:	fc06                	sd	ra,56(sp)
  fff1012ce2:	f822                	sd	s0,48(sp)
  fff1012ce4:	8a32                	mv	s4,a2
  fff1012ce6:	4df000ef          	jal	ra,fff10139c4 <spl+0x3944>
  fff1012cea:	84aa                	mv	s1,a0
  fff1012cec:	e905                	bnez	a0,fff1012d1c <spl+0x2c9c>
  fff1012cee:	67a2                	ld	a5,8(sp)
  fff1012cf0:	6b80                	ld	s0,16(a5)
  fff1012cf2:	67a2                	ld	a5,8(sp)
  fff1012cf4:	fa840413          	addi	s0,s0,-88
  fff1012cf8:	05840713          	addi	a4,s0,88
  fff1012cfc:	07c1                	addi	a5,a5,16
  fff1012cfe:	00f71463          	bne	a4,a5,fff1012d06 <spl+0x2c86>
  fff1012d02:	54b5                	li	s1,-19
  fff1012d04:	a821                	j	fff1012d1c <spl+0x2c9c>
  fff1012d06:	8522                	mv	a0,s0
  fff1012d08:	2fa000ef          	jal	ra,fff1013002 <spl+0x2f82>
  fff1012d0c:	411c                	lw	a5,0(a0)
  fff1012d0e:	03279063          	bne	a5,s2,fff1012d2e <spl+0x2cae>
  fff1012d12:	415c                	lw	a5,4(a0)
  fff1012d14:	01379d63          	bne	a5,s3,fff1012d2e <spl+0x2cae>
  fff1012d18:	008a3023          	sd	s0,0(s4)
  fff1012d1c:	70e2                	ld	ra,56(sp)
  fff1012d1e:	7442                	ld	s0,48(sp)
  fff1012d20:	7902                	ld	s2,32(sp)
  fff1012d22:	69e2                	ld	s3,24(sp)
  fff1012d24:	6a42                	ld	s4,16(sp)
  fff1012d26:	8526                	mv	a0,s1
  fff1012d28:	74a2                	ld	s1,40(sp)
  fff1012d2a:	6121                	addi	sp,sp,64
  fff1012d2c:	8082                	ret
  fff1012d2e:	6c20                	ld	s0,88(s0)
  fff1012d30:	b7c9                	j	fff1012cf2 <spl+0x2c72>
  fff1012d32:	7179                	addi	sp,sp,-48
  fff1012d34:	f022                	sd	s0,32(sp)
  fff1012d36:	f406                	sd	ra,40(sp)
  fff1012d38:	842a                	mv	s0,a0
  fff1012d3a:	ec2e                	sd	a1,24(sp)
  fff1012d3c:	e832                	sd	a2,16(sp)
  fff1012d3e:	e436                	sd	a3,8(sp)
  fff1012d40:	2c2000ef          	jal	ra,fff1013002 <spl+0x2f82>
  fff1012d44:	601c                	ld	a5,0(s0)
  fff1012d46:	77bc                	ld	a5,104(a5)
  fff1012d48:	639c                	ld	a5,0(a5)
  fff1012d4a:	cb89                	beqz	a5,fff1012d5c <spl+0x2cdc>
  fff1012d4c:	8522                	mv	a0,s0
  fff1012d4e:	7402                	ld	s0,32(sp)
  fff1012d50:	66a2                	ld	a3,8(sp)
  fff1012d52:	6642                	ld	a2,16(sp)
  fff1012d54:	65e2                	ld	a1,24(sp)
  fff1012d56:	70a2                	ld	ra,40(sp)
  fff1012d58:	6145                	addi	sp,sp,48
  fff1012d5a:	8782                	jr	a5
  fff1012d5c:	70a2                	ld	ra,40(sp)
  fff1012d5e:	7402                	ld	s0,32(sp)
  fff1012d60:	fda00513          	li	a0,-38
  fff1012d64:	6145                	addi	sp,sp,48
  fff1012d66:	8082                	ret
  fff1012d68:	6148                	ld	a0,128(a0)
  fff1012d6a:	b7e1                	j	fff1012d32 <spl+0x2cb2>
  fff1012d6c:	7179                	addi	sp,sp,-48
  fff1012d6e:	e84a                	sd	s2,16(sp)
  fff1012d70:	002c                	addi	a1,sp,8
  fff1012d72:	892a                	mv	s2,a0
  fff1012d74:	4559                	li	a0,22
  fff1012d76:	f022                	sd	s0,32(sp)
  fff1012d78:	f406                	sd	ra,40(sp)
  fff1012d7a:	ec26                	sd	s1,24(sp)
  fff1012d7c:	449000ef          	jal	ra,fff10139c4 <spl+0x3944>
  fff1012d80:	842a                	mv	s0,a0
  fff1012d82:	ed01                	bnez	a0,fff1012d9a <spl+0x2d1a>
  fff1012d84:	67a2                	ld	a5,8(sp)
  fff1012d86:	5435                	li	s0,-19
  fff1012d88:	6b84                	ld	s1,16(a5)
  fff1012d8a:	fa848493          	addi	s1,s1,-88
  fff1012d8e:	67a2                	ld	a5,8(sp)
  fff1012d90:	05848713          	addi	a4,s1,88
  fff1012d94:	07c1                	addi	a5,a5,16
  fff1012d96:	00f71963          	bne	a4,a5,fff1012da8 <spl+0x2d28>
  fff1012d9a:	70a2                	ld	ra,40(sp)
  fff1012d9c:	8522                	mv	a0,s0
  fff1012d9e:	7402                	ld	s0,32(sp)
  fff1012da0:	64e2                	ld	s1,24(sp)
  fff1012da2:	6942                	ld	s2,16(sp)
  fff1012da4:	6145                	addi	sp,sp,48
  fff1012da6:	8082                	ret
  fff1012da8:	8526                	mv	a0,s1
  fff1012daa:	258000ef          	jal	ra,fff1013002 <spl+0x2f82>
  fff1012dae:	411c                	lw	a5,0(a0)
  fff1012db0:	01279a63          	bne	a5,s2,fff1012dc4 <spl+0x2d44>
  fff1012db4:	415c                	lw	a5,4(a0)
  fff1012db6:	0007871b          	sext.w	a4,a5
  fff1012dba:	00875363          	bge	a4,s0,fff1012dc0 <spl+0x2d40>
  fff1012dbe:	87a2                	mv	a5,s0
  fff1012dc0:	0007841b          	sext.w	s0,a5
  fff1012dc4:	6ca4                	ld	s1,88(s1)
  fff1012dc6:	fa848493          	addi	s1,s1,-88
  fff1012dca:	b7d1                	j	fff1012d8e <spl+0x2d0e>
  fff1012dcc:	1141                	addi	sp,sp,-16
  fff1012dce:	e406                	sd	ra,8(sp)
  fff1012dd0:	f9dff0ef          	jal	ra,fff1012d6c <spl+0x2cec>
  fff1012dd4:	57b5                	li	a5,-19
  fff1012dd6:	00f50863          	beq	a0,a5,fff1012de6 <spl+0x2d66>
  fff1012dda:	00054363          	bltz	a0,fff1012de0 <spl+0x2d60>
  fff1012dde:	2505                	addiw	a0,a0,1
  fff1012de0:	60a2                	ld	ra,8(sp)
  fff1012de2:	0141                	addi	sp,sp,16
  fff1012de4:	8082                	ret
  fff1012de6:	4501                	li	a0,0
  fff1012de8:	bfe5                	j	fff1012de0 <spl+0x2d60>
  fff1012dea:	7159                	addi	sp,sp,-112
  fff1012dec:	eca6                	sd	s1,88(sp)
  fff1012dee:	e8ca                	sd	s2,80(sp)
  fff1012df0:	e4ce                	sd	s3,72(sp)
  fff1012df2:	fc56                	sd	s5,56(sp)
  fff1012df4:	f85a                	sd	s6,48(sp)
  fff1012df6:	f45e                	sd	s7,40(sp)
  fff1012df8:	f062                	sd	s8,32(sp)
  fff1012dfa:	89be                	mv	s3,a5
  fff1012dfc:	f486                	sd	ra,104(sp)
  fff1012dfe:	f0a2                	sd	s0,96(sp)
  fff1012e00:	e0d2                	sd	s4,64(sp)
  fff1012e02:	ec66                	sd	s9,24(sp)
  fff1012e04:	57fd                	li	a5,-1
  fff1012e06:	8b2a                	mv	s6,a0
  fff1012e08:	8bae                	mv	s7,a1
  fff1012e0a:	8c32                	mv	s8,a2
  fff1012e0c:	8ab6                	mv	s5,a3
  fff1012e0e:	8942                	mv	s2,a6
  fff1012e10:	84c6                	mv	s1,a7
  fff1012e12:	0af71663          	bne	a4,a5,fff1012ebe <spl+0x2e3e>
  fff1012e16:	8536                	mv	a0,a3
  fff1012e18:	fb5ff0ef          	jal	ra,fff1012dcc <spl+0x2d4c>
  fff1012e1c:	842a                	mv	s0,a0
  fff1012e1e:	8a22                	mv	s4,s0
  fff1012e20:	0c044563          	bltz	s0,fff1012eea <spl+0x2e6a>
  fff1012e24:	0034                	addi	a3,sp,8
  fff1012e26:	8662                	mv	a2,s8
  fff1012e28:	85de                	mv	a1,s7
  fff1012e2a:	855a                	mv	a0,s6
  fff1012e2c:	7fa000ef          	jal	ra,fff1013626 <spl+0x35a6>
  fff1012e30:	8a2a                	mv	s4,a0
  fff1012e32:	ed45                	bnez	a0,fff1012eea <spl+0x2e6a>
  fff1012e34:	6522                	ld	a0,8(sp)
  fff1012e36:	1cc000ef          	jal	ra,fff1013002 <spl+0x2f82>
  fff1012e3a:	333337b7          	lui	a5,0x33333
  fff1012e3e:	555556b7          	lui	a3,0x55555
  fff1012e42:	33378793          	addi	a5,a5,819 # 33333333 <ROM_BASE-0xffbdcdcccd>
  fff1012e46:	55568693          	addi	a3,a3,1365 # 55555555 <ROM_BASE-0xff9babaaab>
  fff1012e4a:	078a                	slli	a5,a5,0x2
  fff1012e4c:	0686                	slli	a3,a3,0x1
  fff1012e4e:	00f9f7b3          	and	a5,s3,a5
  fff1012e52:	00d9f6b3          	and	a3,s3,a3
  fff1012e56:	00f037b3          	snez	a5,a5
  fff1012e5a:	0786                	slli	a5,a5,0x1
  fff1012e5c:	00d036b3          	snez	a3,a3
  fff1012e60:	9ebd                	addw	a3,a3,a5
  fff1012e62:	0f0f17b7          	lui	a5,0xf0f1
  fff1012e66:	f0f78793          	addi	a5,a5,-241 # f0f0f0f <ROM_BASE-0xffe1f1f0f1>
  fff1012e6a:	0792                	slli	a5,a5,0x4
  fff1012e6c:	00f9f7b3          	and	a5,s3,a5
  fff1012e70:	00f037b3          	snez	a5,a5
  fff1012e74:	078a                	slli	a5,a5,0x2
  fff1012e76:	9ebd                	addw	a3,a3,a5
  fff1012e78:	0ff017b7          	lui	a5,0xff01
  fff1012e7c:	0792                	slli	a5,a5,0x4
  fff1012e7e:	f0078793          	addi	a5,a5,-256 # ff00f00 <ROM_BASE-0xffe110f100>
  fff1012e82:	00f9f7b3          	and	a5,s3,a5
  fff1012e86:	00f037b3          	snez	a5,a5
  fff1012e8a:	078e                	slli	a5,a5,0x3
  fff1012e8c:	9ebd                	addw	a3,a3,a5
  fff1012e8e:	0ffff7b7          	lui	a5,0xffff
  fff1012e92:	0792                	slli	a5,a5,0x4
  fff1012e94:	00f9f7b3          	and	a5,s3,a5
  fff1012e98:	00f037b3          	snez	a5,a5
  fff1012e9c:	0792                	slli	a5,a5,0x4
  fff1012e9e:	9fb5                	addw	a5,a5,a3
  fff1012ea0:	01552023          	sw	s5,0(a0)
  fff1012ea4:	01353c23          	sd	s3,24(a0)
  fff1012ea8:	d11c                	sw	a5,32(a0)
  fff1012eaa:	01253823          	sd	s2,16(a0)
  fff1012eae:	00050423          	sb	zero,8(a0)
  fff1012eb2:	67a2                	ld	a5,8(sp)
  fff1012eb4:	c140                	sw	s0,4(a0)
  fff1012eb6:	e15c                	sd	a5,128(a0)
  fff1012eb8:	67a2                	ld	a5,8(sp)
  fff1012eba:	e09c                	sd	a5,0(s1)
  fff1012ebc:	a03d                	j	fff1012eea <spl+0x2e6a>
  fff1012ebe:	002c                	addi	a1,sp,8
  fff1012ec0:	4559                	li	a0,22
  fff1012ec2:	843a                	mv	s0,a4
  fff1012ec4:	301000ef          	jal	ra,fff10139c4 <spl+0x3944>
  fff1012ec8:	8a2a                	mv	s4,a0
  fff1012eca:	e525                	bnez	a0,fff1012f32 <spl+0x2eb2>
  fff1012ecc:	67a2                	ld	a5,8(sp)
  fff1012ece:	0107ba03          	ld	s4,16(a5) # ffff010 <ROM_BASE-0xffe1010ff0>
  fff1012ed2:	67a2                	ld	a5,8(sp)
  fff1012ed4:	fa8a0a13          	addi	s4,s4,-88
  fff1012ed8:	058a0713          	addi	a4,s4,88
  fff1012edc:	07c1                	addi	a5,a5,16
  fff1012ede:	02f71463          	bne	a4,a5,fff1012f06 <spl+0x2e86>
  fff1012ee2:	5a79                	li	s4,-2
  fff1012ee4:	57f9                	li	a5,-2
  fff1012ee6:	f2fa0ce3          	beq	s4,a5,fff1012e1e <spl+0x2d9e>
  fff1012eea:	70a6                	ld	ra,104(sp)
  fff1012eec:	7406                	ld	s0,96(sp)
  fff1012eee:	64e6                	ld	s1,88(sp)
  fff1012ef0:	6946                	ld	s2,80(sp)
  fff1012ef2:	69a6                	ld	s3,72(sp)
  fff1012ef4:	7ae2                	ld	s5,56(sp)
  fff1012ef6:	7b42                	ld	s6,48(sp)
  fff1012ef8:	7ba2                	ld	s7,40(sp)
  fff1012efa:	7c02                	ld	s8,32(sp)
  fff1012efc:	6ce2                	ld	s9,24(sp)
  fff1012efe:	8552                	mv	a0,s4
  fff1012f00:	6a06                	ld	s4,64(sp)
  fff1012f02:	6165                	addi	sp,sp,112
  fff1012f04:	8082                	ret
  fff1012f06:	8552                	mv	a0,s4
  fff1012f08:	0fa000ef          	jal	ra,fff1013002 <spl+0x2f82>
  fff1012f0c:	411c                	lw	a5,0(a0)
  fff1012f0e:	8caa                	mv	s9,a0
  fff1012f10:	01579e63          	bne	a5,s5,fff1012f2c <spl+0x2eac>
  fff1012f14:	415c                	lw	a5,4(a0)
  fff1012f16:	00879b63          	bne	a5,s0,fff1012f2c <spl+0x2eac>
  fff1012f1a:	8556                	mv	a0,s5
  fff1012f1c:	eb1ff0ef          	jal	ra,fff1012dcc <spl+0x2d4c>
  fff1012f20:	8a2a                	mv	s4,a0
  fff1012f22:	fc0541e3          	bltz	a0,fff1012ee4 <spl+0x2e64>
  fff1012f26:	00aca223          	sw	a0,4(s9)
  fff1012f2a:	bdd5                	j	fff1012e1e <spl+0x2d9e>
  fff1012f2c:	058a3a03          	ld	s4,88(s4)
  fff1012f30:	b74d                	j	fff1012ed2 <spl+0x2e52>
  fff1012f32:	ee0556e3          	bgez	a0,fff1012e1e <spl+0x2d9e>
  fff1012f36:	b77d                	j	fff1012ee4 <spl+0x2e64>
  fff1012f38:	7159                	addi	sp,sp,-112
  fff1012f3a:	f0a2                	sd	s0,96(sp)
  fff1012f3c:	eca6                	sd	s1,88(sp)
  fff1012f3e:	e8ca                	sd	s2,80(sp)
  fff1012f40:	e4ce                	sd	s3,72(sp)
  fff1012f42:	e0d2                	sd	s4,64(sp)
  fff1012f44:	fc56                	sd	s5,56(sp)
  fff1012f46:	f486                	sd	ra,104(sp)
  fff1012f48:	8a36                	mv	s4,a3
  fff1012f4a:	6514                	ld	a3,8(a0)
  fff1012f4c:	01010913          	addi	s2,sp,16
  fff1012f50:	842a                	mv	s0,a0
  fff1012f52:	89ae                	mv	s3,a1
  fff1012f54:	8aba                	mv	s5,a4
  fff1012f56:	45f9                	li	a1,30
  fff1012f58:	8732                	mv	a4,a2
  fff1012f5a:	854a                	mv	a0,s2
  fff1012f5c:	00004617          	auipc	a2,0x4
  fff1012f60:	69460613          	addi	a2,a2,1684 # fff10175f0 <spl+0x7570>
  fff1012f64:	e43e                	sd	a5,8(sp)
  fff1012f66:	e042                	sd	a6,0(sp)
  fff1012f68:	84c6                	mv	s1,a7
  fff1012f6a:	afeff0ef          	jal	ra,fff1012268 <spl+0x21e8>
  fff1012f6e:	854a                	mv	a0,s2
  fff1012f70:	de3fe0ef          	jal	ra,fff1011d52 <spl+0x1cd2>
  fff1012f74:	c915                	beqz	a0,fff1012fa8 <spl+0x2f28>
  fff1012f76:	6802                	ld	a6,0(sp)
  fff1012f78:	67a2                	ld	a5,8(sp)
  fff1012f7a:	862a                	mv	a2,a0
  fff1012f7c:	88a6                	mv	a7,s1
  fff1012f7e:	8522                	mv	a0,s0
  fff1012f80:	8756                	mv	a4,s5
  fff1012f82:	86d2                	mv	a3,s4
  fff1012f84:	85ce                	mv	a1,s3
  fff1012f86:	e65ff0ef          	jal	ra,fff1012dea <spl+0x2d6a>
  fff1012f8a:	842a                	mv	s0,a0
  fff1012f8c:	e501                	bnez	a0,fff1012f94 <spl+0x2f14>
  fff1012f8e:	6088                	ld	a0,0(s1)
  fff1012f90:	0ea000ef          	jal	ra,fff101307a <spl+0x2ffa>
  fff1012f94:	70a6                	ld	ra,104(sp)
  fff1012f96:	8522                	mv	a0,s0
  fff1012f98:	7406                	ld	s0,96(sp)
  fff1012f9a:	64e6                	ld	s1,88(sp)
  fff1012f9c:	6946                	ld	s2,80(sp)
  fff1012f9e:	69a6                	ld	s3,72(sp)
  fff1012fa0:	6a06                	ld	s4,64(sp)
  fff1012fa2:	7ae2                	ld	s5,56(sp)
  fff1012fa4:	6165                	addi	sp,sp,112
  fff1012fa6:	8082                	ret
  fff1012fa8:	5451                	li	s0,-12
  fff1012faa:	b7ed                	j	fff1012f94 <spl+0x2f14>
  fff1012fac:	0205f593          	andi	a1,a1,32
  fff1012fb0:	cd9d                	beqz	a1,fff1012fee <spl+0x2f6e>
  fff1012fb2:	1101                	addi	sp,sp,-32
  fff1012fb4:	e822                	sd	s0,16(sp)
  fff1012fb6:	01f5041b          	addiw	s0,a0,31
  fff1012fba:	9801                	andi	s0,s0,-32
  fff1012fbc:	2401                	sext.w	s0,s0
  fff1012fbe:	85a2                	mv	a1,s0
  fff1012fc0:	02000513          	li	a0,32
  fff1012fc4:	e426                	sd	s1,8(sp)
  fff1012fc6:	ec06                	sd	ra,24(sp)
  fff1012fc8:	9aafe0ef          	jal	ra,fff1011172 <spl+0x10f2>
  fff1012fcc:	84aa                	mv	s1,a0
  fff1012fce:	c911                	beqz	a0,fff1012fe2 <spl+0x2f62>
  fff1012fd0:	4581                	li	a1,0
  fff1012fd2:	8622                	mv	a2,s0
  fff1012fd4:	8bdfd0ef          	jal	ra,fff1010890 <spl+0x810>
  fff1012fd8:	008485b3          	add	a1,s1,s0
  fff1012fdc:	8526                	mv	a0,s1
  fff1012fde:	c2cfd0ef          	jal	ra,fff101040a <spl+0x38a>
  fff1012fe2:	60e2                	ld	ra,24(sp)
  fff1012fe4:	6442                	ld	s0,16(sp)
  fff1012fe6:	8526                	mv	a0,s1
  fff1012fe8:	64a2                	ld	s1,8(sp)
  fff1012fea:	6105                	addi	sp,sp,32
  fff1012fec:	8082                	ret
  fff1012fee:	85aa                	mv	a1,a0
  fff1012ff0:	4505                	li	a0,1
  fff1012ff2:	98afe06f          	j	fff101117c <spl+0x10fc>
  fff1012ff6:	c111                	beqz	a0,fff1012ffa <spl+0x2f7a>
  fff1012ff8:	6908                	ld	a0,16(a0)
  fff1012ffa:	8082                	ret
  fff1012ffc:	c111                	beqz	a0,fff1013000 <spl+0x2f80>
  fff1012ffe:	6d08                	ld	a0,24(a0)
  fff1013000:	8082                	ret
  fff1013002:	c111                	beqz	a0,fff1013006 <spl+0x2f86>
  fff1013004:	7108                	ld	a0,32(a0)
  fff1013006:	8082                	ret
  fff1013008:	c111                	beqz	a0,fff101300c <spl+0x2f8c>
  fff101300a:	7d08                	ld	a0,56(a0)
  fff101300c:	8082                	ret
  fff101300e:	c111                	beqz	a0,fff1013012 <spl+0x2f92>
  fff1013010:	6528                	ld	a0,72(a0)
  fff1013012:	8082                	ret
  fff1013014:	c111                	beqz	a0,fff1013018 <spl+0x2f98>
  fff1013016:	6928                	ld	a0,80(a0)
  fff1013018:	8082                	ret
  fff101301a:	7908                	ld	a0,48(a0)
  fff101301c:	8082                	ret
  fff101301e:	7508                	ld	a0,40(a0)
  fff1013020:	8082                	ret
  fff1013022:	613c                	ld	a5,64(a0)
  fff1013024:	679c                	ld	a5,8(a5)
  fff1013026:	4788                	lw	a0,8(a5)
  fff1013028:	8082                	ret
  fff101302a:	7179                	addi	sp,sp,-48
  fff101302c:	ec26                	sd	s1,24(sp)
  fff101302e:	e84a                	sd	s2,16(sp)
  fff1013030:	e44e                	sd	s3,8(sp)
  fff1013032:	f406                	sd	ra,40(sp)
  fff1013034:	f022                	sd	s0,32(sp)
  fff1013036:	00063023          	sd	zero,0(a2)
  fff101303a:	7520                	ld	s0,104(a0)
  fff101303c:	89ae                	mv	s3,a1
  fff101303e:	8932                	mv	s2,a2
  fff1013040:	f8840413          	addi	s0,s0,-120
  fff1013044:	06850493          	addi	s1,a0,104
  fff1013048:	07840793          	addi	a5,s0,120
  fff101304c:	00979463          	bne	a5,s1,fff1013054 <spl+0x2fd4>
  fff1013050:	5535                	li	a0,-19
  fff1013052:	a809                	j	fff1013064 <spl+0x2fe4>
  fff1013054:	8522                	mv	a0,s0
  fff1013056:	fcdff0ef          	jal	ra,fff1013022 <spl+0x2fa2>
  fff101305a:	01351c63          	bne	a0,s3,fff1013072 <spl+0x2ff2>
  fff101305e:	00893023          	sd	s0,0(s2)
  fff1013062:	4501                	li	a0,0
  fff1013064:	70a2                	ld	ra,40(sp)
  fff1013066:	7402                	ld	s0,32(sp)
  fff1013068:	64e2                	ld	s1,24(sp)
  fff101306a:	6942                	ld	s2,16(sp)
  fff101306c:	69a2                	ld	s3,8(sp)
  fff101306e:	6145                	addi	sp,sp,48
  fff1013070:	8082                	ret
  fff1013072:	7c20                	ld	s0,120(s0)
  fff1013074:	f8840413          	addi	s0,s0,-120
  fff1013078:	bfc1                	j	fff1013048 <spl+0x2fc8>
  fff101307a:	08852783          	lw	a5,136(a0)
  fff101307e:	0807e793          	ori	a5,a5,128
  fff1013082:	08f52423          	sw	a5,136(a0)
  fff1013086:	8082                	ret
  fff1013088:	fd0c                	sd	a1,56(a0)
  fff101308a:	8082                	ret
  fff101308c:	e92c                	sd	a1,80(a0)
  fff101308e:	8082                	ret
  fff1013090:	e52c                	sd	a1,72(a0)
  fff1013092:	8082                	ret
  fff1013094:	0e050163          	beqz	a0,fff1013176 <spl+0x30f6>
  fff1013098:	1101                	addi	sp,sp,-32
  fff101309a:	e822                	sd	s0,16(sp)
  fff101309c:	e426                	sd	s1,8(sp)
  fff101309e:	ec06                	sd	ra,24(sp)
  fff10130a0:	e04a                	sd	s2,0(sp)
  fff10130a2:	08852703          	lw	a4,136(a0)
  fff10130a6:	6485                	lui	s1,0x1
  fff10130a8:	842a                	mv	s0,a0
  fff10130aa:	8f65                	and	a4,a4,s1
  fff10130ac:	2701                	sext.w	a4,a4
  fff10130ae:	c319                	beqz	a4,fff10130b4 <spl+0x3034>
  fff10130b0:	4501                	li	a0,0
  fff10130b2:	a02d                	j	fff10130dc <spl+0x305c>
  fff10130b4:	7908                	ld	a0,48(a0)
  fff10130b6:	e90d                	bnez	a0,fff10130e8 <spl+0x3068>
  fff10130b8:	00043903          	ld	s2,0(s0)
  fff10130bc:	05892783          	lw	a5,88(s2)
  fff10130c0:	c3a1                	beqz	a5,fff1013100 <spl+0x3080>
  fff10130c2:	8522                	mv	a0,s0
  fff10130c4:	f45ff0ef          	jal	ra,fff1013008 <spl+0x2f88>
  fff10130c8:	ed05                	bnez	a0,fff1013100 <spl+0x3080>
  fff10130ca:	07092583          	lw	a1,112(s2)
  fff10130ce:	05892503          	lw	a0,88(s2)
  fff10130d2:	edbff0ef          	jal	ra,fff1012fac <spl+0x2f2c>
  fff10130d6:	85aa                	mv	a1,a0
  fff10130d8:	e10d                	bnez	a0,fff10130fa <spl+0x307a>
  fff10130da:	5551                	li	a0,-12
  fff10130dc:	60e2                	ld	ra,24(sp)
  fff10130de:	6442                	ld	s0,16(sp)
  fff10130e0:	64a2                	ld	s1,8(sp)
  fff10130e2:	6902                	ld	s2,0(sp)
  fff10130e4:	6105                	addi	sp,sp,32
  fff10130e6:	8082                	ret
  fff10130e8:	fadff0ef          	jal	ra,fff1013094 <spl+0x3014>
  fff10130ec:	f965                	bnez	a0,fff10130dc <spl+0x305c>
  fff10130ee:	08842783          	lw	a5,136(s0)
  fff10130f2:	8fe5                	and	a5,a5,s1
  fff10130f4:	2781                	sext.w	a5,a5
  fff10130f6:	d3e9                	beqz	a5,fff10130b8 <spl+0x3038>
  fff10130f8:	bf65                	j	fff10130b0 <spl+0x3030>
  fff10130fa:	8522                	mv	a0,s0
  fff10130fc:	f8dff0ef          	jal	ra,fff1013088 <spl+0x3008>
  fff1013100:	603c                	ld	a5,64(s0)
  fff1013102:	679c                	ld	a5,8(a5)
  fff1013104:	53e4                	lw	s1,100(a5)
  fff1013106:	c085                	beqz	s1,fff1013126 <spl+0x30a6>
  fff1013108:	8522                	mv	a0,s0
  fff101310a:	f05ff0ef          	jal	ra,fff101300e <spl+0x2f8e>
  fff101310e:	ed01                	bnez	a0,fff1013126 <spl+0x30a6>
  fff1013110:	603c                	ld	a5,64(s0)
  fff1013112:	8526                	mv	a0,s1
  fff1013114:	679c                	ld	a5,8(a5)
  fff1013116:	5bec                	lw	a1,116(a5)
  fff1013118:	e95ff0ef          	jal	ra,fff1012fac <spl+0x2f2c>
  fff101311c:	85aa                	mv	a1,a0
  fff101311e:	dd55                	beqz	a0,fff10130da <spl+0x305a>
  fff1013120:	8522                	mv	a0,s0
  fff1013122:	f6fff0ef          	jal	ra,fff1013090 <spl+0x3010>
  fff1013126:	781c                	ld	a5,48(s0)
  fff1013128:	c795                	beqz	a5,fff1013154 <spl+0x30d4>
  fff101312a:	6398                	ld	a4,0(a5)
  fff101312c:	5324                	lw	s1,96(a4)
  fff101312e:	e489                	bnez	s1,fff1013138 <spl+0x30b8>
  fff1013130:	63bc                	ld	a5,64(a5)
  fff1013132:	679c                	ld	a5,8(a5)
  fff1013134:	57e4                	lw	s1,108(a5)
  fff1013136:	cc99                	beqz	s1,fff1013154 <spl+0x30d4>
  fff1013138:	8522                	mv	a0,s0
  fff101313a:	edbff0ef          	jal	ra,fff1013014 <spl+0x2f94>
  fff101313e:	e919                	bnez	a0,fff1013154 <spl+0x30d4>
  fff1013140:	07092583          	lw	a1,112(s2)
  fff1013144:	8526                	mv	a0,s1
  fff1013146:	e67ff0ef          	jal	ra,fff1012fac <spl+0x2f2c>
  fff101314a:	85aa                	mv	a1,a0
  fff101314c:	d559                	beqz	a0,fff10130da <spl+0x305a>
  fff101314e:	8522                	mv	a0,s0
  fff1013150:	f3dff0ef          	jal	ra,fff101308c <spl+0x300c>
  fff1013154:	601c                	ld	a5,0(s0)
  fff1013156:	7f9c                	ld	a5,56(a5)
  fff1013158:	eb81                	bnez	a5,fff1013168 <spl+0x30e8>
  fff101315a:	08842783          	lw	a5,136(s0)
  fff101315e:	6705                	lui	a4,0x1
  fff1013160:	8fd9                	or	a5,a5,a4
  fff1013162:	08f42423          	sw	a5,136(s0)
  fff1013166:	b7a9                	j	fff10130b0 <spl+0x3030>
  fff1013168:	6858                	ld	a4,144(s0)
  fff101316a:	fe0748e3          	bltz	a4,fff101315a <spl+0x30da>
  fff101316e:	8522                	mv	a0,s0
  fff1013170:	9782                	jalr	a5
  fff1013172:	d565                	beqz	a0,fff101315a <spl+0x30da>
  fff1013174:	b7a5                	j	fff10130dc <spl+0x305c>
  fff1013176:	5529                	li	a0,-22
  fff1013178:	8082                	ret
  fff101317a:	1101                	addi	sp,sp,-32
  fff101317c:	e822                	sd	s0,16(sp)
  fff101317e:	ec06                	sd	ra,24(sp)
  fff1013180:	e426                	sd	s1,8(sp)
  fff1013182:	e04a                	sd	s2,0(sp)
  fff1013184:	5429                	li	s0,-22
  fff1013186:	c519                	beqz	a0,fff1013194 <spl+0x3114>
  fff1013188:	08852783          	lw	a5,136(a0)
  fff101318c:	84aa                	mv	s1,a0
  fff101318e:	8b85                	andi	a5,a5,1
  fff1013190:	cb89                	beqz	a5,fff10131a2 <spl+0x3122>
  fff1013192:	4401                	li	s0,0
  fff1013194:	60e2                	ld	ra,24(sp)
  fff1013196:	8522                	mv	a0,s0
  fff1013198:	6442                	ld	s0,16(sp)
  fff101319a:	64a2                	ld	s1,8(sp)
  fff101319c:	6902                	ld	s2,0(sp)
  fff101319e:	6105                	addi	sp,sp,32
  fff10131a0:	8082                	ret
  fff10131a2:	00053903          	ld	s2,0(a0)
  fff10131a6:	eefff0ef          	jal	ra,fff1013094 <spl+0x3014>
  fff10131aa:	842a                	mv	s0,a0
  fff10131ac:	e525                	bnez	a0,fff1013214 <spl+0x3194>
  fff10131ae:	7888                	ld	a0,48(s1)
  fff10131b0:	ed15                	bnez	a0,fff10131ec <spl+0x316c>
  fff10131b2:	0884a783          	lw	a5,136(s1) # 1088 <ROM_BASE-0xfff100ef78>
  fff10131b6:	0017e793          	ori	a5,a5,1
  fff10131ba:	08f4a423          	sw	a5,136(s1)
  fff10131be:	789c                	ld	a5,48(s1)
  fff10131c0:	ef9d                	bnez	a5,fff10131fe <spl+0x317e>
  fff10131c2:	8526                	mv	a0,s1
  fff10131c4:	4b1000ef          	jal	ra,fff1013e74 <spl+0x3df4>
  fff10131c8:	842a                	mv	s0,a0
  fff10131ca:	e529                	bnez	a0,fff1013214 <spl+0x3194>
  fff10131cc:	789c                	ld	a5,48(s1)
  fff10131ce:	ef85                	bnez	a5,fff1013206 <spl+0x3186>
  fff10131d0:	02093783          	ld	a5,32(s2)
  fff10131d4:	e7b1                	bnez	a5,fff1013220 <spl+0x31a0>
  fff10131d6:	8526                	mv	a0,s1
  fff10131d8:	4d3000ef          	jal	ra,fff1013eaa <spl+0x3e2a>
  fff10131dc:	842a                	mv	s0,a0
  fff10131de:	e91d                	bnez	a0,fff1013214 <spl+0x3194>
  fff10131e0:	789c                	ld	a5,48(s1)
  fff10131e2:	dbc5                	beqz	a5,fff1013192 <spl+0x3112>
  fff10131e4:	8526                	mv	a0,s1
  fff10131e6:	e3dff0ef          	jal	ra,fff1013022 <spl+0x2fa2>
  fff10131ea:	b76d                	j	fff1013194 <spl+0x3114>
  fff10131ec:	f8fff0ef          	jal	ra,fff101317a <spl+0x30fa>
  fff10131f0:	842a                	mv	s0,a0
  fff10131f2:	e10d                	bnez	a0,fff1013214 <spl+0x3194>
  fff10131f4:	0884a783          	lw	a5,136(s1)
  fff10131f8:	8b85                	andi	a5,a5,1
  fff10131fa:	dfc5                	beqz	a5,fff10131b2 <spl+0x3132>
  fff10131fc:	bf59                	j	fff1013192 <spl+0x3112>
  fff10131fe:	8526                	mv	a0,s1
  fff1013200:	e23ff0ef          	jal	ra,fff1013022 <spl+0x2fa2>
  fff1013204:	bf7d                	j	fff10131c2 <spl+0x3142>
  fff1013206:	639c                	ld	a5,0(a5)
  fff1013208:	67bc                	ld	a5,72(a5)
  fff101320a:	d3f9                	beqz	a5,fff10131d0 <spl+0x3150>
  fff101320c:	8526                	mv	a0,s1
  fff101320e:	9782                	jalr	a5
  fff1013210:	842a                	mv	s0,a0
  fff1013212:	dd5d                	beqz	a0,fff10131d0 <spl+0x3150>
  fff1013214:	0884a783          	lw	a5,136(s1)
  fff1013218:	9bf9                	andi	a5,a5,-2
  fff101321a:	08f4a423          	sw	a5,136(s1)
  fff101321e:	bf9d                	j	fff1013194 <spl+0x3114>
  fff1013220:	8526                	mv	a0,s1
  fff1013222:	9782                	jalr	a5
  fff1013224:	842a                	mv	s0,a0
  fff1013226:	d945                	beqz	a0,fff10131d6 <spl+0x3156>
  fff1013228:	b7f5                	j	fff1013214 <spl+0x3194>
  fff101322a:	e90c                	sd	a1,16(a0)
  fff101322c:	8082                	ret
  fff101322e:	ed0c                	sd	a1,24(a0)
  fff1013230:	8082                	ret
  fff1013232:	f10c                	sd	a1,32(a0)
  fff1013234:	8082                	ret
  fff1013236:	711d                	addi	sp,sp,-96
  fff1013238:	e0ca                	sd	s2,64(sp)
  fff101323a:	fc4e                	sd	s3,56(sp)
  fff101323c:	f852                	sd	s4,48(sp)
  fff101323e:	f456                	sd	s5,40(sp)
  fff1013240:	f05a                	sd	s6,32(sp)
  fff1013242:	ec5e                	sd	s7,24(sp)
  fff1013244:	e862                	sd	s8,16(sp)
  fff1013246:	ec86                	sd	ra,88(sp)
  fff1013248:	e8a2                	sd	s0,80(sp)
  fff101324a:	e4a6                	sd	s1,72(sp)
  fff101324c:	892a                	mv	s2,a0
  fff101324e:	89ae                	mv	s3,a1
  fff1013250:	8b32                	mv	s6,a2
  fff1013252:	8ab6                	mv	s5,a3
  fff1013254:	8c3a                	mv	s8,a4
  fff1013256:	8bbe                	mv	s7,a5
  fff1013258:	8a42                	mv	s4,a6
  fff101325a:	00080463          	beqz	a6,fff1013262 <spl+0x31e2>
  fff101325e:	00083023          	sd	zero,0(a6)
  fff1013262:	54a9                	li	s1,-22
  fff1013264:	020b0163          	beqz	s6,fff1013286 <spl+0x3206>
  fff1013268:	0089a503          	lw	a0,8(s3)
  fff101326c:	002c                	addi	a1,sp,8
  fff101326e:	756000ef          	jal	ra,fff10139c4 <spl+0x3944>
  fff1013272:	84aa                	mv	s1,a0
  fff1013274:	e909                	bnez	a0,fff1013286 <spl+0x3206>
  fff1013276:	09800593          	li	a1,152
  fff101327a:	4505                	li	a0,1
  fff101327c:	f01fd0ef          	jal	ra,fff101117c <spl+0x10fc>
  fff1013280:	842a                	mv	s0,a0
  fff1013282:	ed19                	bnez	a0,fff10132a0 <spl+0x3220>
  fff1013284:	54d1                	li	s1,-12
  fff1013286:	60e6                	ld	ra,88(sp)
  fff1013288:	6446                	ld	s0,80(sp)
  fff101328a:	6906                	ld	s2,64(sp)
  fff101328c:	79e2                	ld	s3,56(sp)
  fff101328e:	7a42                	ld	s4,48(sp)
  fff1013290:	7aa2                	ld	s5,40(sp)
  fff1013292:	7b02                	ld	s6,32(sp)
  fff1013294:	6be2                	ld	s7,24(sp)
  fff1013296:	6c42                	ld	s8,16(sp)
  fff1013298:	8526                	mv	a0,s1
  fff101329a:	64a6                	ld	s1,72(sp)
  fff101329c:	6125                	addi	sp,sp,96
  fff101329e:	8082                	ret
  fff10132a0:	06850793          	addi	a5,a0,104
  fff10132a4:	07850493          	addi	s1,a0,120
  fff10132a8:	f53c                	sd	a5,104(a0)
  fff10132aa:	f93c                	sd	a5,112(a0)
  fff10132ac:	05850793          	addi	a5,a0,88
  fff10132b0:	ed3c                	sd	a5,88(a0)
  fff10132b2:	f13c                	sd	a5,96(a0)
  fff10132b4:	fd24                	sd	s1,120(a0)
  fff10132b6:	e144                	sd	s1,128(a0)
  fff10132b8:	85d6                	mv	a1,s5
  fff10132ba:	f71ff0ef          	jal	ra,fff101322a <spl+0x31aa>
  fff10132be:	01343023          	sd	s3,0(s0)
  fff10132c2:	6522                	ld	a0,8(sp)
  fff10132c4:	57fd                	li	a5,-1
  fff10132c6:	03843423          	sd	s8,40(s0)
  fff10132ca:	01643423          	sd	s6,8(s0)
  fff10132ce:	09743823          	sd	s7,144(s0)
  fff10132d2:	03243823          	sd	s2,48(s0)
  fff10132d6:	e028                	sd	a0,64(s0)
  fff10132d8:	08f42623          	sw	a5,140(s0)
  fff10132dc:	651c                	ld	a5,8(a0)
  fff10132de:	5bfc                	lw	a5,116(a5)
  fff10132e0:	8b89                	andi	a5,a5,2
  fff10132e2:	e789                	bnez	a5,fff10132ec <spl+0x326c>
  fff10132e4:	075000ef          	jal	ra,fff1013b58 <spl+0x3ad8>
  fff10132e8:	08a42623          	sw	a0,140(s0)
  fff10132ec:	05c9a783          	lw	a5,92(s3)
  fff10132f0:	c39d                	beqz	a5,fff1013316 <spl+0x3296>
  fff10132f2:	020a9263          	bnez	s5,fff1013316 <spl+0x3296>
  fff10132f6:	08842783          	lw	a5,136(s0)
  fff10132fa:	4505                	li	a0,1
  fff10132fc:	0027e793          	ori	a5,a5,2
  fff1013300:	08f42423          	sw	a5,136(s0)
  fff1013304:	05c9a583          	lw	a1,92(s3)
  fff1013308:	e75fd0ef          	jal	ra,fff101117c <spl+0x10fc>
  fff101330c:	85aa                	mv	a1,a0
  fff101330e:	d93d                	beqz	a0,fff1013284 <spl+0x3204>
  fff1013310:	8522                	mv	a0,s0
  fff1013312:	f19ff0ef          	jal	ra,fff101322a <spl+0x31aa>
  fff1013316:	67a2                	ld	a5,8(sp)
  fff1013318:	679c                	ld	a5,8(a5)
  fff101331a:	57ac                	lw	a1,104(a5)
  fff101331c:	cd99                	beqz	a1,fff101333a <spl+0x32ba>
  fff101331e:	08842783          	lw	a5,136(s0)
  fff1013322:	4505                	li	a0,1
  fff1013324:	0107e793          	ori	a5,a5,16
  fff1013328:	08f42423          	sw	a5,136(s0)
  fff101332c:	e51fd0ef          	jal	ra,fff101117c <spl+0x10fc>
  fff1013330:	85aa                	mv	a1,a0
  fff1013332:	d929                	beqz	a0,fff1013284 <spl+0x3204>
  fff1013334:	8522                	mv	a0,s0
  fff1013336:	efdff0ef          	jal	ra,fff1013232 <spl+0x31b2>
  fff101333a:	04090263          	beqz	s2,fff101337e <spl+0x32fe>
  fff101333e:	00093783          	ld	a5,0(s2)
  fff1013342:	53ec                	lw	a1,100(a5)
  fff1013344:	e591                	bnez	a1,fff1013350 <spl+0x32d0>
  fff1013346:	04093783          	ld	a5,64(s2)
  fff101334a:	679c                	ld	a5,8(a5)
  fff101334c:	5bac                	lw	a1,112(a5)
  fff101334e:	cd99                	beqz	a1,fff101336c <spl+0x32ec>
  fff1013350:	08842783          	lw	a5,136(s0)
  fff1013354:	4505                	li	a0,1
  fff1013356:	0087e793          	ori	a5,a5,8
  fff101335a:	08f42423          	sw	a5,136(s0)
  fff101335e:	e1ffd0ef          	jal	ra,fff101117c <spl+0x10fc>
  fff1013362:	85aa                	mv	a1,a0
  fff1013364:	d105                	beqz	a0,fff1013284 <spl+0x3204>
  fff1013366:	8522                	mv	a0,s0
  fff1013368:	ec7ff0ef          	jal	ra,fff101322e <spl+0x31ae>
  fff101336c:	07093783          	ld	a5,112(s2)
  fff1013370:	06890713          	addi	a4,s2,104
  fff1013374:	06993823          	sd	s1,112(s2)
  fff1013378:	fc38                	sd	a4,120(s0)
  fff101337a:	e05c                	sd	a5,128(s0)
  fff101337c:	e384                	sd	s1,0(a5)
  fff101337e:	8522                	mv	a0,s0
  fff1013380:	2a7000ef          	jal	ra,fff1013e26 <spl+0x3da6>
  fff1013384:	84aa                	mv	s1,a0
  fff1013386:	f00510e3          	bnez	a0,fff1013286 <spl+0x3206>
  fff101338a:	0189b783          	ld	a5,24(s3)
  fff101338e:	e385                	bnez	a5,fff10133ae <spl+0x332e>
  fff1013390:	02091463          	bnez	s2,fff10133b8 <spl+0x3338>
  fff1013394:	67a2                	ld	a5,8(sp)
  fff1013396:	679c                	ld	a5,8(a5)
  fff1013398:	6b9c                	ld	a5,16(a5)
  fff101339a:	e79d                	bnez	a5,fff10133c8 <spl+0x3348>
  fff101339c:	020a1a63          	bnez	s4,fff10133d0 <spl+0x3350>
  fff10133a0:	08842783          	lw	a5,136(s0)
  fff10133a4:	0407e793          	ori	a5,a5,64
  fff10133a8:	08f42423          	sw	a5,136(s0)
  fff10133ac:	bde9                	j	fff1013286 <spl+0x3206>
  fff10133ae:	8522                	mv	a0,s0
  fff10133b0:	9782                	jalr	a5
  fff10133b2:	dd79                	beqz	a0,fff1013390 <spl+0x3310>
  fff10133b4:	84aa                	mv	s1,a0
  fff10133b6:	bdc1                	j	fff1013286 <spl+0x3206>
  fff10133b8:	00093783          	ld	a5,0(s2)
  fff10133bc:	63bc                	ld	a5,64(a5)
  fff10133be:	dbf9                	beqz	a5,fff1013394 <spl+0x3314>
  fff10133c0:	8522                	mv	a0,s0
  fff10133c2:	9782                	jalr	a5
  fff10133c4:	d961                	beqz	a0,fff1013394 <spl+0x3314>
  fff10133c6:	b7fd                	j	fff10133b4 <spl+0x3334>
  fff10133c8:	8522                	mv	a0,s0
  fff10133ca:	9782                	jalr	a5
  fff10133cc:	d961                	beqz	a0,fff101339c <spl+0x331c>
  fff10133ce:	b7dd                	j	fff10133b4 <spl+0x3334>
  fff10133d0:	008a3023          	sd	s0,0(s4)
  fff10133d4:	b7f1                	j	fff10133a0 <spl+0x3320>
  fff10133d6:	7179                	addi	sp,sp,-48
  fff10133d8:	f022                	sd	s0,32(sp)
  fff10133da:	ec26                	sd	s1,24(sp)
  fff10133dc:	e84a                	sd	s2,16(sp)
  fff10133de:	f406                	sd	ra,40(sp)
  fff10133e0:	84aa                	mv	s1,a0
  fff10133e2:	6208                	ld	a0,0(a2)
  fff10133e4:	892e                	mv	s2,a1
  fff10133e6:	8432                	mv	s0,a2
  fff10133e8:	e436                	sd	a3,8(sp)
  fff10133ea:	0be000ef          	jal	ra,fff10134a8 <spl+0x3428>
  fff10133ee:	c11d                	beqz	a0,fff1013414 <spl+0x3394>
  fff10133f0:	6822                	ld	a6,8(sp)
  fff10133f2:	85aa                	mv	a1,a0
  fff10133f4:	00090563          	beqz	s2,fff10133fe <spl+0x337e>
  fff10133f8:	593c                	lw	a5,112(a0)
  fff10133fa:	8b91                	andi	a5,a5,4
  fff10133fc:	c39d                	beqz	a5,fff1013422 <spl+0x33a2>
  fff10133fe:	6414                	ld	a3,8(s0)
  fff1013400:	6010                	ld	a2,0(s0)
  fff1013402:	7402                	ld	s0,32(sp)
  fff1013404:	70a2                	ld	ra,40(sp)
  fff1013406:	6942                	ld	s2,16(sp)
  fff1013408:	8526                	mv	a0,s1
  fff101340a:	64e2                	ld	s1,24(sp)
  fff101340c:	57fd                	li	a5,-1
  fff101340e:	4701                	li	a4,0
  fff1013410:	6145                	addi	sp,sp,48
  fff1013412:	b515                	j	fff1013236 <spl+0x31b6>
  fff1013414:	5579                	li	a0,-2
  fff1013416:	70a2                	ld	ra,40(sp)
  fff1013418:	7402                	ld	s0,32(sp)
  fff101341a:	64e2                	ld	s1,24(sp)
  fff101341c:	6942                	ld	s2,16(sp)
  fff101341e:	6145                	addi	sp,sp,48
  fff1013420:	8082                	ret
  fff1013422:	557d                	li	a0,-1
  fff1013424:	bfcd                	j	fff1013416 <spl+0x3396>
  fff1013426:	883e                	mv	a6,a5
  fff1013428:	87ba                	mv	a5,a4
  fff101342a:	8736                	mv	a4,a3
  fff101342c:	4681                	li	a3,0
  fff101342e:	b521                	j	fff1013236 <spl+0x31b6>
  fff1013430:	1101                	addi	sp,sp,-32
  fff1013432:	e822                	sd	s0,16(sp)
  fff1013434:	ec06                	sd	ra,24(sp)
  fff1013436:	842a                	mv	s0,a0
  fff1013438:	7908                	ld	a0,48(a0)
  fff101343a:	872e                	mv	a4,a1
  fff101343c:	09042603          	lw	a2,144(s0)
  fff1013440:	09052583          	lw	a1,144(a0)
  fff1013444:	0d81b503          	ld	a0,216(gp)
  fff1013448:	4781                	li	a5,0
  fff101344a:	4801                	li	a6,0
  fff101344c:	00005697          	auipc	a3,0x5
  fff1013450:	e8c68693          	addi	a3,a3,-372 # fff10182d8 <spl+0x8258>
  fff1013454:	ec4fe0ef          	jal	ra,fff1011b18 <spl+0x1a98>
  fff1013458:	57fd                	li	a5,-1
  fff101345a:	85aa                	mv	a1,a0
  fff101345c:	02f50163          	beq	a0,a5,fff101347e <spl+0x33fe>
  fff1013460:	e42a                	sd	a0,8(sp)
  fff1013462:	7808                	ld	a0,48(s0)
  fff1013464:	bbfff0ef          	jal	ra,fff1013022 <spl+0x2fa2>
  fff1013468:	06500793          	li	a5,101
  fff101346c:	65a2                	ld	a1,8(sp)
  fff101346e:	00f51863          	bne	a0,a5,fff101347e <spl+0x33fe>
  fff1013472:	7808                	ld	a0,48(s0)
  fff1013474:	6442                	ld	s0,16(sp)
  fff1013476:	60e2                	ld	ra,24(sp)
  fff1013478:	6105                	addi	sp,sp,32
  fff101347a:	2d50006f          	j	fff1013f4e <spl+0x3ece>
  fff101347e:	60e2                	ld	ra,24(sp)
  fff1013480:	6442                	ld	s0,16(sp)
  fff1013482:	852e                	mv	a0,a1
  fff1013484:	6105                	addi	sp,sp,32
  fff1013486:	8082                	ret
  fff1013488:	1141                	addi	sp,sp,-16
  fff101348a:	e406                	sd	ra,8(sp)
  fff101348c:	fa5ff0ef          	jal	ra,fff1013430 <spl+0x33b0>
  fff1013490:	57fd                	li	a5,-1
  fff1013492:	00f51363          	bne	a0,a5,fff1013498 <spl+0x3418>
  fff1013496:	4501                	li	a0,0
  fff1013498:	60a2                	ld	ra,8(sp)
  fff101349a:	0141                	addi	sp,sp,16
  fff101349c:	8082                	ret
  fff101349e:	4581                	li	a1,0
  fff10134a0:	bf41                	j	fff1013430 <spl+0x33b0>
  fff10134a2:	4581                	li	a1,0
  fff10134a4:	b7d5                	j	fff1013488 <spl+0x3408>
  fff10134a6:	bfe5                	j	fff101349e <spl+0x341e>
  fff10134a8:	1101                	addi	sp,sp,-32
  fff10134aa:	e822                	sd	s0,16(sp)
  fff10134ac:	e426                	sd	s1,8(sp)
  fff10134ae:	00006417          	auipc	s0,0x6
  fff10134b2:	dfa40413          	addi	s0,s0,-518 # fff10192a8 <spl+0x9228>
  fff10134b6:	00006497          	auipc	s1,0x6
  fff10134ba:	94248493          	addi	s1,s1,-1726 # fff1018df8 <spl+0x8d78>
  fff10134be:	8c05                	sub	s0,s0,s1
  fff10134c0:	00004797          	auipc	a5,0x4
  fff10134c4:	5f07b783          	ld	a5,1520(a5) # fff1017ab0 <spl+0x7a30>
  fff10134c8:	840d                	srai	s0,s0,0x3
  fff10134ca:	02f4043b          	mulw	s0,s0,a5
  fff10134ce:	07800793          	li	a5,120
  fff10134d2:	e04a                	sd	s2,0(sp)
  fff10134d4:	ec06                	sd	ra,24(sp)
  fff10134d6:	892a                	mv	s2,a0
  fff10134d8:	02f40433          	mul	s0,s0,a5
  fff10134dc:	9426                	add	s0,s0,s1
  fff10134de:	00941a63          	bne	s0,s1,fff10134f2 <spl+0x3472>
  fff10134e2:	4481                	li	s1,0
  fff10134e4:	60e2                	ld	ra,24(sp)
  fff10134e6:	6442                	ld	s0,16(sp)
  fff10134e8:	6902                	ld	s2,0(sp)
  fff10134ea:	8526                	mv	a0,s1
  fff10134ec:	64a2                	ld	s1,8(sp)
  fff10134ee:	6105                	addi	sp,sp,32
  fff10134f0:	8082                	ret
  fff10134f2:	608c                	ld	a1,0(s1)
  fff10134f4:	854a                	mv	a0,s2
  fff10134f6:	805fe0ef          	jal	ra,fff1011cfa <spl+0x1c7a>
  fff10134fa:	d56d                	beqz	a0,fff10134e4 <spl+0x3464>
  fff10134fc:	07848493          	addi	s1,s1,120
  fff1013500:	bff9                	j	fff10134de <spl+0x345e>
  fff1013502:	872a                	mv	a4,a0
  fff1013504:	00006797          	auipc	a5,0x6
  fff1013508:	25c78793          	addi	a5,a5,604 # fff1019760 <spl+0x96e0>
  fff101350c:	00006517          	auipc	a0,0x6
  fff1013510:	e1c50513          	addi	a0,a0,-484 # fff1019328 <spl+0x92a8>
  fff1013514:	8f89                	sub	a5,a5,a0
  fff1013516:	00004697          	auipc	a3,0x4
  fff101351a:	59a6b683          	ld	a3,1434(a3) # fff1017ab0 <spl+0x7a30>
  fff101351e:	878d                	srai	a5,a5,0x3
  fff1013520:	02d787bb          	mulw	a5,a5,a3
  fff1013524:	07800693          	li	a3,120
  fff1013528:	02d787b3          	mul	a5,a5,a3
  fff101352c:	97aa                	add	a5,a5,a0
  fff101352e:	00a79463          	bne	a5,a0,fff1013536 <spl+0x34b6>
  fff1013532:	4501                	li	a0,0
  fff1013534:	8082                	ret
  fff1013536:	4514                	lw	a3,8(a0)
  fff1013538:	fee68ee3          	beq	a3,a4,fff1013534 <spl+0x34b4>
  fff101353c:	07850513          	addi	a0,a0,120
  fff1013540:	b7fd                	j	fff101352e <spl+0x34ae>
  fff1013542:	7119                	addi	sp,sp,-128
  fff1013544:	f8a2                	sd	s0,112(sp)
  fff1013546:	00006797          	auipc	a5,0x6
  fff101354a:	d6278793          	addi	a5,a5,-670 # fff10192a8 <spl+0x9228>
  fff101354e:	00006417          	auipc	s0,0x6
  fff1013552:	d5a40413          	addi	s0,s0,-678 # fff10192a8 <spl+0x9228>
  fff1013556:	8c1d                	sub	s0,s0,a5
  fff1013558:	8411                	srai	s0,s0,0x4
  fff101355a:	f0ca                	sd	s2,96(sp)
  fff101355c:	ecce                	sd	s3,88(sp)
  fff101355e:	e8d2                	sd	s4,80(sp)
  fff1013560:	e4d6                	sd	s5,72(sp)
  fff1013562:	f862                	sd	s8,48(sp)
  fff1013564:	f466                	sd	s9,40(sp)
  fff1013566:	f06a                	sd	s10,32(sp)
  fff1013568:	ec6e                	sd	s11,24(sp)
  fff101356a:	fc86                	sd	ra,120(sp)
  fff101356c:	f4a6                	sd	s1,104(sp)
  fff101356e:	e0da                	sd	s6,64(sp)
  fff1013570:	fc5e                	sd	s7,56(sp)
  fff1013572:	8a2a                	mv	s4,a0
  fff1013574:	8aae                	mv	s5,a1
  fff1013576:	2401                	sext.w	s0,s0
  fff1013578:	49a9                	li	s3,10
  fff101357a:	4901                	li	s2,0
  fff101357c:	00810c93          	addi	s9,sp,8
  fff1013580:	4d05                	li	s10,1
  fff1013582:	5df9                	li	s11,-2
  fff1013584:	5c55                	li	s8,-11
  fff1013586:	00006b97          	auipc	s7,0x6
  fff101358a:	d22b8b93          	addi	s7,s7,-734 # fff10192a8 <spl+0x9228>
  fff101358e:	4b01                	li	s6,0
  fff1013590:	4481                	li	s1,0
  fff1013592:	028b4c63          	blt	s6,s0,fff10135ca <spl+0x354a>
  fff1013596:	00090463          	beqz	s2,fff101359e <spl+0x351e>
  fff101359a:	01891363          	bne	s2,s8,fff10135a0 <spl+0x3520>
  fff101359e:	8926                	mv	s2,s1
  fff10135a0:	01849563          	bne	s1,s8,fff10135aa <spl+0x352a>
  fff10135a4:	39fd                	addiw	s3,s3,-1
  fff10135a6:	fe0990e3          	bnez	s3,fff1013586 <spl+0x3506>
  fff10135aa:	70e6                	ld	ra,120(sp)
  fff10135ac:	7446                	ld	s0,112(sp)
  fff10135ae:	74a6                	ld	s1,104(sp)
  fff10135b0:	69e6                	ld	s3,88(sp)
  fff10135b2:	6a46                	ld	s4,80(sp)
  fff10135b4:	6aa6                	ld	s5,72(sp)
  fff10135b6:	6b06                	ld	s6,64(sp)
  fff10135b8:	7be2                	ld	s7,56(sp)
  fff10135ba:	7c42                	ld	s8,48(sp)
  fff10135bc:	7ca2                	ld	s9,40(sp)
  fff10135be:	7d02                	ld	s10,32(sp)
  fff10135c0:	6de2                	ld	s11,24(sp)
  fff10135c2:	854a                	mv	a0,s2
  fff10135c4:	7906                	ld	s2,96(sp)
  fff10135c6:	6109                	addi	sp,sp,128
  fff10135c8:	8082                	ret
  fff10135ca:	86e6                	mv	a3,s9
  fff10135cc:	865e                	mv	a2,s7
  fff10135ce:	85d6                	mv	a1,s5
  fff10135d0:	8552                	mv	a0,s4
  fff10135d2:	e05ff0ef          	jal	ra,fff10133d6 <spl+0x3356>
  fff10135d6:	0015079b          	addiw	a5,a0,1
  fff10135da:	00fd7663          	bgeu	s10,a5,fff10135e6 <spl+0x3566>
  fff10135de:	c099                	beqz	s1,fff10135e4 <spl+0x3564>
  fff10135e0:	01b50363          	beq	a0,s11,fff10135e6 <spl+0x3566>
  fff10135e4:	84aa                	mv	s1,a0
  fff10135e6:	2b05                	addiw	s6,s6,1
  fff10135e8:	0bc1                	addi	s7,s7,16
  fff10135ea:	b765                	j	fff1013592 <spl+0x3512>
  fff10135ec:	7179                	addi	sp,sp,-48
  fff10135ee:	f022                	sd	s0,32(sp)
  fff10135f0:	842a                	mv	s0,a0
  fff10135f2:	852e                	mv	a0,a1
  fff10135f4:	ec26                	sd	s1,24(sp)
  fff10135f6:	f406                	sd	ra,40(sp)
  fff10135f8:	e432                	sd	a2,8(sp)
  fff10135fa:	84b6                	mv	s1,a3
  fff10135fc:	e03a                	sd	a4,0(sp)
  fff10135fe:	eabff0ef          	jal	ra,fff10134a8 <spl+0x3428>
  fff1013602:	cd01                	beqz	a0,fff101361a <spl+0x359a>
  fff1013604:	85aa                	mv	a1,a0
  fff1013606:	8522                	mv	a0,s0
  fff1013608:	7402                	ld	s0,32(sp)
  fff101360a:	6782                	ld	a5,0(sp)
  fff101360c:	6622                	ld	a2,8(sp)
  fff101360e:	70a2                	ld	ra,40(sp)
  fff1013610:	8726                	mv	a4,s1
  fff1013612:	64e2                	ld	s1,24(sp)
  fff1013614:	4681                	li	a3,0
  fff1013616:	6145                	addi	sp,sp,48
  fff1013618:	b539                	j	fff1013426 <spl+0x33a6>
  fff101361a:	70a2                	ld	ra,40(sp)
  fff101361c:	7402                	ld	s0,32(sp)
  fff101361e:	64e2                	ld	s1,24(sp)
  fff1013620:	5579                	li	a0,-2
  fff1013622:	6145                	addi	sp,sp,48
  fff1013624:	8082                	ret
  fff1013626:	8736                	mv	a4,a3
  fff1013628:	56fd                	li	a3,-1
  fff101362a:	b7c9                	j	fff10135ec <spl+0x356c>
  fff101362c:	7175                	addi	sp,sp,-144
  fff101362e:	e122                	sd	s0,128(sp)
  fff1013630:	fca6                	sd	s1,120(sp)
  fff1013632:	f4ce                	sd	s3,104(sp)
  fff1013634:	f0d2                	sd	s4,96(sp)
  fff1013636:	e506                	sd	ra,136(sp)
  fff1013638:	f8ca                	sd	s2,112(sp)
  fff101363a:	ecd6                	sd	s5,88(sp)
  fff101363c:	e8da                	sd	s6,80(sp)
  fff101363e:	e4de                	sd	s7,72(sp)
  fff1013640:	e0e2                	sd	s8,64(sp)
  fff1013642:	fc66                	sd	s9,56(sp)
  fff1013644:	f86a                	sd	s10,48(sp)
  fff1013646:	f46e                	sd	s11,40(sp)
  fff1013648:	e42a                	sd	a0,8(sp)
  fff101364a:	842e                	mv	s0,a1
  fff101364c:	84b2                	mv	s1,a2
  fff101364e:	89b6                	mv	s3,a3
  fff1013650:	8a3a                	mv	s4,a4
  fff1013652:	c219                	beqz	a2,fff1013658 <spl+0x35d8>
  fff1013654:	00063023          	sd	zero,0(a2)
  fff1013658:	8522                	mv	a0,s0
  fff101365a:	211000ef          	jal	ra,fff101406a <spl+0x3fea>
  fff101365e:	e02a                	sd	a0,0(sp)
  fff1013660:	0850                	addi	a2,sp,20
  fff1013662:	00004597          	auipc	a1,0x4
  fff1013666:	74658593          	addi	a1,a1,1862 # fff1017da8 <spl+0x7d28>
  fff101366a:	8522                	mv	a0,s0
  fff101366c:	271000ef          	jal	ra,fff10140dc <spl+0x405c>
  fff1013670:	892a                	mv	s2,a0
  fff1013672:	cd29                	beqz	a0,fff10136cc <spl+0x364c>
  fff1013674:	00005b97          	auipc	s7,0x5
  fff1013678:	784b8b93          	addi	s7,s7,1924 # fff1018df8 <spl+0x8d78>
  fff101367c:	00006797          	auipc	a5,0x6
  fff1013680:	c2c78793          	addi	a5,a5,-980 # fff10192a8 <spl+0x9228>
  fff1013684:	417787b3          	sub	a5,a5,s7
  fff1013688:	00004717          	auipc	a4,0x4
  fff101368c:	42873703          	ld	a4,1064(a4) # fff1017ab0 <spl+0x7a30>
  fff1013690:	878d                	srai	a5,a5,0x3
  fff1013692:	02e787bb          	mulw	a5,a5,a4
  fff1013696:	07800713          	li	a4,120
  fff101369a:	4c01                	li	s8,0
  fff101369c:	01810d13          	addi	s10,sp,24
  fff10136a0:	5db5                	li	s11,-19
  fff10136a2:	02e787b3          	mul	a5,a5,a4
  fff10136a6:	9bbe                	add	s7,s7,a5
  fff10136a8:	47d2                	lw	a5,20(sp)
  fff10136aa:	02fc5563          	bge	s8,a5,fff10136d4 <spl+0x3654>
  fff10136ae:	01890cb3          	add	s9,s2,s8
  fff10136b2:	00005b17          	auipc	s6,0x5
  fff10136b6:	746b0b13          	addi	s6,s6,1862 # fff1018df8 <spl+0x8d78>
  fff10136ba:	036b9d63          	bne	s7,s6,fff10136f4 <spl+0x3674>
  fff10136be:	8566                	mv	a0,s9
  fff10136c0:	e68fe0ef          	jal	ra,fff1011d28 <spl+0x1ca8>
  fff10136c4:	0505                	addi	a0,a0,1
  fff10136c6:	01850c3b          	addw	s8,a0,s8
  fff10136ca:	bff9                	j	fff10136a8 <spl+0x3628>
  fff10136cc:	4552                	lw	a0,20(sp)
  fff10136ce:	57fd                	li	a5,-1
  fff10136d0:	00f51363          	bne	a0,a5,fff10136d6 <spl+0x3656>
  fff10136d4:	4501                	li	a0,0
  fff10136d6:	60aa                	ld	ra,136(sp)
  fff10136d8:	640a                	ld	s0,128(sp)
  fff10136da:	74e6                	ld	s1,120(sp)
  fff10136dc:	7946                	ld	s2,112(sp)
  fff10136de:	79a6                	ld	s3,104(sp)
  fff10136e0:	7a06                	ld	s4,96(sp)
  fff10136e2:	6ae6                	ld	s5,88(sp)
  fff10136e4:	6b46                	ld	s6,80(sp)
  fff10136e6:	6ba6                	ld	s7,72(sp)
  fff10136e8:	6c06                	ld	s8,64(sp)
  fff10136ea:	7ce2                	ld	s9,56(sp)
  fff10136ec:	7d42                	ld	s10,48(sp)
  fff10136ee:	7da2                	ld	s11,40(sp)
  fff10136f0:	6149                	addi	sp,sp,144
  fff10136f2:	8082                	ret
  fff10136f4:	00098b63          	beqz	s3,fff101370a <spl+0x368a>
  fff10136f8:	013b0563          	beq	s6,s3,fff1013702 <spl+0x3682>
  fff10136fc:	078b0b13          	addi	s6,s6,120
  fff1013700:	bf6d                	j	fff10136ba <spl+0x363a>
  fff1013702:	010b3a83          	ld	s5,16(s6)
  fff1013706:	040a8d63          	beqz	s5,fff1013760 <spl+0x36e0>
  fff101370a:	010b3a83          	ld	s5,16(s6)
  fff101370e:	fe0a87e3          	beqz	s5,fff10136fc <spl+0x367c>
  fff1013712:	000ab503          	ld	a0,0(s5)
  fff1013716:	d17d                	beqz	a0,fff10136fc <spl+0x367c>
  fff1013718:	85e6                	mv	a1,s9
  fff101371a:	de0fe0ef          	jal	ra,fff1011cfa <spl+0x1c7a>
  fff101371e:	c119                	beqz	a0,fff1013724 <spl+0x36a4>
  fff1013720:	0ac1                	addi	s5,s5,16
  fff1013722:	bfc5                	j	fff1013712 <spl+0x3692>
  fff1013724:	020a0b63          	beqz	s4,fff101375a <spl+0x36da>
  fff1013728:	8522                	mv	a0,s0
  fff101372a:	1c3000ef          	jal	ra,fff10140ec <spl+0x406c>
  fff101372e:	e509                	bnez	a0,fff1013738 <spl+0x36b8>
  fff1013730:	070b2703          	lw	a4,112(s6)
  fff1013734:	8b11                	andi	a4,a4,4
  fff1013736:	df59                	beqz	a4,fff10136d4 <spl+0x3654>
  fff1013738:	020a9163          	bnez	s5,fff101375a <spl+0x36da>
  fff101373c:	4681                	li	a3,0
  fff101373e:	6602                	ld	a2,0(sp)
  fff1013740:	6522                	ld	a0,8(sp)
  fff1013742:	87ea                	mv	a5,s10
  fff1013744:	8722                	mv	a4,s0
  fff1013746:	85da                	mv	a1,s6
  fff1013748:	cdfff0ef          	jal	ra,fff1013426 <spl+0x33a6>
  fff101374c:	f7b509e3          	beq	a0,s11,fff10136be <spl+0x363e>
  fff1013750:	f159                	bnez	a0,fff10136d6 <spl+0x3656>
  fff1013752:	d0c9                	beqz	s1,fff10136d4 <spl+0x3654>
  fff1013754:	67e2                	ld	a5,24(sp)
  fff1013756:	e09c                	sd	a5,0(s1)
  fff1013758:	bfbd                	j	fff10136d6 <spl+0x3656>
  fff101375a:	008ab683          	ld	a3,8(s5)
  fff101375e:	b7c5                	j	fff101373e <spl+0x36be>
  fff1013760:	fc0a0ee3          	beqz	s4,fff101373c <spl+0x36bc>
  fff1013764:	b7d1                	j	fff1013728 <spl+0x36a8>
  fff1013766:	7139                	addi	sp,sp,-64
  fff1013768:	f426                	sd	s1,40(sp)
  fff101376a:	fc06                	sd	ra,56(sp)
  fff101376c:	f822                	sd	s0,48(sp)
  fff101376e:	f04a                	sd	s2,32(sp)
  fff1013770:	ec4e                	sd	s3,24(sp)
  fff1013772:	e852                	sd	s4,16(sp)
  fff1013774:	e456                	sd	s5,8(sp)
  fff1013776:	4481                	li	s1,0
  fff1013778:	0205c263          	bltz	a1,fff101379c <spl+0x371c>
  fff101377c:	892a                	mv	s2,a0
  fff101377e:	0d81b503          	ld	a0,216(gp)
  fff1013782:	2581                	sext.w	a1,a1
  fff1013784:	89b2                	mv	s3,a2
  fff1013786:	cabfd0ef          	jal	ra,fff1011430 <spl+0x13b0>
  fff101378a:	0005041b          	sext.w	s0,a0
  fff101378e:	00055363          	bgez	a0,fff1013794 <spl+0x3714>
  fff1013792:	547d                	li	s0,-1
  fff1013794:	4481                	li	s1,0
  fff1013796:	5afd                	li	s5,-1
  fff1013798:	01541c63          	bne	s0,s5,fff10137b0 <spl+0x3730>
  fff101379c:	70e2                	ld	ra,56(sp)
  fff101379e:	7442                	ld	s0,48(sp)
  fff10137a0:	7902                	ld	s2,32(sp)
  fff10137a2:	69e2                	ld	s3,24(sp)
  fff10137a4:	6a42                	ld	s4,16(sp)
  fff10137a6:	6aa2                	ld	s5,8(sp)
  fff10137a8:	8526                	mv	a0,s1
  fff10137aa:	74a2                	ld	s1,40(sp)
  fff10137ac:	6121                	addi	sp,sp,64
  fff10137ae:	8082                	ret
  fff10137b0:	8522                	mv	a0,s0
  fff10137b2:	0b9000ef          	jal	ra,fff101406a <spl+0x3fea>
  fff10137b6:	0d81b503          	ld	a0,216(gp)
  fff10137ba:	00040a1b          	sext.w	s4,s0
  fff10137be:	85d2                	mv	a1,s4
  fff10137c0:	9d0fe0ef          	jal	ra,fff1011990 <spl+0x1910>
  fff10137c4:	c919                	beqz	a0,fff10137da <spl+0x375a>
  fff10137c6:	874e                	mv	a4,s3
  fff10137c8:	4681                	li	a3,0
  fff10137ca:	4601                	li	a2,0
  fff10137cc:	85a2                	mv	a1,s0
  fff10137ce:	854a                	mv	a0,s2
  fff10137d0:	e5dff0ef          	jal	ra,fff101362c <spl+0x35ac>
  fff10137d4:	c119                	beqz	a0,fff10137da <spl+0x375a>
  fff10137d6:	e091                	bnez	s1,fff10137da <spl+0x375a>
  fff10137d8:	84aa                	mv	s1,a0
  fff10137da:	0d81b503          	ld	a0,216(gp)
  fff10137de:	85d2                	mv	a1,s4
  fff10137e0:	c71fd0ef          	jal	ra,fff1011450 <spl+0x13d0>
  fff10137e4:	0005041b          	sext.w	s0,a0
  fff10137e8:	fa0558e3          	bgez	a0,fff1013798 <spl+0x3718>
  fff10137ec:	547d                	li	s0,-1
  fff10137ee:	b76d                	j	fff1013798 <spl+0x3718>
  fff10137f0:	1101                	addi	sp,sp,-32
  fff10137f2:	e822                	sd	s0,16(sp)
  fff10137f4:	e04a                	sd	s2,0(sp)
  fff10137f6:	ec06                	sd	ra,24(sp)
  fff10137f8:	e426                	sd	s1,8(sp)
  fff10137fa:	842a                	mv	s0,a0
  fff10137fc:	892e                	mv	s2,a1
  fff10137fe:	6948                	ld	a0,144(a0)
  fff1013800:	e185                	bnez	a1,fff1013820 <spl+0x37a0>
  fff1013802:	08842783          	lw	a5,136(s0)
  fff1013806:	6721                	lui	a4,0x8
  fff1013808:	8ff9                	and	a5,a5,a4
  fff101380a:	c38d                	beqz	a5,fff101382c <spl+0x37ac>
  fff101380c:	8522                	mv	a0,s0
  fff101380e:	96dff0ef          	jal	ra,fff101317a <spl+0x30fa>
  fff1013812:	cd09                	beqz	a0,fff101382c <spl+0x37ac>
  fff1013814:	60e2                	ld	ra,24(sp)
  fff1013816:	6442                	ld	s0,16(sp)
  fff1013818:	64a2                	ld	s1,8(sp)
  fff101381a:	6902                	ld	s2,0(sp)
  fff101381c:	6105                	addi	sp,sp,32
  fff101381e:	8082                	ret
  fff1013820:	02055163          	bgez	a0,fff1013842 <spl+0x37c2>
  fff1013824:	601c                	ld	a5,0(s0)
  fff1013826:	5bbc                	lw	a5,112(a5)
  fff1013828:	8b91                	andi	a5,a5,4
  fff101382a:	ffe1                	bnez	a5,fff1013802 <spl+0x3782>
  fff101382c:	7424                	ld	s1,104(s0)
  fff101382e:	06840413          	addi	s0,s0,104
  fff1013832:	f8848493          	addi	s1,s1,-120
  fff1013836:	07848793          	addi	a5,s1,120
  fff101383a:	00879863          	bne	a5,s0,fff101384a <spl+0x37ca>
  fff101383e:	4501                	li	a0,0
  fff1013840:	bfd1                	j	fff1013814 <spl+0x3794>
  fff1013842:	0ab000ef          	jal	ra,fff10140ec <spl+0x406c>
  fff1013846:	fd55                	bnez	a0,fff1013802 <spl+0x3782>
  fff1013848:	bff1                	j	fff1013824 <spl+0x37a4>
  fff101384a:	8526                	mv	a0,s1
  fff101384c:	85ca                	mv	a1,s2
  fff101384e:	fa3ff0ef          	jal	ra,fff10137f0 <spl+0x3770>
  fff1013852:	7ca4                	ld	s1,120(s1)
  fff1013854:	f8848493          	addi	s1,s1,-120
  fff1013858:	bff9                	j	fff1013836 <spl+0x37b6>
  fff101385a:	0a81b503          	ld	a0,168(gp)
  fff101385e:	8082                	ret
  fff1013860:	0a81b783          	ld	a5,168(gp)
  fff1013864:	5529                	li	a0,-22
  fff1013866:	eba1                	bnez	a5,fff10138b6 <spl+0x3836>
  fff1013868:	1141                	addi	sp,sp,-16
  fff101386a:	e406                	sd	ra,8(sp)
  fff101386c:	0b818793          	addi	a5,gp,184
  fff1013870:	0cf1b423          	sd	a5,200(gp)
  fff1013874:	0af1bc23          	sd	a5,184(gp)
  fff1013878:	0cf1b023          	sd	a5,192(gp)
  fff101387c:	0a818693          	addi	a3,gp,168
  fff1013880:	00005617          	auipc	a2,0x5
  fff1013884:	1b060613          	addi	a2,a2,432 # fff1018a30 <spl+0x89b0>
  fff1013888:	4581                	li	a1,0
  fff101388a:	4501                	li	a0,0
  fff101388c:	b4bff0ef          	jal	ra,fff10133d6 <spl+0x3356>
  fff1013890:	e105                	bnez	a0,fff10138b0 <spl+0x3830>
  fff1013892:	0a81b703          	ld	a4,168(gp)
  fff1013896:	08073823          	sd	zero,144(a4) # 8090 <ROM_BASE-0xfff1007f70>
  fff101389a:	0a81b503          	ld	a0,168(gp)
  fff101389e:	8ddff0ef          	jal	ra,fff101317a <spl+0x30fa>
  fff10138a2:	e519                	bnez	a0,fff10138b0 <spl+0x3830>
  fff10138a4:	56818713          	addi	a4,gp,1384
  fff10138a8:	56e1b423          	sd	a4,1384(gp)
  fff10138ac:	56e1b823          	sd	a4,1392(gp)
  fff10138b0:	60a2                	ld	ra,8(sp)
  fff10138b2:	0141                	addi	sp,sp,16
  fff10138b4:	8082                	ret
  fff10138b6:	8082                	ret
  fff10138b8:	1141                	addi	sp,sp,-16
  fff10138ba:	e406                	sd	ra,8(sp)
  fff10138bc:	85aa                	mv	a1,a0
  fff10138be:	0a81b503          	ld	a0,168(gp)
  fff10138c2:	c81ff0ef          	jal	ra,fff1013542 <spl+0x34c2>
  fff10138c6:	57f9                	li	a5,-2
  fff10138c8:	00f51363          	bne	a0,a5,fff10138ce <spl+0x384e>
  fff10138cc:	4501                	li	a0,0
  fff10138ce:	60a2                	ld	ra,8(sp)
  fff10138d0:	0141                	addi	sp,sp,16
  fff10138d2:	8082                	ret
  fff10138d4:	0081b603          	ld	a2,8(gp)
  fff10138d8:	694c                	ld	a1,144(a0)
  fff10138da:	fff64613          	not	a2,a2
  fff10138de:	8a05                	andi	a2,a2,1
  fff10138e0:	b559                	j	fff1013766 <spl+0x36e6>
  fff10138e2:	862a                	mv	a2,a0
  fff10138e4:	0a81b503          	ld	a0,168(gp)
  fff10138e8:	4581                	li	a1,0
  fff10138ea:	bdb5                	j	fff1013766 <spl+0x36e6>
  fff10138ec:	715d                	addi	sp,sp,-80
  fff10138ee:	00004797          	auipc	a5,0x4
  fff10138f2:	30a78793          	addi	a5,a5,778 # fff1017bf8 <spl+0x7b78>
  fff10138f6:	ec3e                	sd	a5,24(sp)
  fff10138f8:	00005797          	auipc	a5,0x5
  fff10138fc:	e3878793          	addi	a5,a5,-456 # fff1018730 <spl+0x86b0>
  fff1013900:	f03e                	sd	a5,32(sp)
  fff1013902:	00005797          	auipc	a5,0x5
  fff1013906:	e3678793          	addi	a5,a5,-458 # fff1018738 <spl+0x86b8>
  fff101390a:	fc26                	sd	s1,56(sp)
  fff101390c:	e486                	sd	ra,72(sp)
  fff101390e:	e0a2                	sd	s0,64(sp)
  fff1013910:	84aa                	mv	s1,a0
  fff1013912:	f43e                	sd	a5,40(sp)
  fff1013914:	fcfff0ef          	jal	ra,fff10138e2 <spl+0x3862>
  fff1013918:	e115                	bnez	a0,fff101393c <spl+0x38bc>
  fff101391a:	181c                	addi	a5,sp,48
  fff101391c:	0820                	addi	s0,sp,24
  fff101391e:	e43e                	sd	a5,8(sp)
  fff1013920:	6008                	ld	a0,0(s0)
  fff1013922:	75e000ef          	jal	ra,fff1014080 <spl+0x4000>
  fff1013926:	85aa                	mv	a1,a0
  fff1013928:	0a81b503          	ld	a0,168(gp)
  fff101392c:	8626                	mv	a2,s1
  fff101392e:	e39ff0ef          	jal	ra,fff1013766 <spl+0x36e6>
  fff1013932:	e509                	bnez	a0,fff101393c <spl+0x38bc>
  fff1013934:	67a2                	ld	a5,8(sp)
  fff1013936:	0421                	addi	s0,s0,8
  fff1013938:	fef414e3          	bne	s0,a5,fff1013920 <spl+0x38a0>
  fff101393c:	60a6                	ld	ra,72(sp)
  fff101393e:	6406                	ld	s0,64(sp)
  fff1013940:	74e2                	ld	s1,56(sp)
  fff1013942:	6161                	addi	sp,sp,80
  fff1013944:	8082                	ret
  fff1013946:	4501                	li	a0,0
  fff1013948:	8082                	ret
  fff101394a:	1141                	addi	sp,sp,-16
  fff101394c:	e022                	sd	s0,0(sp)
  fff101394e:	842a                	mv	s0,a0
  fff1013950:	4501                	li	a0,0
  fff1013952:	e406                	sd	ra,8(sp)
  fff1013954:	f0dff0ef          	jal	ra,fff1013860 <spl+0x37e0>
  fff1013958:	e51d                	bnez	a0,fff1013986 <spl+0x3906>
  fff101395a:	8522                	mv	a0,s0
  fff101395c:	f5dff0ef          	jal	ra,fff10138b8 <spl+0x3838>
  fff1013960:	e11d                	bnez	a0,fff1013986 <spl+0x3906>
  fff1013962:	8522                	mv	a0,s0
  fff1013964:	f89ff0ef          	jal	ra,fff10138ec <spl+0x386c>
  fff1013968:	ed19                	bnez	a0,fff1013986 <spl+0x3906>
  fff101396a:	8522                	mv	a0,s0
  fff101396c:	00005317          	auipc	t1,0x5
  fff1013970:	35c33303          	ld	t1,860(t1) # fff1018cc8 <spl+0x8c48>
  fff1013974:	9302                	jalr	t1
  fff1013976:	e901                	bnez	a0,fff1013986 <spl+0x3906>
  fff1013978:	85a2                	mv	a1,s0
  fff101397a:	6402                	ld	s0,0(sp)
  fff101397c:	60a2                	ld	ra,8(sp)
  fff101397e:	0a81b503          	ld	a0,168(gp)
  fff1013982:	0141                	addi	sp,sp,16
  fff1013984:	b5b5                	j	fff10137f0 <spl+0x3770>
  fff1013986:	60a2                	ld	ra,8(sp)
  fff1013988:	6402                	ld	s0,0(sp)
  fff101398a:	0141                	addi	sp,sp,16
  fff101398c:	8082                	ret
  fff101398e:	872a                	mv	a4,a0
  fff1013990:	0a81b503          	ld	a0,168(gp)
  fff1013994:	cd01                	beqz	a0,fff10139ac <spl+0x392c>
  fff1013996:	0c81b683          	ld	a3,200(gp)
  fff101399a:	629c                	ld	a5,0(a3)
  fff101399c:	fe078513          	addi	a0,a5,-32
  fff10139a0:	02050793          	addi	a5,a0,32
  fff10139a4:	7110                	ld	a2,32(a0)
  fff10139a6:	00f69463          	bne	a3,a5,fff10139ae <spl+0x392e>
  fff10139aa:	4501                	li	a0,0
  fff10139ac:	8082                	ret
  fff10139ae:	651c                	ld	a5,8(a0)
  fff10139b0:	479c                	lw	a5,8(a5)
  fff10139b2:	fee78de3          	beq	a5,a4,fff10139ac <spl+0x392c>
  fff10139b6:	fe060513          	addi	a0,a2,-32
  fff10139ba:	b7dd                	j	fff10139a0 <spl+0x3920>
  fff10139bc:	6108                	ld	a0,0(a0)
  fff10139be:	8082                	ret
  fff10139c0:	e10c                	sd	a1,0(a0)
  fff10139c2:	8082                	ret
  fff10139c4:	7179                	addi	sp,sp,-48
  fff10139c6:	ec26                	sd	s1,24(sp)
  fff10139c8:	f406                	sd	ra,40(sp)
  fff10139ca:	f022                	sd	s0,32(sp)
  fff10139cc:	e84a                	sd	s2,16(sp)
  fff10139ce:	e44e                	sd	s3,8(sp)
  fff10139d0:	0c81b783          	ld	a5,200(gp)
  fff10139d4:	fdd00493          	li	s1,-35
  fff10139d8:	cb8d                	beqz	a5,fff1013a0a <spl+0x398a>
  fff10139da:	0005b023          	sd	zero,0(a1)
  fff10139de:	842a                	mv	s0,a0
  fff10139e0:	89ae                	mv	s3,a1
  fff10139e2:	fadff0ef          	jal	ra,fff101398e <spl+0x390e>
  fff10139e6:	e545                	bnez	a0,fff1013a8e <spl+0x3a0e>
  fff10139e8:	0009b023          	sd	zero,0(s3)
  fff10139ec:	8522                	mv	a0,s0
  fff10139ee:	b15ff0ef          	jal	ra,fff1013502 <spl+0x3482>
  fff10139f2:	892a                	mv	s2,a0
  fff10139f4:	fa000493          	li	s1,-96
  fff10139f8:	c909                	beqz	a0,fff1013a0a <spl+0x398a>
  fff10139fa:	03000593          	li	a1,48
  fff10139fe:	4505                	li	a0,1
  fff1013a00:	f7cfd0ef          	jal	ra,fff101117c <spl+0x10fc>
  fff1013a04:	842a                	mv	s0,a0
  fff1013a06:	e911                	bnez	a0,fff1013a1a <spl+0x399a>
  fff1013a08:	54d1                	li	s1,-12
  fff1013a0a:	70a2                	ld	ra,40(sp)
  fff1013a0c:	7402                	ld	s0,32(sp)
  fff1013a0e:	6942                	ld	s2,16(sp)
  fff1013a10:	69a2                	ld	s3,8(sp)
  fff1013a12:	8526                	mv	a0,s1
  fff1013a14:	64e2                	ld	s1,24(sp)
  fff1013a16:	6145                	addi	sp,sp,48
  fff1013a18:	8082                	ret
  fff1013a1a:	06092583          	lw	a1,96(s2)
  fff1013a1e:	c989                	beqz	a1,fff1013a30 <spl+0x39b0>
  fff1013a20:	4505                	li	a0,1
  fff1013a22:	f5afd0ef          	jal	ra,fff101117c <spl+0x10fc>
  fff1013a26:	85aa                	mv	a1,a0
  fff1013a28:	d165                	beqz	a0,fff1013a08 <spl+0x3988>
  fff1013a2a:	8522                	mv	a0,s0
  fff1013a2c:	f95ff0ef          	jal	ra,fff10139c0 <spl+0x3940>
  fff1013a30:	02040793          	addi	a5,s0,32
  fff1013a34:	01040713          	addi	a4,s0,16
  fff1013a38:	f01c                	sd	a5,32(s0)
  fff1013a3a:	f41c                	sd	a5,40(s0)
  fff1013a3c:	01243423          	sd	s2,8(s0)
  fff1013a40:	e818                	sd	a4,16(s0)
  fff1013a42:	ec18                	sd	a4,24(s0)
  fff1013a44:	0c81b703          	ld	a4,200(gp)
  fff1013a48:	6314                	ld	a3,0(a4)
  fff1013a4a:	e69c                	sd	a5,8(a3)
  fff1013a4c:	f014                	sd	a3,32(s0)
  fff1013a4e:	f418                	sd	a4,40(s0)
  fff1013a50:	e31c                	sd	a5,0(a4)
  fff1013a52:	05093783          	ld	a5,80(s2)
  fff1013a56:	cb85                	beqz	a5,fff1013a86 <spl+0x3a06>
  fff1013a58:	8522                	mv	a0,s0
  fff1013a5a:	9782                	jalr	a5
  fff1013a5c:	84aa                	mv	s1,a0
  fff1013a5e:	c505                	beqz	a0,fff1013a86 <spl+0x3a06>
  fff1013a60:	06092783          	lw	a5,96(s2)
  fff1013a64:	cb81                	beqz	a5,fff1013a74 <spl+0x39f4>
  fff1013a66:	8522                	mv	a0,s0
  fff1013a68:	f55ff0ef          	jal	ra,fff10139bc <spl+0x393c>
  fff1013a6c:	4581                	li	a1,0
  fff1013a6e:	8522                	mv	a0,s0
  fff1013a70:	f51ff0ef          	jal	ra,fff10139c0 <spl+0x3940>
  fff1013a74:	741c                	ld	a5,40(s0)
  fff1013a76:	7018                	ld	a4,32(s0)
  fff1013a78:	e71c                	sd	a5,8(a4)
  fff1013a7a:	e398                	sd	a4,0(a5)
  fff1013a7c:	02043023          	sd	zero,32(s0)
  fff1013a80:	02043423          	sd	zero,40(s0)
  fff1013a84:	b759                	j	fff1013a0a <spl+0x398a>
  fff1013a86:	0089b023          	sd	s0,0(s3)
  fff1013a8a:	4481                	li	s1,0
  fff1013a8c:	bfbd                	j	fff1013a0a <spl+0x398a>
  fff1013a8e:	00a9b023          	sd	a0,0(s3)
  fff1013a92:	bfe5                	j	fff1013a8a <spl+0x3a0a>
  fff1013a94:	7179                	addi	sp,sp,-48
  fff1013a96:	f022                	sd	s0,32(sp)
  fff1013a98:	ec26                	sd	s1,24(sp)
  fff1013a9a:	f406                	sd	ra,40(sp)
  fff1013a9c:	842e                	mv	s0,a1
  fff1013a9e:	00063023          	sd	zero,0(a2)
  fff1013aa2:	002c                	addi	a1,sp,8
  fff1013aa4:	84b2                	mv	s1,a2
  fff1013aa6:	f1fff0ef          	jal	ra,fff10139c4 <spl+0x3944>
  fff1013aaa:	e505                	bnez	a0,fff1013ad2 <spl+0x3a52>
  fff1013aac:	67a2                	ld	a5,8(sp)
  fff1013aae:	01078713          	addi	a4,a5,16
  fff1013ab2:	6b9c                	ld	a5,16(a5)
  fff1013ab4:	00f70b63          	beq	a4,a5,fff1013aca <spl+0x3a4a>
  fff1013ab8:	fa878793          	addi	a5,a5,-88
  fff1013abc:	0004059b          	sext.w	a1,s0
  fff1013ac0:	05878693          	addi	a3,a5,88
  fff1013ac4:	6fb0                	ld	a2,88(a5)
  fff1013ac6:	00d71463          	bne	a4,a3,fff1013ace <spl+0x3a4e>
  fff1013aca:	5535                	li	a0,-19
  fff1013acc:	a019                	j	fff1013ad2 <spl+0x3a52>
  fff1013ace:	e599                	bnez	a1,fff1013adc <spl+0x3a5c>
  fff1013ad0:	e09c                	sd	a5,0(s1)
  fff1013ad2:	70a2                	ld	ra,40(sp)
  fff1013ad4:	7402                	ld	s0,32(sp)
  fff1013ad6:	64e2                	ld	s1,24(sp)
  fff1013ad8:	6145                	addi	sp,sp,48
  fff1013ada:	8082                	ret
  fff1013adc:	fa860793          	addi	a5,a2,-88
  fff1013ae0:	35fd                	addiw	a1,a1,-1
  fff1013ae2:	bff9                	j	fff1013ac0 <spl+0x3a40>
  fff1013ae4:	1101                	addi	sp,sp,-32
  fff1013ae6:	e822                	sd	s0,16(sp)
  fff1013ae8:	ec06                	sd	ra,24(sp)
  fff1013aea:	842e                	mv	s0,a1
  fff1013aec:	0005b023          	sd	zero,0(a1)
  fff1013af0:	002c                	addi	a1,sp,8
  fff1013af2:	ed3ff0ef          	jal	ra,fff10139c4 <spl+0x3944>
  fff1013af6:	e909                	bnez	a0,fff1013b08 <spl+0x3a88>
  fff1013af8:	6722                	ld	a4,8(sp)
  fff1013afa:	6b1c                	ld	a5,16(a4)
  fff1013afc:	0741                	addi	a4,a4,16
  fff1013afe:	00e78563          	beq	a5,a4,fff1013b08 <spl+0x3a88>
  fff1013b02:	fa878793          	addi	a5,a5,-88
  fff1013b06:	e01c                	sd	a5,0(s0)
  fff1013b08:	60e2                	ld	ra,24(sp)
  fff1013b0a:	6442                	ld	s0,16(sp)
  fff1013b0c:	6105                	addi	sp,sp,32
  fff1013b0e:	8082                	ret
  fff1013b10:	6118                	ld	a4,0(a0)
  fff1013b12:	00053023          	sd	zero,0(a0)
  fff1013b16:	6f3c                	ld	a5,88(a4)
  fff1013b18:	6338                	ld	a4,64(a4)
  fff1013b1a:	0741                	addi	a4,a4,16
  fff1013b1c:	00e78563          	beq	a5,a4,fff1013b26 <spl+0x3aa6>
  fff1013b20:	fa878793          	addi	a5,a5,-88
  fff1013b24:	e11c                	sd	a5,0(a0)
  fff1013b26:	4501                	li	a0,0
  fff1013b28:	8082                	ret
  fff1013b2a:	7179                	addi	sp,sp,-48
  fff1013b2c:	f022                	sd	s0,32(sp)
  fff1013b2e:	ec26                	sd	s1,24(sp)
  fff1013b30:	f406                	sd	ra,40(sp)
  fff1013b32:	e42a                	sd	a0,8(sp)
  fff1013b34:	842e                	mv	s0,a1
  fff1013b36:	0024                	addi	s1,sp,8
  fff1013b38:	6522                	ld	a0,8(sp)
  fff1013b3a:	c501                	beqz	a0,fff1013b42 <spl+0x3ac2>
  fff1013b3c:	e3eff0ef          	jal	ra,fff101317a <spl+0x30fa>
  fff1013b40:	e901                	bnez	a0,fff1013b50 <spl+0x3ad0>
  fff1013b42:	67a2                	ld	a5,8(sp)
  fff1013b44:	70a2                	ld	ra,40(sp)
  fff1013b46:	64e2                	ld	s1,24(sp)
  fff1013b48:	e01c                	sd	a5,0(s0)
  fff1013b4a:	7402                	ld	s0,32(sp)
  fff1013b4c:	6145                	addi	sp,sp,48
  fff1013b4e:	8082                	ret
  fff1013b50:	8526                	mv	a0,s1
  fff1013b52:	fbfff0ef          	jal	ra,fff1013b10 <spl+0x3a90>
  fff1013b56:	b7cd                	j	fff1013b38 <spl+0x3ab8>
  fff1013b58:	691c                	ld	a5,16(a0)
  fff1013b5a:	577d                	li	a4,-1
  fff1013b5c:	0541                	addi	a0,a0,16
  fff1013b5e:	fa878793          	addi	a5,a5,-88
  fff1013b62:	05878693          	addi	a3,a5,88
  fff1013b66:	6fb0                	ld	a2,88(a5)
  fff1013b68:	00a69563          	bne	a3,a0,fff1013b72 <spl+0x3af2>
  fff1013b6c:	0017051b          	addiw	a0,a4,1
  fff1013b70:	8082                	ret
  fff1013b72:	08c7a783          	lw	a5,140(a5)
  fff1013b76:	0007869b          	sext.w	a3,a5
  fff1013b7a:	00e6d363          	bge	a3,a4,fff1013b80 <spl+0x3b00>
  fff1013b7e:	87ba                	mv	a5,a4
  fff1013b80:	0007871b          	sext.w	a4,a5
  fff1013b84:	fa860793          	addi	a5,a2,-88
  fff1013b88:	bfe9                	j	fff1013b62 <spl+0x3ae2>
  fff1013b8a:	00063023          	sd	zero,0(a2)
  fff1013b8e:	57fd                	li	a5,-1
  fff1013b90:	00f59463          	bne	a1,a5,fff1013b98 <spl+0x3b18>
  fff1013b94:	5535                	li	a0,-19
  fff1013b96:	8082                	ret
  fff1013b98:	7179                	addi	sp,sp,-48
  fff1013b9a:	f022                	sd	s0,32(sp)
  fff1013b9c:	842e                	mv	s0,a1
  fff1013b9e:	002c                	addi	a1,sp,8
  fff1013ba0:	ec26                	sd	s1,24(sp)
  fff1013ba2:	f406                	sd	ra,40(sp)
  fff1013ba4:	84b2                	mv	s1,a2
  fff1013ba6:	e1fff0ef          	jal	ra,fff10139c4 <spl+0x3944>
  fff1013baa:	ed01                	bnez	a0,fff1013bc2 <spl+0x3b42>
  fff1013bac:	6722                	ld	a4,8(sp)
  fff1013bae:	6b1c                	ld	a5,16(a4)
  fff1013bb0:	0741                	addi	a4,a4,16
  fff1013bb2:	fa878793          	addi	a5,a5,-88
  fff1013bb6:	05878693          	addi	a3,a5,88
  fff1013bba:	6fb0                	ld	a2,88(a5)
  fff1013bbc:	00e69863          	bne	a3,a4,fff1013bcc <spl+0x3b4c>
  fff1013bc0:	5535                	li	a0,-19
  fff1013bc2:	70a2                	ld	ra,40(sp)
  fff1013bc4:	7402                	ld	s0,32(sp)
  fff1013bc6:	64e2                	ld	s1,24(sp)
  fff1013bc8:	6145                	addi	sp,sp,48
  fff1013bca:	8082                	ret
  fff1013bcc:	08c7a683          	lw	a3,140(a5)
  fff1013bd0:	00869463          	bne	a3,s0,fff1013bd8 <spl+0x3b58>
  fff1013bd4:	e09c                	sd	a5,0(s1)
  fff1013bd6:	b7f5                	j	fff1013bc2 <spl+0x3b42>
  fff1013bd8:	fa860793          	addi	a5,a2,-88
  fff1013bdc:	bfe9                	j	fff1013bb6 <spl+0x3b36>
  fff1013bde:	00063023          	sd	zero,0(a2)
  fff1013be2:	0005d463          	bgez	a1,fff1013bea <spl+0x3b6a>
  fff1013be6:	5535                	li	a0,-19
  fff1013be8:	8082                	ret
  fff1013bea:	7179                	addi	sp,sp,-48
  fff1013bec:	f022                	sd	s0,32(sp)
  fff1013bee:	842e                	mv	s0,a1
  fff1013bf0:	002c                	addi	a1,sp,8
  fff1013bf2:	ec26                	sd	s1,24(sp)
  fff1013bf4:	f406                	sd	ra,40(sp)
  fff1013bf6:	84b2                	mv	s1,a2
  fff1013bf8:	dcdff0ef          	jal	ra,fff10139c4 <spl+0x3944>
  fff1013bfc:	ed01                	bnez	a0,fff1013c14 <spl+0x3b94>
  fff1013bfe:	6722                	ld	a4,8(sp)
  fff1013c00:	6b1c                	ld	a5,16(a4)
  fff1013c02:	0741                	addi	a4,a4,16
  fff1013c04:	fa878793          	addi	a5,a5,-88
  fff1013c08:	05878693          	addi	a3,a5,88
  fff1013c0c:	6fb0                	ld	a2,88(a5)
  fff1013c0e:	00e69863          	bne	a3,a4,fff1013c1e <spl+0x3b9e>
  fff1013c12:	5535                	li	a0,-19
  fff1013c14:	70a2                	ld	ra,40(sp)
  fff1013c16:	7402                	ld	s0,32(sp)
  fff1013c18:	64e2                	ld	s1,24(sp)
  fff1013c1a:	6145                	addi	sp,sp,48
  fff1013c1c:	8082                	ret
  fff1013c1e:	0907a683          	lw	a3,144(a5)
  fff1013c22:	00d41463          	bne	s0,a3,fff1013c2a <spl+0x3baa>
  fff1013c26:	e09c                	sd	a5,0(s1)
  fff1013c28:	b7f5                	j	fff1013c14 <spl+0x3b94>
  fff1013c2a:	fa860793          	addi	a5,a2,-88
  fff1013c2e:	bfe9                	j	fff1013c08 <spl+0x3b88>
  fff1013c30:	00063023          	sd	zero,0(a2)
  fff1013c34:	0005d463          	bgez	a1,fff1013c3c <spl+0x3bbc>
  fff1013c38:	5535                	li	a0,-19
  fff1013c3a:	8082                	ret
  fff1013c3c:	7179                	addi	sp,sp,-48
  fff1013c3e:	f022                	sd	s0,32(sp)
  fff1013c40:	842e                	mv	s0,a1
  fff1013c42:	002c                	addi	a1,sp,8
  fff1013c44:	ec26                	sd	s1,24(sp)
  fff1013c46:	f406                	sd	ra,40(sp)
  fff1013c48:	84b2                	mv	s1,a2
  fff1013c4a:	d7bff0ef          	jal	ra,fff10139c4 <spl+0x3944>
  fff1013c4e:	ed01                	bnez	a0,fff1013c66 <spl+0x3be6>
  fff1013c50:	6722                	ld	a4,8(sp)
  fff1013c52:	6b1c                	ld	a5,16(a4)
  fff1013c54:	0741                	addi	a4,a4,16
  fff1013c56:	fa878793          	addi	a5,a5,-88
  fff1013c5a:	05878693          	addi	a3,a5,88
  fff1013c5e:	6fb0                	ld	a2,88(a5)
  fff1013c60:	00e69863          	bne	a3,a4,fff1013c70 <spl+0x3bf0>
  fff1013c64:	5535                	li	a0,-19
  fff1013c66:	70a2                	ld	ra,40(sp)
  fff1013c68:	7402                	ld	s0,32(sp)
  fff1013c6a:	64e2                	ld	s1,24(sp)
  fff1013c6c:	6145                	addi	sp,sp,48
  fff1013c6e:	8082                	ret
  fff1013c70:	6bd4                	ld	a3,144(a5)
  fff1013c72:	00869463          	bne	a3,s0,fff1013c7a <spl+0x3bfa>
  fff1013c76:	e09c                	sd	a5,0(s1)
  fff1013c78:	b7fd                	j	fff1013c66 <spl+0x3be6>
  fff1013c7a:	fa860793          	addi	a5,a2,-88
  fff1013c7e:	bff1                	j	fff1013c5a <spl+0x3bda>
  fff1013c80:	e195                	bnez	a1,fff1013ca4 <spl+0x3c24>
  fff1013c82:	1101                	addi	sp,sp,-32
  fff1013c84:	e822                	sd	s0,16(sp)
  fff1013c86:	e426                	sd	s1,8(sp)
  fff1013c88:	ec06                	sd	ra,24(sp)
  fff1013c8a:	84aa                	mv	s1,a0
  fff1013c8c:	8432                	mv	s0,a2
  fff1013c8e:	cecff0ef          	jal	ra,fff101317a <spl+0x30fa>
  fff1013c92:	85aa                	mv	a1,a0
  fff1013c94:	e111                	bnez	a0,fff1013c98 <spl+0x3c18>
  fff1013c96:	e004                	sd	s1,0(s0)
  fff1013c98:	60e2                	ld	ra,24(sp)
  fff1013c9a:	6442                	ld	s0,16(sp)
  fff1013c9c:	64a2                	ld	s1,8(sp)
  fff1013c9e:	852e                	mv	a0,a1
  fff1013ca0:	6105                	addi	sp,sp,32
  fff1013ca2:	8082                	ret
  fff1013ca4:	852e                	mv	a0,a1
  fff1013ca6:	8082                	ret
  fff1013ca8:	7179                	addi	sp,sp,-48
  fff1013caa:	f022                	sd	s0,32(sp)
  fff1013cac:	842e                	mv	s0,a1
  fff1013cae:	082c                	addi	a1,sp,24
  fff1013cb0:	f406                	sd	ra,40(sp)
  fff1013cb2:	e432                	sd	a2,8(sp)
  fff1013cb4:	d11ff0ef          	jal	ra,fff10139c4 <spl+0x3944>
  fff1013cb8:	e505                	bnez	a0,fff1013ce0 <spl+0x3c60>
  fff1013cba:	67e2                	ld	a5,24(sp)
  fff1013cbc:	6622                	ld	a2,8(sp)
  fff1013cbe:	6b88                	ld	a0,16(a5)
  fff1013cc0:	07c1                	addi	a5,a5,16
  fff1013cc2:	fa850513          	addi	a0,a0,-88
  fff1013cc6:	05850713          	addi	a4,a0,88
  fff1013cca:	6d34                	ld	a3,88(a0)
  fff1013ccc:	00f71463          	bne	a4,a5,fff1013cd4 <spl+0x3c54>
  fff1013cd0:	5535                	li	a0,-19
  fff1013cd2:	a039                	j	fff1013ce0 <spl+0x3c60>
  fff1013cd4:	6118                	ld	a4,0(a0)
  fff1013cd6:	00871963          	bne	a4,s0,fff1013ce8 <spl+0x3c68>
  fff1013cda:	4581                	li	a1,0
  fff1013cdc:	fa5ff0ef          	jal	ra,fff1013c80 <spl+0x3c00>
  fff1013ce0:	70a2                	ld	ra,40(sp)
  fff1013ce2:	7402                	ld	s0,32(sp)
  fff1013ce4:	6145                	addi	sp,sp,48
  fff1013ce6:	8082                	ret
  fff1013ce8:	fa868513          	addi	a0,a3,-88
  fff1013cec:	bfe9                	j	fff1013cc6 <spl+0x3c46>
  fff1013cee:	1101                	addi	sp,sp,-32
  fff1013cf0:	ec06                	sd	ra,24(sp)
  fff1013cf2:	e822                	sd	s0,16(sp)
  fff1013cf4:	00063023          	sd	zero,0(a2)
  fff1013cf8:	8432                	mv	s0,a2
  fff1013cfa:	0030                	addi	a2,sp,8
  fff1013cfc:	d99ff0ef          	jal	ra,fff1013a94 <spl+0x3a14>
  fff1013d00:	85aa                	mv	a1,a0
  fff1013d02:	6522                	ld	a0,8(sp)
  fff1013d04:	8622                	mv	a2,s0
  fff1013d06:	f7bff0ef          	jal	ra,fff1013c80 <spl+0x3c00>
  fff1013d0a:	60e2                	ld	ra,24(sp)
  fff1013d0c:	6442                	ld	s0,16(sp)
  fff1013d0e:	6105                	addi	sp,sp,32
  fff1013d10:	8082                	ret
  fff1013d12:	1101                	addi	sp,sp,-32
  fff1013d14:	ec06                	sd	ra,24(sp)
  fff1013d16:	e822                	sd	s0,16(sp)
  fff1013d18:	00063023          	sd	zero,0(a2)
  fff1013d1c:	8432                	mv	s0,a2
  fff1013d1e:	0030                	addi	a2,sp,8
  fff1013d20:	e6bff0ef          	jal	ra,fff1013b8a <spl+0x3b0a>
  fff1013d24:	85aa                	mv	a1,a0
  fff1013d26:	6522                	ld	a0,8(sp)
  fff1013d28:	8622                	mv	a2,s0
  fff1013d2a:	f57ff0ef          	jal	ra,fff1013c80 <spl+0x3c00>
  fff1013d2e:	60e2                	ld	ra,24(sp)
  fff1013d30:	6442                	ld	s0,16(sp)
  fff1013d32:	6105                	addi	sp,sp,32
  fff1013d34:	8082                	ret
  fff1013d36:	1101                	addi	sp,sp,-32
  fff1013d38:	ec06                	sd	ra,24(sp)
  fff1013d3a:	e822                	sd	s0,16(sp)
  fff1013d3c:	00063023          	sd	zero,0(a2)
  fff1013d40:	8432                	mv	s0,a2
  fff1013d42:	0030                	addi	a2,sp,8
  fff1013d44:	e9bff0ef          	jal	ra,fff1013bde <spl+0x3b5e>
  fff1013d48:	85aa                	mv	a1,a0
  fff1013d4a:	6522                	ld	a0,8(sp)
  fff1013d4c:	8622                	mv	a2,s0
  fff1013d4e:	f33ff0ef          	jal	ra,fff1013c80 <spl+0x3c00>
  fff1013d52:	60e2                	ld	ra,24(sp)
  fff1013d54:	6442                	ld	s0,16(sp)
  fff1013d56:	6105                	addi	sp,sp,32
  fff1013d58:	8082                	ret
  fff1013d5a:	1101                	addi	sp,sp,-32
  fff1013d5c:	ec06                	sd	ra,24(sp)
  fff1013d5e:	e822                	sd	s0,16(sp)
  fff1013d60:	00063023          	sd	zero,0(a2)
  fff1013d64:	8432                	mv	s0,a2
  fff1013d66:	0030                	addi	a2,sp,8
  fff1013d68:	ec9ff0ef          	jal	ra,fff1013c30 <spl+0x3bb0>
  fff1013d6c:	85aa                	mv	a1,a0
  fff1013d6e:	6522                	ld	a0,8(sp)
  fff1013d70:	8622                	mv	a2,s0
  fff1013d72:	f0fff0ef          	jal	ra,fff1013c80 <spl+0x3c00>
  fff1013d76:	60e2                	ld	ra,24(sp)
  fff1013d78:	6442                	ld	s0,16(sp)
  fff1013d7a:	6105                	addi	sp,sp,32
  fff1013d7c:	8082                	ret
  fff1013d7e:	1101                	addi	sp,sp,-32
  fff1013d80:	e822                	sd	s0,16(sp)
  fff1013d82:	842e                	mv	s0,a1
  fff1013d84:	002c                	addi	a1,sp,8
  fff1013d86:	ec06                	sd	ra,24(sp)
  fff1013d88:	d5dff0ef          	jal	ra,fff1013ae4 <spl+0x3a64>
  fff1013d8c:	6522                	ld	a0,8(sp)
  fff1013d8e:	85a2                	mv	a1,s0
  fff1013d90:	d9bff0ef          	jal	ra,fff1013b2a <spl+0x3aaa>
  fff1013d94:	60e2                	ld	ra,24(sp)
  fff1013d96:	6442                	ld	s0,16(sp)
  fff1013d98:	6105                	addi	sp,sp,32
  fff1013d9a:	8082                	ret
  fff1013d9c:	7179                	addi	sp,sp,-48
  fff1013d9e:	f406                	sd	ra,40(sp)
  fff1013da0:	611c                	ld	a5,0(a0)
  fff1013da2:	e42a                	sd	a0,8(sp)
  fff1013da4:	0828                	addi	a0,sp,24
  fff1013da6:	ec3e                	sd	a5,24(sp)
  fff1013da8:	d69ff0ef          	jal	ra,fff1013b10 <spl+0x3a90>
  fff1013dac:	65a2                	ld	a1,8(sp)
  fff1013dae:	6562                	ld	a0,24(sp)
  fff1013db0:	d7bff0ef          	jal	ra,fff1013b2a <spl+0x3aaa>
  fff1013db4:	70a2                	ld	ra,40(sp)
  fff1013db6:	6145                	addi	sp,sp,48
  fff1013db8:	8082                	ret
  fff1013dba:	1141                	addi	sp,sp,-16
  fff1013dbc:	0005b023          	sd	zero,0(a1)
  fff1013dc0:	e022                	sd	s0,0(sp)
  fff1013dc2:	e406                	sd	ra,8(sp)
  fff1013dc4:	842e                	mv	s0,a1
  fff1013dc6:	d1fff0ef          	jal	ra,fff1013ae4 <spl+0x3a64>
  fff1013dca:	e909                	bnez	a0,fff1013ddc <spl+0x3d5c>
  fff1013dcc:	601c                	ld	a5,0(s0)
  fff1013dce:	c799                	beqz	a5,fff1013ddc <spl+0x3d5c>
  fff1013dd0:	6402                	ld	s0,0(sp)
  fff1013dd2:	60a2                	ld	ra,8(sp)
  fff1013dd4:	853e                	mv	a0,a5
  fff1013dd6:	0141                	addi	sp,sp,16
  fff1013dd8:	ba2ff06f          	j	fff101317a <spl+0x30fa>
  fff1013ddc:	60a2                	ld	ra,8(sp)
  fff1013dde:	6402                	ld	s0,0(sp)
  fff1013de0:	0141                	addi	sp,sp,16
  fff1013de2:	8082                	ret
  fff1013de4:	1141                	addi	sp,sp,-16
  fff1013de6:	e022                	sd	s0,0(sp)
  fff1013de8:	e406                	sd	ra,8(sp)
  fff1013dea:	842e                	mv	s0,a1
  fff1013dec:	fcfff0ef          	jal	ra,fff1013dba <spl+0x3d3a>
  fff1013df0:	e501                	bnez	a0,fff1013df8 <spl+0x3d78>
  fff1013df2:	601c                	ld	a5,0(s0)
  fff1013df4:	e391                	bnez	a5,fff1013df8 <spl+0x3d78>
  fff1013df6:	5535                	li	a0,-19
  fff1013df8:	60a2                	ld	ra,8(sp)
  fff1013dfa:	6402                	ld	s0,0(sp)
  fff1013dfc:	0141                	addi	sp,sp,16
  fff1013dfe:	8082                	ret
  fff1013e00:	1141                	addi	sp,sp,-16
  fff1013e02:	e022                	sd	s0,0(sp)
  fff1013e04:	e406                	sd	ra,8(sp)
  fff1013e06:	842a                	mv	s0,a0
  fff1013e08:	d09ff0ef          	jal	ra,fff1013b10 <spl+0x3a90>
  fff1013e0c:	e909                	bnez	a0,fff1013e1e <spl+0x3d9e>
  fff1013e0e:	601c                	ld	a5,0(s0)
  fff1013e10:	c799                	beqz	a5,fff1013e1e <spl+0x3d9e>
  fff1013e12:	6402                	ld	s0,0(sp)
  fff1013e14:	60a2                	ld	ra,8(sp)
  fff1013e16:	853e                	mv	a0,a5
  fff1013e18:	0141                	addi	sp,sp,16
  fff1013e1a:	b60ff06f          	j	fff101317a <spl+0x30fa>
  fff1013e1e:	60a2                	ld	ra,8(sp)
  fff1013e20:	6402                	ld	s0,0(sp)
  fff1013e22:	0141                	addi	sp,sp,16
  fff1013e24:	8082                	ret
  fff1013e26:	613c                	ld	a5,64(a0)
  fff1013e28:	05850693          	addi	a3,a0,88
  fff1013e2c:	6f98                	ld	a4,24(a5)
  fff1013e2e:	ef94                	sd	a3,24(a5)
  fff1013e30:	07c1                	addi	a5,a5,16
  fff1013e32:	ed3c                	sd	a5,88(a0)
  fff1013e34:	f138                	sd	a4,96(a0)
  fff1013e36:	e314                	sd	a3,0(a4)
  fff1013e38:	791c                	ld	a5,48(a0)
  fff1013e3a:	cb95                	beqz	a5,fff1013e6e <spl+0x3dee>
  fff1013e3c:	63bc                	ld	a5,64(a5)
  fff1013e3e:	679c                	ld	a5,8(a5)
  fff1013e40:	7f98                	ld	a4,56(a5)
  fff1013e42:	4781                	li	a5,0
  fff1013e44:	c715                	beqz	a4,fff1013e70 <spl+0x3df0>
  fff1013e46:	1141                	addi	sp,sp,-16
  fff1013e48:	e022                	sd	s0,0(sp)
  fff1013e4a:	e406                	sd	ra,8(sp)
  fff1013e4c:	842a                	mv	s0,a0
  fff1013e4e:	9702                	jalr	a4
  fff1013e50:	87aa                	mv	a5,a0
  fff1013e52:	c909                	beqz	a0,fff1013e64 <spl+0x3de4>
  fff1013e54:	7038                	ld	a4,96(s0)
  fff1013e56:	6c34                	ld	a3,88(s0)
  fff1013e58:	e698                	sd	a4,8(a3)
  fff1013e5a:	e314                	sd	a3,0(a4)
  fff1013e5c:	04043c23          	sd	zero,88(s0)
  fff1013e60:	06043023          	sd	zero,96(s0)
  fff1013e64:	60a2                	ld	ra,8(sp)
  fff1013e66:	6402                	ld	s0,0(sp)
  fff1013e68:	853e                	mv	a0,a5
  fff1013e6a:	0141                	addi	sp,sp,16
  fff1013e6c:	8082                	ret
  fff1013e6e:	4781                	li	a5,0
  fff1013e70:	853e                	mv	a0,a5
  fff1013e72:	8082                	ret
  fff1013e74:	1141                	addi	sp,sp,-16
  fff1013e76:	e022                	sd	s0,0(sp)
  fff1013e78:	e406                	sd	ra,8(sp)
  fff1013e7a:	613c                	ld	a5,64(a0)
  fff1013e7c:	842a                	mv	s0,a0
  fff1013e7e:	679c                	ld	a5,8(a5)
  fff1013e80:	739c                	ld	a5,32(a5)
  fff1013e82:	e789                	bnez	a5,fff1013e8c <spl+0x3e0c>
  fff1013e84:	781c                	ld	a5,48(s0)
  fff1013e86:	eb89                	bnez	a5,fff1013e98 <spl+0x3e18>
  fff1013e88:	4501                	li	a0,0
  fff1013e8a:	a019                	j	fff1013e90 <spl+0x3e10>
  fff1013e8c:	9782                	jalr	a5
  fff1013e8e:	d97d                	beqz	a0,fff1013e84 <spl+0x3e04>
  fff1013e90:	60a2                	ld	ra,8(sp)
  fff1013e92:	6402                	ld	s0,0(sp)
  fff1013e94:	0141                	addi	sp,sp,16
  fff1013e96:	8082                	ret
  fff1013e98:	63bc                	ld	a5,64(a5)
  fff1013e9a:	679c                	ld	a5,8(a5)
  fff1013e9c:	63bc                	ld	a5,64(a5)
  fff1013e9e:	d7ed                	beqz	a5,fff1013e88 <spl+0x3e08>
  fff1013ea0:	8522                	mv	a0,s0
  fff1013ea2:	6402                	ld	s0,0(sp)
  fff1013ea4:	60a2                	ld	ra,8(sp)
  fff1013ea6:	0141                	addi	sp,sp,16
  fff1013ea8:	8782                	jr	a5
  fff1013eaa:	1141                	addi	sp,sp,-16
  fff1013eac:	e022                	sd	s0,0(sp)
  fff1013eae:	e406                	sd	ra,8(sp)
  fff1013eb0:	791c                	ld	a5,48(a0)
  fff1013eb2:	842a                	mv	s0,a0
  fff1013eb4:	eb99                	bnez	a5,fff1013eca <spl+0x3e4a>
  fff1013eb6:	603c                	ld	a5,64(s0)
  fff1013eb8:	4501                	li	a0,0
  fff1013eba:	679c                	ld	a5,8(a5)
  fff1013ebc:	779c                	ld	a5,40(a5)
  fff1013ebe:	cf81                	beqz	a5,fff1013ed6 <spl+0x3e56>
  fff1013ec0:	8522                	mv	a0,s0
  fff1013ec2:	6402                	ld	s0,0(sp)
  fff1013ec4:	60a2                	ld	ra,8(sp)
  fff1013ec6:	0141                	addi	sp,sp,16
  fff1013ec8:	8782                	jr	a5
  fff1013eca:	63bc                	ld	a5,64(a5)
  fff1013ecc:	679c                	ld	a5,8(a5)
  fff1013ece:	67bc                	ld	a5,72(a5)
  fff1013ed0:	d3fd                	beqz	a5,fff1013eb6 <spl+0x3e36>
  fff1013ed2:	9782                	jalr	a5
  fff1013ed4:	d16d                	beqz	a0,fff1013eb6 <spl+0x3e36>
  fff1013ed6:	60a2                	ld	ra,8(sp)
  fff1013ed8:	6402                	ld	s0,0(sp)
  fff1013eda:	0141                	addi	sp,sp,16
  fff1013edc:	8082                	ret
  fff1013ede:	7179                	addi	sp,sp,-48
  fff1013ee0:	ec26                	sd	s1,24(sp)
  fff1013ee2:	0024                	addi	s1,sp,8
  fff1013ee4:	85a6                	mv	a1,s1
  fff1013ee6:	f406                	sd	ra,40(sp)
  fff1013ee8:	f022                	sd	s0,32(sp)
  fff1013eea:	ed1ff0ef          	jal	ra,fff1013dba <spl+0x3d3a>
  fff1013eee:	842a                	mv	s0,a0
  fff1013ef0:	a029                	j	fff1013efa <spl+0x3e7a>
  fff1013ef2:	8526                	mv	a0,s1
  fff1013ef4:	f0dff0ef          	jal	ra,fff1013e00 <spl+0x3d80>
  fff1013ef8:	f97d                	bnez	a0,fff1013eee <spl+0x3e6e>
  fff1013efa:	67a2                	ld	a5,8(sp)
  fff1013efc:	fbfd                	bnez	a5,fff1013ef2 <spl+0x3e72>
  fff1013efe:	70a2                	ld	ra,40(sp)
  fff1013f00:	8522                	mv	a0,s0
  fff1013f02:	7402                	ld	s0,32(sp)
  fff1013f04:	64e2                	ld	s1,24(sp)
  fff1013f06:	6145                	addi	sp,sp,48
  fff1013f08:	8082                	ret
  fff1013f0a:	7179                	addi	sp,sp,-48
  fff1013f0c:	f022                	sd	s0,32(sp)
  fff1013f0e:	ec26                	sd	s1,24(sp)
  fff1013f10:	f406                	sd	ra,40(sp)
  fff1013f12:	84aa                	mv	s1,a0
  fff1013f14:	8eeff0ef          	jal	ra,fff1013002 <spl+0x2f82>
  fff1013f18:	842a                	mv	s0,a0
  fff1013f1a:	68c8                	ld	a0,144(s1)
  fff1013f1c:	468d                	li	a3,3
  fff1013f1e:	860a                	mv	a2,sp
  fff1013f20:	00004597          	auipc	a1,0x4
  fff1013f24:	39058593          	addi	a1,a1,912 # fff10182b0 <spl+0x8230>
  fff1013f28:	12e000ef          	jal	ra,fff1014056 <spl+0x3fd6>
  fff1013f2c:	e911                	bnez	a0,fff1013f40 <spl+0x3ec0>
  fff1013f2e:	00016783          	lwu	a5,0(sp)
  fff1013f32:	e01c                	sd	a5,0(s0)
  fff1013f34:	00416783          	lwu	a5,4(sp)
  fff1013f38:	e81c                	sd	a5,16(s0)
  fff1013f3a:	00816783          	lwu	a5,8(sp)
  fff1013f3e:	e41c                	sd	a5,8(s0)
  fff1013f40:	7402                	ld	s0,32(sp)
  fff1013f42:	70a2                	ld	ra,40(sp)
  fff1013f44:	8526                	mv	a0,s1
  fff1013f46:	64e2                	ld	s1,24(sp)
  fff1013f48:	6145                	addi	sp,sp,48
  fff1013f4a:	98bff06f          	j	fff10138d4 <spl+0x3854>
  fff1013f4e:	1141                	addi	sp,sp,-16
  fff1013f50:	e022                	sd	s0,0(sp)
  fff1013f52:	e406                	sd	ra,8(sp)
  fff1013f54:	842e                	mv	s0,a1
  fff1013f56:	8acff0ef          	jal	ra,fff1013002 <spl+0x2f82>
  fff1013f5a:	611c                	ld	a5,0(a0)
  fff1013f5c:	00f46963          	bltu	s0,a5,fff1013f6e <spl+0x3eee>
  fff1013f60:	6518                	ld	a4,8(a0)
  fff1013f62:	973e                	add	a4,a4,a5
  fff1013f64:	00e47563          	bgeu	s0,a4,fff1013f6e <spl+0x3eee>
  fff1013f68:	690c                	ld	a1,16(a0)
  fff1013f6a:	942e                	add	s0,s0,a1
  fff1013f6c:	8c1d                	sub	s0,s0,a5
  fff1013f6e:	60a2                	ld	ra,8(sp)
  fff1013f70:	8522                	mv	a0,s0
  fff1013f72:	6402                	ld	s0,0(sp)
  fff1013f74:	0141                	addi	sp,sp,16
  fff1013f76:	8082                	ret
  fff1013f78:	7179                	addi	sp,sp,-48
  fff1013f7a:	f022                	sd	s0,32(sp)
  fff1013f7c:	ec26                	sd	s1,24(sp)
  fff1013f7e:	f406                	sd	ra,40(sp)
  fff1013f80:	8432                	mv	s0,a2
  fff1013f82:	862e                	mv	a2,a1
  fff1013f84:	0005059b          	sext.w	a1,a0
  fff1013f88:	0d81b503          	ld	a0,216(gp)
  fff1013f8c:	84b6                	mv	s1,a3
  fff1013f8e:	0074                	addi	a3,sp,12
  fff1013f90:	80dfd0ef          	jal	ra,fff101179c <spl+0x171c>
  fff1013f94:	c531                	beqz	a0,fff1013fe0 <spl+0x3f60>
  fff1013f96:	4732                	lw	a4,12(sp)
  fff1013f98:	0014061b          	addiw	a2,s0,1
  fff1013f9c:	060a                	slli	a2,a2,0x2
  fff1013f9e:	87aa                	mv	a5,a0
  fff1013fa0:	fb500513          	li	a0,-75
  fff1013fa4:	02c76963          	bltu	a4,a2,fff1013fd6 <spl+0x3f56>
  fff1013fa8:	963e                	add	a2,a2,a5
  fff1013faa:	ffc62783          	lw	a5,-4(a2)
  fff1013fae:	00ff0637          	lui	a2,0xff0
  fff1013fb2:	4501                	li	a0,0
  fff1013fb4:	0187d69b          	srliw	a3,a5,0x18
  fff1013fb8:	0187971b          	slliw	a4,a5,0x18
  fff1013fbc:	8f55                	or	a4,a4,a3
  fff1013fbe:	0087969b          	slliw	a3,a5,0x8
  fff1013fc2:	8ef1                	and	a3,a3,a2
  fff1013fc4:	8f55                	or	a4,a4,a3
  fff1013fc6:	66c1                	lui	a3,0x10
  fff1013fc8:	0087d79b          	srliw	a5,a5,0x8
  fff1013fcc:	f0068693          	addi	a3,a3,-256 # ff00 <ROM_BASE-0xfff1000100>
  fff1013fd0:	8ff5                	and	a5,a5,a3
  fff1013fd2:	8fd9                	or	a5,a5,a4
  fff1013fd4:	c09c                	sw	a5,0(s1)
  fff1013fd6:	70a2                	ld	ra,40(sp)
  fff1013fd8:	7402                	ld	s0,32(sp)
  fff1013fda:	64e2                	ld	s1,24(sp)
  fff1013fdc:	6145                	addi	sp,sp,48
  fff1013fde:	8082                	ret
  fff1013fe0:	5529                	li	a0,-22
  fff1013fe2:	bfd5                	j	fff1013fd6 <spl+0x3f56>
  fff1013fe4:	86b2                	mv	a3,a2
  fff1013fe6:	4601                	li	a2,0
  fff1013fe8:	bf41                	j	fff1013f78 <spl+0x3ef8>
  fff1013fea:	1101                	addi	sp,sp,-32
  fff1013fec:	c632                	sw	a2,12(sp)
  fff1013fee:	0074                	addi	a3,sp,12
  fff1013ff0:	4601                	li	a2,0
  fff1013ff2:	ec06                	sd	ra,24(sp)
  fff1013ff4:	f85ff0ef          	jal	ra,fff1013f78 <spl+0x3ef8>
  fff1013ff8:	60e2                	ld	ra,24(sp)
  fff1013ffa:	4532                	lw	a0,12(sp)
  fff1013ffc:	6105                	addi	sp,sp,32
  fff1013ffe:	8082                	ret
  fff1014000:	1101                	addi	sp,sp,-32
  fff1014002:	e822                	sd	s0,16(sp)
  fff1014004:	ec06                	sd	ra,24(sp)
  fff1014006:	8432                	mv	s0,a2
  fff1014008:	862e                	mv	a2,a1
  fff101400a:	0005059b          	sext.w	a1,a0
  fff101400e:	0d81b503          	ld	a0,216(gp)
  fff1014012:	0074                	addi	a3,sp,12
  fff1014014:	f88fd0ef          	jal	ra,fff101179c <spl+0x171c>
  fff1014018:	e519                	bnez	a0,fff1014026 <spl+0x3fa6>
  fff101401a:	57fd                	li	a5,-1
  fff101401c:	e419                	bnez	s0,fff101402a <spl+0x3faa>
  fff101401e:	60e2                	ld	ra,24(sp)
  fff1014020:	6442                	ld	s0,16(sp)
  fff1014022:	6105                	addi	sp,sp,32
  fff1014024:	8082                	ret
  fff1014026:	dc65                	beqz	s0,fff101401e <spl+0x3f9e>
  fff1014028:	47b2                	lw	a5,12(sp)
  fff101402a:	c01c                	sw	a5,0(s0)
  fff101402c:	bfcd                	j	fff101401e <spl+0x3f9e>
  fff101402e:	1101                	addi	sp,sp,-32
  fff1014030:	0070                	addi	a2,sp,12
  fff1014032:	ec06                	sd	ra,24(sp)
  fff1014034:	e822                	sd	s0,16(sp)
  fff1014036:	fcbff0ef          	jal	ra,fff1014000 <spl+0x3f80>
  fff101403a:	c901                	beqz	a0,fff101404a <spl+0x3fca>
  fff101403c:	45b2                	lw	a1,12(sp)
  fff101403e:	842a                	mv	s0,a0
  fff1014040:	cfbfd0ef          	jal	ra,fff1011d3a <spl+0x1cba>
  fff1014044:	47b2                	lw	a5,12(sp)
  fff1014046:	00f56363          	bltu	a0,a5,fff101404c <spl+0x3fcc>
  fff101404a:	4401                	li	s0,0
  fff101404c:	60e2                	ld	ra,24(sp)
  fff101404e:	8522                	mv	a0,s0
  fff1014050:	6442                	ld	s0,16(sp)
  fff1014052:	6105                	addi	sp,sp,32
  fff1014054:	8082                	ret
  fff1014056:	0006871b          	sext.w	a4,a3
  fff101405a:	86b2                	mv	a3,a2
  fff101405c:	862e                	mv	a2,a1
  fff101405e:	0005059b          	sext.w	a1,a0
  fff1014062:	0d81b503          	ld	a0,216(gp)
  fff1014066:	989fd06f          	j	fff10119ee <spl+0x196e>
  fff101406a:	00054963          	bltz	a0,fff101407c <spl+0x3ffc>
  fff101406e:	0005059b          	sext.w	a1,a0
  fff1014072:	0d81b503          	ld	a0,216(gp)
  fff1014076:	4601                	li	a2,0
  fff1014078:	d1afd06f          	j	fff1011592 <spl+0x1512>
  fff101407c:	4501                	li	a0,0
  fff101407e:	8082                	ret
  fff1014080:	1141                	addi	sp,sp,-16
  fff1014082:	e406                	sd	ra,8(sp)
  fff1014084:	85aa                	mv	a1,a0
  fff1014086:	0d81b503          	ld	a0,216(gp)
  fff101408a:	823fd0ef          	jal	ra,fff10118ac <spl+0x182c>
  fff101408e:	57fd                	li	a5,-1
  fff1014090:	00054363          	bltz	a0,fff1014096 <spl+0x4016>
  fff1014094:	87aa                	mv	a5,a0
  fff1014096:	60a2                	ld	ra,8(sp)
  fff1014098:	0007851b          	sext.w	a0,a5
  fff101409c:	0141                	addi	sp,sp,16
  fff101409e:	8082                	ret
  fff10140a0:	1101                	addi	sp,sp,-32
  fff10140a2:	e822                	sd	s0,16(sp)
  fff10140a4:	842a                	mv	s0,a0
  fff10140a6:	00004517          	auipc	a0,0x4
  fff10140aa:	b5250513          	addi	a0,a0,-1198 # fff1017bf8 <spl+0x7b78>
  fff10140ae:	ec06                	sd	ra,24(sp)
  fff10140b0:	e42e                	sd	a1,8(sp)
  fff10140b2:	fcfff0ef          	jal	ra,fff1014080 <spl+0x4000>
  fff10140b6:	85a2                	mv	a1,s0
  fff10140b8:	6442                	ld	s0,16(sp)
  fff10140ba:	6622                	ld	a2,8(sp)
  fff10140bc:	60e2                	ld	ra,24(sp)
  fff10140be:	6105                	addi	sp,sp,32
  fff10140c0:	b781                	j	fff1014000 <spl+0x3f80>
  fff10140c2:	1141                	addi	sp,sp,-16
  fff10140c4:	4581                	li	a1,0
  fff10140c6:	e406                	sd	ra,8(sp)
  fff10140c8:	fd9ff0ef          	jal	ra,fff10140a0 <spl+0x4020>
  fff10140cc:	c501                	beqz	a0,fff10140d4 <spl+0x4054>
  fff10140ce:	60a2                	ld	ra,8(sp)
  fff10140d0:	0141                	addi	sp,sp,16
  fff10140d2:	b77d                	j	fff1014080 <spl+0x4000>
  fff10140d4:	60a2                	ld	ra,8(sp)
  fff10140d6:	557d                	li	a0,-1
  fff10140d8:	0141                	addi	sp,sp,16
  fff10140da:	8082                	ret
  fff10140dc:	86b2                	mv	a3,a2
  fff10140de:	862e                	mv	a2,a1
  fff10140e0:	0005059b          	sext.w	a1,a0
  fff10140e4:	0d81b503          	ld	a0,216(gp)
  fff10140e8:	eb4fd06f          	j	fff101179c <spl+0x171c>
  fff10140ec:	4505                	li	a0,1
  fff10140ee:	8082                	ret
  fff10140f0:	7179                	addi	sp,sp,-48
  fff10140f2:	f022                	sd	s0,32(sp)
  fff10140f4:	ec26                	sd	s1,24(sp)
  fff10140f6:	e84a                	sd	s2,16(sp)
  fff10140f8:	e44e                	sd	s3,8(sp)
  fff10140fa:	e052                	sd	s4,0(sp)
  fff10140fc:	f406                	sd	ra,40(sp)
  fff10140fe:	84aa                	mv	s1,a0
  fff1014100:	892e                	mv	s2,a1
  fff1014102:	89b2                	mv	s3,a2
  fff1014104:	8436                	mv	s0,a3
  fff1014106:	5a7d                	li	s4,-1
  fff1014108:	864e                	mv	a2,s3
  fff101410a:	85ca                	mv	a1,s2
  fff101410c:	8526                	mv	a0,s1
  fff101410e:	3a2010ef          	jal	ra,fff10154b0 <spl+0x5430>
  fff1014112:	c501                	beqz	a0,fff101411a <spl+0x409a>
  fff1014114:	347d                	addiw	s0,s0,-1
  fff1014116:	ff4419e3          	bne	s0,s4,fff1014108 <spl+0x4088>
  fff101411a:	70a2                	ld	ra,40(sp)
  fff101411c:	7402                	ld	s0,32(sp)
  fff101411e:	64e2                	ld	s1,24(sp)
  fff1014120:	6942                	ld	s2,16(sp)
  fff1014122:	69a2                	ld	s3,8(sp)
  fff1014124:	6a02                	ld	s4,0(sp)
  fff1014126:	6145                	addi	sp,sp,48
  fff1014128:	8082                	ret
  fff101412a:	7179                	addi	sp,sp,-48
  fff101412c:	4785                	li	a5,1
  fff101412e:	f022                	sd	s0,32(sp)
  fff1014130:	f406                	sd	ra,40(sp)
  fff1014132:	00f11023          	sh	a5,0(sp)
  fff1014136:	c23e                	sw	a5,4(sp)
  fff1014138:	c402                	sw	zero,8(sp)
  fff101413a:	842a                	mv	s0,a0
  fff101413c:	c195                	beqz	a1,fff1014160 <spl+0x40e0>
  fff101413e:	611c                	ld	a5,0(a0)
  fff1014140:	5d58                	lw	a4,60(a0)
  fff1014142:	008006b7          	lui	a3,0x800
  fff1014146:	47dc                	lw	a5,12(a5)
  fff1014148:	f8068693          	addi	a3,a3,-128 # 7fff80 <ROM_BASE-0xfff0810080>
  fff101414c:	8ff9                	and	a5,a5,a4
  fff101414e:	8ff5                	and	a5,a5,a3
  fff1014150:	600006b7          	lui	a3,0x60000
  fff1014154:	8f75                	and	a4,a4,a3
  fff1014156:	8fd9                	or	a5,a5,a4
  fff1014158:	40000737          	lui	a4,0x40000
  fff101415c:	8fd9                	or	a5,a5,a4
  fff101415e:	c43e                	sw	a5,8(sp)
  fff1014160:	4601                	li	a2,0
  fff1014162:	858a                	mv	a1,sp
  fff1014164:	8522                	mv	a0,s0
  fff1014166:	34a010ef          	jal	ra,fff10154b0 <spl+0x5430>
  fff101416a:	e119                	bnez	a0,fff1014170 <spl+0x40f0>
  fff101416c:	47b2                	lw	a5,12(sp)
  fff101416e:	dc5c                	sw	a5,60(s0)
  fff1014170:	70a2                	ld	ra,40(sp)
  fff1014172:	7402                	ld	s0,32(sp)
  fff1014174:	6145                	addi	sp,sp,48
  fff1014176:	8082                	ret
  fff1014178:	7179                	addi	sp,sp,-48
  fff101417a:	f022                	sd	s0,32(sp)
  fff101417c:	842a                	mv	s0,a0
  fff101417e:	3e800513          	li	a0,1000
  fff1014182:	f406                	sd	ra,40(sp)
  fff1014184:	d25fd0ef          	jal	ra,fff1011ea8 <spl+0x1e28>
  fff1014188:	8522                	mv	a0,s0
  fff101418a:	4601                	li	a2,0
  fff101418c:	858a                	mv	a1,sp
  fff101418e:	00011023          	sh	zero,0(sp)
  fff1014192:	c402                	sw	zero,8(sp)
  fff1014194:	c202                	sw	zero,4(sp)
  fff1014196:	31a010ef          	jal	ra,fff10154b0 <spl+0x5430>
  fff101419a:	842a                	mv	s0,a0
  fff101419c:	e509                	bnez	a0,fff10141a6 <spl+0x4126>
  fff101419e:	7d000513          	li	a0,2000
  fff10141a2:	d07fd0ef          	jal	ra,fff1011ea8 <spl+0x1e28>
  fff10141a6:	70a2                	ld	ra,40(sp)
  fff10141a8:	8522                	mv	a0,s0
  fff10141aa:	7402                	ld	s0,32(sp)
  fff10141ac:	6145                	addi	sp,sp,48
  fff10141ae:	8082                	ret
  fff10141b0:	470d                	li	a4,3
  fff10141b2:	04e58963          	beq	a1,a4,fff1014204 <spl+0x4184>
  fff10141b6:	02b74f63          	blt	a4,a1,fff10141f4 <spl+0x4174>
  fff10141ba:	c1b9                	beqz	a1,fff1014200 <spl+0x4180>
  fff10141bc:	35fd                	addiw	a1,a1,-1
  fff10141be:	4705                	li	a4,1
  fff10141c0:	57fd                	li	a5,-1
  fff10141c2:	02b76d63          	bltu	a4,a1,fff10141fc <spl+0x417c>
  fff10141c6:	6d5c                	ld	a5,152(a0)
  fff10141c8:	1101                	addi	sp,sp,-32
  fff10141ca:	e55c                	sd	a5,136(a0)
  fff10141cc:	ec06                	sd	ra,24(sp)
  fff10141ce:	e822                	sd	s0,16(sp)
  fff10141d0:	e426                	sd	s1,8(sp)
  fff10141d2:	08052483          	lw	s1,128(a0)
  fff10141d6:	6540                	ld	s0,136(a0)
  fff10141d8:	394010ef          	jal	ra,fff101556c <spl+0x54ec>
  fff10141dc:	1482                	slli	s1,s1,0x20
  fff10141de:	9081                	srli	s1,s1,0x20
  fff10141e0:	02945433          	divu	s0,s0,s1
  fff10141e4:	4781                	li	a5,0
  fff10141e6:	e900                	sd	s0,16(a0)
  fff10141e8:	60e2                	ld	ra,24(sp)
  fff10141ea:	6442                	ld	s0,16(sp)
  fff10141ec:	64a2                	ld	s1,8(sp)
  fff10141ee:	853e                	mv	a0,a5
  fff10141f0:	6105                	addi	sp,sp,32
  fff10141f2:	8082                	ret
  fff10141f4:	35f1                	addiw	a1,a1,-4
  fff10141f6:	57fd                	li	a5,-1
  fff10141f8:	00b77863          	bgeu	a4,a1,fff1014208 <spl+0x4188>
  fff10141fc:	853e                	mv	a0,a5
  fff10141fe:	8082                	ret
  fff1014200:	695c                	ld	a5,144(a0)
  fff1014202:	b7d9                	j	fff10141c8 <spl+0x4148>
  fff1014204:	715c                	ld	a5,160(a0)
  fff1014206:	b7c9                	j	fff10141c8 <spl+0x4148>
  fff1014208:	05d1                	addi	a1,a1,20
  fff101420a:	058e                	slli	a1,a1,0x3
  fff101420c:	95aa                	add	a1,a1,a0
  fff101420e:	659c                	ld	a5,8(a1)
  fff1014210:	bf65                	j	fff10141c8 <spl+0x4148>
  fff1014212:	7179                	addi	sp,sp,-48
  fff1014214:	47b5                	li	a5,13
  fff1014216:	f022                	sd	s0,32(sp)
  fff1014218:	f406                	sd	ra,40(sp)
  fff101421a:	00f11023          	sh	a5,0(sp)
  fff101421e:	47d5                	li	a5,21
  fff1014220:	c23e                	sw	a5,4(sp)
  fff1014222:	07055783          	lhu	a5,112(a0)
  fff1014226:	842e                	mv	s0,a1
  fff1014228:	4691                	li	a3,4
  fff101422a:	0107979b          	slliw	a5,a5,0x10
  fff101422e:	4601                	li	a2,0
  fff1014230:	858a                	mv	a1,sp
  fff1014232:	c43e                	sw	a5,8(sp)
  fff1014234:	ebdff0ef          	jal	ra,fff10140f0 <spl+0x4070>
  fff1014238:	e119                	bnez	a0,fff101423e <spl+0x41be>
  fff101423a:	47b2                	lw	a5,12(sp)
  fff101423c:	c01c                	sw	a5,0(s0)
  fff101423e:	70a2                	ld	ra,40(sp)
  fff1014240:	7402                	ld	s0,32(sp)
  fff1014242:	6145                	addi	sp,sp,48
  fff1014244:	8082                	ret
  fff1014246:	7159                	addi	sp,sp,-112
  fff1014248:	eca6                	sd	s1,88(sp)
  fff101424a:	f486                	sd	ra,104(sp)
  fff101424c:	f0a2                	sd	s0,96(sp)
  fff101424e:	e8ca                	sd	s2,80(sp)
  fff1014250:	e4ce                	sd	s3,72(sp)
  fff1014252:	e0d2                	sd	s4,64(sp)
  fff1014254:	fc56                	sd	s5,56(sp)
  fff1014256:	4705                	li	a4,1
  fff1014258:	84aa                	mv	s1,a0
  fff101425a:	4781                	li	a5,0
  fff101425c:	00e59663          	bne	a1,a4,fff1014268 <spl+0x41e8>
  fff1014260:	f4d60793          	addi	a5,a2,-179 # feff4d <ROM_BASE-0xfff00200b3>
  fff1014264:	0017b793          	seqz	a5,a5
  fff1014268:	0764c703          	lbu	a4,118(s1)
  fff101426c:	1f400413          	li	s0,500
  fff1014270:	c701                	beqz	a4,fff1014278 <spl+0x41f8>
  fff1014272:	4429                	li	s0,10
  fff1014274:	02e4043b          	mulw	s0,s0,a4
  fff1014278:	c799                	beqz	a5,fff1014286 <spl+0x4206>
  fff101427a:	0774c783          	lbu	a5,119(s1)
  fff101427e:	c781                	beqz	a5,fff1014286 <spl+0x4206>
  fff1014280:	4429                	li	s0,10
  fff1014282:	02f4043b          	mulw	s0,s0,a5
  fff1014286:	4799                	li	a5,6
  fff1014288:	00f11823          	sh	a5,16(sp)
  fff101428c:	0086969b          	slliw	a3,a3,0x8
  fff1014290:	47f5                	li	a5,29
  fff1014292:	0106161b          	slliw	a2,a2,0x10
  fff1014296:	ca3e                	sw	a5,20(sp)
  fff1014298:	8e55                	or	a2,a2,a3
  fff101429a:	030007b7          	lui	a5,0x3000
  fff101429e:	8e5d                	or	a2,a2,a5
  fff10142a0:	cc32                	sw	a2,24(sp)
  fff10142a2:	468d                	li	a3,3
  fff10142a4:	4601                	li	a2,0
  fff10142a6:	080c                	addi	a1,sp,16
  fff10142a8:	8526                	mv	a0,s1
  fff10142aa:	e47ff0ef          	jal	ra,fff10140f0 <spl+0x4070>
  fff10142ae:	87aa                	mv	a5,a0
  fff10142b0:	e535                	bnez	a0,fff101431c <spl+0x429c>
  fff10142b2:	b77fd0ef          	jal	ra,fff1011e28 <spl+0x1da8>
  fff10142b6:	3e800613          	li	a2,1000
  fff10142ba:	0286063b          	mulw	a2,a2,s0
  fff10142be:	892a                	mv	s2,a0
  fff10142c0:	4585                	li	a1,1
  fff10142c2:	8526                	mv	a0,s1
  fff10142c4:	142010ef          	jal	ra,fff1015406 <spl+0x5386>
  fff10142c8:	87aa                	mv	a5,a0
  fff10142ca:	c509                	beqz	a0,fff10142d4 <spl+0x4254>
  fff10142cc:	fda00713          	li	a4,-38
  fff10142d0:	04e51663          	bne	a0,a4,fff101431c <spl+0x429c>
  fff10142d4:	6989                	lui	s3,0x2
  fff10142d6:	6a05                	lui	s4,0x1
  fff10142d8:	1902                	slli	s2,s2,0x20
  fff10142da:	00c10a93          	addi	s5,sp,12
  fff10142de:	f0098993          	addi	s3,s3,-256 # 1f00 <ROM_BASE-0xfff100e100>
  fff10142e2:	900a0a13          	addi	s4,s4,-1792 # 900 <ROM_BASE-0xfff100f700>
  fff10142e6:	02095913          	srli	s2,s2,0x20
  fff10142ea:	85d6                	mv	a1,s5
  fff10142ec:	8526                	mv	a0,s1
  fff10142ee:	f25ff0ef          	jal	ra,fff1014212 <spl+0x4192>
  fff10142f2:	87aa                	mv	a5,a0
  fff10142f4:	e909                	bnez	a0,fff1014306 <spl+0x4286>
  fff10142f6:	4732                	lw	a4,12(sp)
  fff10142f8:	08077693          	andi	a3,a4,128
  fff10142fc:	ea95                	bnez	a3,fff1014330 <spl+0x42b0>
  fff10142fe:	01377733          	and	a4,a4,s3
  fff1014302:	01470d63          	beq	a4,s4,fff101431c <spl+0x429c>
  fff1014306:	06400513          	li	a0,100
  fff101430a:	b9ffd0ef          	jal	ra,fff1011ea8 <spl+0x1e28>
  fff101430e:	854a                	mv	a0,s2
  fff1014310:	b19fd0ef          	jal	ra,fff1011e28 <spl+0x1da8>
  fff1014314:	fc856be3          	bltu	a0,s0,fff10142ea <spl+0x426a>
  fff1014318:	f9200793          	li	a5,-110
  fff101431c:	70a6                	ld	ra,104(sp)
  fff101431e:	7406                	ld	s0,96(sp)
  fff1014320:	64e6                	ld	s1,88(sp)
  fff1014322:	6946                	ld	s2,80(sp)
  fff1014324:	69a6                	ld	s3,72(sp)
  fff1014326:	6a06                	ld	s4,64(sp)
  fff1014328:	7ae2                	ld	s5,56(sp)
  fff101432a:	853e                	mv	a0,a5
  fff101432c:	6165                	addi	sp,sp,112
  fff101432e:	8082                	ret
  fff1014330:	57ed                	li	a5,-5
  fff1014332:	b7ed                	j	fff101431c <spl+0x429c>
  fff1014334:	0cc52703          	lw	a4,204(a0)
  fff1014338:	eb0d                	bnez	a4,fff101436a <spl+0x42ea>
  fff101433a:	7179                	addi	sp,sp,-48
  fff101433c:	f406                	sd	ra,40(sp)
  fff101433e:	0f052783          	lw	a5,240(a0)
  fff1014342:	4741                	li	a4,16
  fff1014344:	00e11023          	sh	a4,0(sp)
  fff1014348:	4755                	li	a4,21
  fff101434a:	c42e                	sw	a1,8(sp)
  fff101434c:	c23a                	sw	a4,4(sp)
  fff101434e:	8b89                	andi	a5,a5,2
  fff1014350:	858a                	mv	a1,sp
  fff1014352:	cb81                	beqz	a5,fff1014362 <spl+0x42e2>
  fff1014354:	4691                	li	a3,4
  fff1014356:	4601                	li	a2,0
  fff1014358:	d99ff0ef          	jal	ra,fff10140f0 <spl+0x4070>
  fff101435c:	70a2                	ld	ra,40(sp)
  fff101435e:	6145                	addi	sp,sp,48
  fff1014360:	8082                	ret
  fff1014362:	4601                	li	a2,0
  fff1014364:	14c010ef          	jal	ra,fff10154b0 <spl+0x5430>
  fff1014368:	bfd5                	j	fff101435c <spl+0x42dc>
  fff101436a:	4501                	li	a0,0
  fff101436c:	8082                	ret
  fff101436e:	7131                	addi	sp,sp,-192
  fff1014370:	f526                	sd	s1,168(sp)
  fff1014372:	84b2                	mv	s1,a2
  fff1014374:	ed4e                	sd	s3,152(sp)
  fff1014376:	e952                	sd	s4,144(sp)
  fff1014378:	fd06                	sd	ra,184(sp)
  fff101437a:	f922                	sd	s0,176(sp)
  fff101437c:	f14a                	sd	s2,160(sp)
  fff101437e:	e556                	sd	s5,136(sp)
  fff1014380:	e15a                	sd	s6,128(sp)
  fff1014382:	fcde                	sd	s7,120(sp)
  fff1014384:	f8e2                	sd	s8,112(sp)
  fff1014386:	f4e6                	sd	s9,104(sp)
  fff1014388:	f0ea                	sd	s10,96(sp)
  fff101438a:	ecee                	sd	s11,88(sp)
  fff101438c:	8a2e                	mv	s4,a1
  fff101438e:	89b6                	mv	s3,a3
  fff1014390:	c73fe0ef          	jal	ra,fff1013002 <spl+0x2f82>
  fff1014394:	e095                	bnez	s1,fff10143b8 <spl+0x4338>
  fff1014396:	4481                	li	s1,0
  fff1014398:	70ea                	ld	ra,184(sp)
  fff101439a:	744a                	ld	s0,176(sp)
  fff101439c:	790a                	ld	s2,160(sp)
  fff101439e:	69ea                	ld	s3,152(sp)
  fff10143a0:	6a4a                	ld	s4,144(sp)
  fff10143a2:	6aaa                	ld	s5,136(sp)
  fff10143a4:	6b0a                	ld	s6,128(sp)
  fff10143a6:	7be6                	ld	s7,120(sp)
  fff10143a8:	7c46                	ld	s8,112(sp)
  fff10143aa:	7ca6                	ld	s9,104(sp)
  fff10143ac:	7d06                	ld	s10,96(sp)
  fff10143ae:	6de6                	ld	s11,88(sp)
  fff10143b0:	8526                	mv	a0,s1
  fff10143b2:	74aa                	ld	s1,168(sp)
  fff10143b4:	6129                	addi	sp,sp,192
  fff10143b6:	8082                	ret
  fff10143b8:	892a                	mv	s2,a0
  fff10143ba:	4148                	lw	a0,4(a0)
  fff10143bc:	17a010ef          	jal	ra,fff1015536 <spl+0x54b6>
  fff10143c0:	842a                	mv	s0,a0
  fff10143c2:	d971                	beqz	a0,fff1014396 <spl+0x4316>
  fff10143c4:	00b94583          	lbu	a1,11(s2)
  fff10143c8:	854a                	mv	a0,s2
  fff10143ca:	901fe0ef          	jal	ra,fff1012cca <spl+0x2c4a>
  fff10143ce:	fc0544e3          	bltz	a0,fff1014396 <spl+0x4316>
  fff10143d2:	01093603          	ld	a2,16(s2)
  fff10143d6:	014485b3          	add	a1,s1,s4
  fff10143da:	00b67963          	bgeu	a2,a1,fff10143ec <spl+0x436c>
  fff10143de:	00004517          	auipc	a0,0x4
  fff10143e2:	9e250513          	addi	a0,a0,-1566 # fff1017dc0 <spl+0x7d40>
  fff10143e6:	e55fd0ef          	jal	ra,fff101223a <spl+0x21ba>
  fff10143ea:	b775                	j	fff1014396 <spl+0x4316>
  fff10143ec:	08042583          	lw	a1,128(s0)
  fff10143f0:	8522                	mv	a0,s0
  fff10143f2:	f43ff0ef          	jal	ra,fff1014334 <spl+0x42b4>
  fff10143f6:	f145                	bnez	a0,fff1014396 <spl+0x4316>
  fff10143f8:	8626                	mv	a2,s1
  fff10143fa:	85ce                	mv	a1,s3
  fff10143fc:	8522                	mv	a0,s0
  fff10143fe:	078010ef          	jal	ra,fff1015476 <spl+0x53f6>
  fff1014402:	02051a93          	slli	s5,a0,0x20
  fff1014406:	083c                	addi	a5,sp,24
  fff1014408:	8c26                	mv	s8,s1
  fff101440a:	020ada93          	srli	s5,s5,0x20
  fff101440e:	4b05                	li	s6,1
  fff1014410:	e43e                	sd	a5,8(sp)
  fff1014412:	03010b93          	addi	s7,sp,48
  fff1014416:	4d31                	li	s10,12
  fff1014418:	4df5                	li	s11,29
  fff101441a:	8cd6                	mv	s9,s5
  fff101441c:	015c7363          	bgeu	s8,s5,fff1014422 <spl+0x43a2>
  fff1014420:	8ce2                	mv	s9,s8
  fff1014422:	019b36b3          	sltu	a3,s6,s9
  fff1014426:	06c5                	addi	a3,a3,17
  fff1014428:	02d11823          	sh	a3,48(sp)
  fff101442c:	4c54                	lw	a3,28(s0)
  fff101442e:	08042583          	lw	a1,128(s0)
  fff1014432:	000a061b          	sext.w	a2,s4
  fff1014436:	e299                	bnez	a3,fff101443c <spl+0x43bc>
  fff1014438:	02c5863b          	mulw	a2,a1,a2
  fff101443c:	dc32                	sw	a2,56(sp)
  fff101443e:	6622                	ld	a2,8(sp)
  fff1014440:	47d5                	li	a5,21
  fff1014442:	d42e                	sw	a1,40(sp)
  fff1014444:	8522                	mv	a0,s0
  fff1014446:	85de                	mv	a1,s7
  fff1014448:	da3e                	sw	a5,52(sp)
  fff101444a:	ec4e                	sd	s3,24(sp)
  fff101444c:	d266                	sw	s9,36(sp)
  fff101444e:	d05a                	sw	s6,32(sp)
  fff1014450:	060010ef          	jal	ra,fff10154b0 <spl+0x5430>
  fff1014454:	892a                	mv	s2,a0
  fff1014456:	e139                	bnez	a0,fff101449c <spl+0x441c>
  fff1014458:	039b7f63          	bgeu	s6,s9,fff1014496 <spl+0x4416>
  fff101445c:	4601                	li	a2,0
  fff101445e:	85de                	mv	a1,s7
  fff1014460:	8522                	mv	a0,s0
  fff1014462:	03a11823          	sh	s10,48(sp)
  fff1014466:	dc02                	sw	zero,56(sp)
  fff1014468:	da6e                	sw	s11,52(sp)
  fff101446a:	046010ef          	jal	ra,fff10154b0 <spl+0x5430>
  fff101446e:	c505                	beqz	a0,fff1014496 <spl+0x4416>
  fff1014470:	00004517          	auipc	a0,0x4
  fff1014474:	98050513          	addi	a0,a0,-1664 # fff1017df0 <spl+0x7d70>
  fff1014478:	dc3fd0ef          	jal	ra,fff101223a <spl+0x21ba>
  fff101447c:	f1991de3          	bne	s2,s9,fff1014396 <spl+0x4316>
  fff1014480:	08046503          	lwu	a0,128(s0)
  fff1014484:	412c0c33          	sub	s8,s8,s2
  fff1014488:	9a4a                	add	s4,s4,s2
  fff101448a:	03250933          	mul	s2,a0,s2
  fff101448e:	99ca                	add	s3,s3,s2
  fff1014490:	f80c15e3          	bnez	s8,fff101441a <spl+0x439a>
  fff1014494:	b711                	j	fff1014398 <spl+0x4318>
  fff1014496:	000c891b          	sext.w	s2,s9
  fff101449a:	b7cd                	j	fff101447c <spl+0x43fc>
  fff101449c:	4901                	li	s2,0
  fff101449e:	bff9                	j	fff101447c <spl+0x43fc>
  fff10144a0:	715d                	addi	sp,sp,-80
  fff10144a2:	47a1                	li	a5,8
  fff10144a4:	02f11023          	sh	a5,32(sp)
  fff10144a8:	47d5                	li	a5,21
  fff10144aa:	d23e                	sw	a5,36(sp)
  fff10144ac:	4785                	li	a5,1
  fff10144ae:	1782                	slli	a5,a5,0x20
  fff10144b0:	0785                	addi	a5,a5,1
  fff10144b2:	e42e                	sd	a1,8(sp)
  fff10144b4:	e83e                	sd	a5,16(sp)
  fff10144b6:	0030                	addi	a2,sp,8
  fff10144b8:	20000793          	li	a5,512
  fff10144bc:	100c                	addi	a1,sp,32
  fff10144be:	e486                	sd	ra,72(sp)
  fff10144c0:	d402                	sw	zero,40(sp)
  fff10144c2:	cc3e                	sw	a5,24(sp)
  fff10144c4:	7ed000ef          	jal	ra,fff10154b0 <spl+0x5430>
  fff10144c8:	60a6                	ld	ra,72(sp)
  fff10144ca:	6161                	addi	sp,sp,80
  fff10144cc:	8082                	ret
  fff10144ce:	4514                	lw	a3,8(a0)
  fff10144d0:	40040737          	lui	a4,0x40040
  fff10144d4:	06e6ef63          	bltu	a3,a4,fff1014552 <spl+0x44d2>
  fff10144d8:	dc010113          	addi	sp,sp,-576
  fff10144dc:	22813823          	sd	s0,560(sp)
  fff10144e0:	01f10413          	addi	s0,sp,31
  fff10144e4:	9801                	andi	s0,s0,-32
  fff10144e6:	22113c23          	sd	ra,568(sp)
  fff10144ea:	22913423          	sd	s1,552(sp)
  fff10144ee:	85a2                	mv	a1,s0
  fff10144f0:	6d64                	ld	s1,216(a0)
  fff10144f2:	fafff0ef          	jal	ra,fff10144a0 <spl+0x4420>
  fff10144f6:	e909                	bnez	a0,fff1014508 <spl+0x4488>
  fff10144f8:	0a04c703          	lbu	a4,160(s1)
  fff10144fc:	0a044783          	lbu	a5,160(s0)
  fff1014500:	00f70d63          	beq	a4,a5,fff101451a <spl+0x449a>
  fff1014504:	fb600513          	li	a0,-74
  fff1014508:	23813083          	ld	ra,568(sp)
  fff101450c:	23013403          	ld	s0,560(sp)
  fff1014510:	22813483          	ld	s1,552(sp)
  fff1014514:	24010113          	addi	sp,sp,576
  fff1014518:	8082                	ret
  fff101451a:	0dd4c703          	lbu	a4,221(s1)
  fff101451e:	0dd44783          	lbu	a5,221(s0)
  fff1014522:	fef711e3          	bne	a4,a5,fff1014504 <spl+0x4484>
  fff1014526:	0c04c703          	lbu	a4,192(s1)
  fff101452a:	0c044783          	lbu	a5,192(s0)
  fff101452e:	fcf71be3          	bne	a4,a5,fff1014504 <spl+0x4484>
  fff1014532:	0e04c703          	lbu	a4,224(s1)
  fff1014536:	0e044783          	lbu	a5,224(s0)
  fff101453a:	fcf715e3          	bne	a4,a5,fff1014504 <spl+0x4484>
  fff101453e:	4611                	li	a2,4
  fff1014540:	0d440593          	addi	a1,s0,212
  fff1014544:	0d448513          	addi	a0,s1,212
  fff1014548:	835fd0ef          	jal	ra,fff1011d7c <spl+0x1cfc>
  fff101454c:	fd45                	bnez	a0,fff1014504 <spl+0x4484>
  fff101454e:	4501                	li	a0,0
  fff1014550:	bf65                	j	fff1014508 <spl+0x4488>
  fff1014552:	4501                	li	a0,0
  fff1014554:	8082                	ret
  fff1014556:	dc010113          	addi	sp,sp,-576
  fff101455a:	22813823          	sd	s0,560(sp)
  fff101455e:	23213023          	sd	s2,544(sp)
  fff1014562:	22113c23          	sd	ra,568(sp)
  fff1014566:	22913423          	sd	s1,552(sp)
  fff101456a:	4785                	li	a5,1
  fff101456c:	892a                	mv	s2,a0
  fff101456e:	842e                	mv	s0,a1
  fff1014570:	00f58a63          	beq	a1,a5,fff1014584 <spl+0x4504>
  fff1014574:	4681                	li	a3,0
  fff1014576:	00b7f863          	bgeu	a5,a1,fff1014586 <spl+0x4506>
  fff101457a:	ffd5871b          	addiw	a4,a1,-3
  fff101457e:	54a9                	li	s1,-22
  fff1014580:	02e7ec63          	bltu	a5,a4,fff10145b8 <spl+0x4538>
  fff1014584:	4685                	li	a3,1
  fff1014586:	0b900613          	li	a2,185
  fff101458a:	4585                	li	a1,1
  fff101458c:	854a                	mv	a0,s2
  fff101458e:	cb9ff0ef          	jal	ra,fff1014246 <spl+0x41c6>
  fff1014592:	84aa                	mv	s1,a0
  fff1014594:	e115                	bnez	a0,fff10145b8 <spl+0x4538>
  fff1014596:	9875                	andi	s0,s0,-3
  fff1014598:	4785                	li	a5,1
  fff101459a:	00f41f63          	bne	s0,a5,fff10145b8 <spl+0x4538>
  fff101459e:	01f10413          	addi	s0,sp,31
  fff10145a2:	9801                	andi	s0,s0,-32
  fff10145a4:	85a2                	mv	a1,s0
  fff10145a6:	854a                	mv	a0,s2
  fff10145a8:	ef9ff0ef          	jal	ra,fff10144a0 <spl+0x4420>
  fff10145ac:	e115                	bnez	a0,fff10145d0 <spl+0x4550>
  fff10145ae:	0b944783          	lbu	a5,185(s0)
  fff10145b2:	e399                	bnez	a5,fff10145b8 <spl+0x4538>
  fff10145b4:	df400493          	li	s1,-524
  fff10145b8:	23813083          	ld	ra,568(sp)
  fff10145bc:	23013403          	ld	s0,560(sp)
  fff10145c0:	22013903          	ld	s2,544(sp)
  fff10145c4:	8526                	mv	a0,s1
  fff10145c6:	22813483          	ld	s1,552(sp)
  fff10145ca:	24010113          	addi	sp,sp,576
  fff10145ce:	8082                	ret
  fff10145d0:	84aa                	mv	s1,a0
  fff10145d2:	b7dd                	j	fff10145b8 <spl+0x4538>
  fff10145d4:	c73ff06f          	j	fff1014246 <spl+0x41c6>
  fff10145d8:	db010113          	addi	sp,sp,-592
  fff10145dc:	23213823          	sd	s2,560(sp)
  fff10145e0:	24113423          	sd	ra,584(sp)
  fff10145e4:	24813023          	sd	s0,576(sp)
  fff10145e8:	22913c23          	sd	s1,568(sp)
  fff10145ec:	23313423          	sd	s3,552(sp)
  fff10145f0:	4518                	lw	a4,8(a0)
  fff10145f2:	bffc07b7          	lui	a5,0xbffc0
  fff10145f6:	4901                	li	s2,0
  fff10145f8:	9fb9                	addw	a5,a5,a4
  fff10145fa:	3ffc0737          	lui	a4,0x3ffc0
  fff10145fe:	18e7f463          	bgeu	a5,a4,fff1014786 <spl+0x4706>
  fff1014602:	01f10413          	addi	s0,sp,31
  fff1014606:	9801                	andi	s0,s0,-32
  fff1014608:	85a2                	mv	a1,s0
  fff101460a:	84aa                	mv	s1,a0
  fff101460c:	e95ff0ef          	jal	ra,fff10144a0 <spl+0x4420>
  fff1014610:	892a                	mv	s2,a0
  fff1014612:	18051963          	bnez	a0,fff10147a4 <spl+0x4724>
  fff1014616:	6cfc                	ld	a5,216(s1)
  fff1014618:	e791                	bnez	a5,fff1014624 <spl+0x45a4>
  fff101461a:	20000513          	li	a0,512
  fff101461e:	b51fc0ef          	jal	ra,fff101116e <spl+0x10ee>
  fff1014622:	ece8                	sd	a0,216(s1)
  fff1014624:	6ce8                	ld	a0,216(s1)
  fff1014626:	18050463          	beqz	a0,fff10147ae <spl+0x472e>
  fff101462a:	20000613          	li	a2,512
  fff101462e:	85a2                	mv	a1,s0
  fff1014630:	b70fc0ef          	jal	ra,fff10109a0 <spl+0x920>
  fff1014634:	0c044783          	lbu	a5,192(s0)
  fff1014638:	4721                	li	a4,8
  fff101463a:	16f76c63          	bltu	a4,a5,fff10147b2 <spl+0x4732>
  fff101463e:	00004717          	auipc	a4,0x4
  fff1014642:	8ca70713          	addi	a4,a4,-1846 # fff1017f08 <spl+0x7e88>
  fff1014646:	078a                	slli	a5,a5,0x2
  fff1014648:	97ba                	add	a5,a5,a4
  fff101464a:	4398                	lw	a4,0(a5)
  fff101464c:	400407b7          	lui	a5,0x40040
  fff1014650:	1ff78793          	addi	a5,a5,511 # 400401ff <ROM_BASE-0xffb0fcfe01>
  fff1014654:	c498                	sw	a4,8(s1)
  fff1014656:	02e7f763          	bgeu	a5,a4,fff1014684 <spl+0x4604>
  fff101465a:	0d442783          	lw	a5,212(s0)
  fff101465e:	6685                	lui	a3,0x1
  fff1014660:	80068693          	addi	a3,a3,-2048 # 800 <ROM_BASE-0xfff100f800>
  fff1014664:	07a6                	slli	a5,a5,0x9
  fff1014666:	0147d613          	srli	a2,a5,0x14
  fff101466a:	00c6f363          	bgeu	a3,a2,fff1014670 <spl+0x45f0>
  fff101466e:	e8dc                	sd	a5,144(s1)
  fff1014670:	400407b7          	lui	a5,0x40040
  fff1014674:	4ff78793          	addi	a5,a5,1279 # 400404ff <ROM_BASE-0xffb0fcfb01>
  fff1014678:	00e7f663          	bgeu	a5,a4,fff1014684 <spl+0x4604>
  fff101467c:	0f844783          	lbu	a5,248(s0)
  fff1014680:	06f48b23          	sb	a5,118(s1)
  fff1014684:	0c744703          	lbu	a4,199(s0)
  fff1014688:	09b44983          	lbu	s3,155(s0)
  fff101468c:	46f1                	li	a3,28
  fff101468e:	fff7079b          	addiw	a5,a4,-1
  fff1014692:	0ff7f793          	zext.b	a5,a5
  fff1014696:	0019f993          	andi	s3,s3,1
  fff101469a:	0cf6fa63          	bgeu	a3,a5,fff101476e <spl+0x46ee>
  fff101469e:	06e48ba3          	sb	a4,119(s1)
  fff10146a2:	0a044783          	lbu	a5,160(s0)
  fff10146a6:	06f48923          	sb	a5,114(s1)
  fff10146aa:	8b85                	andi	a5,a5,1
  fff10146ac:	e781                	bnez	a5,fff10146b4 <spl+0x4634>
  fff10146ae:	0e244783          	lbu	a5,226(s0)
  fff10146b2:	c789                	beqz	a5,fff10146bc <spl+0x463c>
  fff10146b4:	0b344783          	lbu	a5,179(s0)
  fff10146b8:	06f48aa3          	sb	a5,117(s1)
  fff10146bc:	00098a63          	beqz	s3,fff10146d0 <spl+0x4650>
  fff10146c0:	0a044783          	lbu	a5,160(s0)
  fff10146c4:	8b89                	andi	a5,a5,2
  fff10146c6:	c789                	beqz	a5,fff10146d0 <spl+0x4650>
  fff10146c8:	09c44783          	lbu	a5,156(s0)
  fff10146cc:	06f489a3          	sb	a5,115(s1)
  fff10146d0:	0e244783          	lbu	a5,226(s0)
  fff10146d4:	09140713          	addi	a4,s0,145
  fff10146d8:	0a848693          	addi	a3,s1,168
  fff10146dc:	0117979b          	slliw	a5,a5,0x11
  fff10146e0:	ecdc                	sd	a5,152(s1)
  fff10146e2:	0a844783          	lbu	a5,168(s0)
  fff10146e6:	0c848513          	addi	a0,s1,200
  fff10146ea:	4601                	li	a2,0
  fff10146ec:	0117979b          	slliw	a5,a5,0x11
  fff10146f0:	f0dc                	sd	a5,160(s1)
  fff10146f2:	fff74783          	lbu	a5,-1(a4)
  fff10146f6:	00074583          	lbu	a1,0(a4)
  fff10146fa:	0087979b          	slliw	a5,a5,0x8
  fff10146fe:	0105959b          	slliw	a1,a1,0x10
  fff1014702:	9fad                	addw	a5,a5,a1
  fff1014704:	ffe74583          	lbu	a1,-2(a4)
  fff1014708:	9fad                	addw	a5,a5,a1
  fff101470a:	c391                	beqz	a5,fff101470e <spl+0x468e>
  fff101470c:	4605                	li	a2,1
  fff101470e:	00098c63          	beqz	s3,fff1014726 <spl+0x46a6>
  fff1014712:	0e044583          	lbu	a1,224(s0)
  fff1014716:	02f585b3          	mul	a1,a1,a5
  fff101471a:	0dd44783          	lbu	a5,221(s0)
  fff101471e:	02b787b3          	mul	a5,a5,a1
  fff1014722:	07ce                	slli	a5,a5,0x13
  fff1014724:	e29c                	sd	a5,0(a3)
  fff1014726:	06a1                	addi	a3,a3,8
  fff1014728:	070d                	addi	a4,a4,3
  fff101472a:	fcd514e3          	bne	a0,a3,fff10146f2 <spl+0x4672>
  fff101472e:	00098363          	beqz	s3,fff1014734 <spl+0x46b4>
  fff1014732:	4605                	li	a2,1
  fff1014734:	0a044783          	lbu	a5,160(s0)
  fff1014738:	8b85                	andi	a5,a5,1
  fff101473a:	c789                	beqz	a5,fff1014744 <spl+0x46c4>
  fff101473c:	09c44783          	lbu	a5,156(s0)
  fff1014740:	8bfd                	andi	a5,a5,31
  fff1014742:	e391                	bnez	a5,fff1014746 <spl+0x46c6>
  fff1014744:	ca0d                	beqz	a2,fff1014776 <spl+0x46f6>
  fff1014746:	4685                	li	a3,1
  fff1014748:	0af00613          	li	a2,175
  fff101474c:	4585                	li	a1,1
  fff101474e:	8526                	mv	a0,s1
  fff1014750:	e85ff0ef          	jal	ra,fff10145d4 <spl+0x4554>
  fff1014754:	e539                	bnez	a0,fff10147a2 <spl+0x4722>
  fff1014756:	4785                	li	a5,1
  fff1014758:	0af407a3          	sb	a5,175(s0)
  fff101475c:	4cdc                	lw	a5,28(s1)
  fff101475e:	c385                	beqz	a5,fff101477e <spl+0x46fe>
  fff1014760:	00098f63          	beqz	s3,fff101477e <spl+0x46fe>
  fff1014764:	0d442783          	lw	a5,212(s0)
  fff1014768:	07a6                	slli	a5,a5,0x9
  fff101476a:	e8dc                	sd	a5,144(s1)
  fff101476c:	a809                	j	fff101477e <spl+0x46fe>
  fff101476e:	47f9                	li	a5,30
  fff1014770:	06f48ba3          	sb	a5,119(s1)
  fff1014774:	b73d                	j	fff10146a2 <spl+0x4622>
  fff1014776:	0af44783          	lbu	a5,175(s0)
  fff101477a:	8b85                	andi	a5,a5,1
  fff101477c:	f3e5                	bnez	a5,fff101475c <spl+0x46dc>
  fff101477e:	0a744783          	lbu	a5,167(s0)
  fff1014782:	06f48a23          	sb	a5,116(s1)
  fff1014786:	24813083          	ld	ra,584(sp)
  fff101478a:	24013403          	ld	s0,576(sp)
  fff101478e:	23813483          	ld	s1,568(sp)
  fff1014792:	22813983          	ld	s3,552(sp)
  fff1014796:	854a                	mv	a0,s2
  fff1014798:	23013903          	ld	s2,560(sp)
  fff101479c:	25010113          	addi	sp,sp,592
  fff10147a0:	8082                	ret
  fff10147a2:	892a                	mv	s2,a0
  fff10147a4:	6cfc                	ld	a5,216(s1)
  fff10147a6:	d3e5                	beqz	a5,fff1014786 <spl+0x4706>
  fff10147a8:	0c04bc23          	sd	zero,216(s1)
  fff10147ac:	bfe9                	j	fff1014786 <spl+0x4706>
  fff10147ae:	5951                	li	s2,-12
  fff10147b0:	bfd9                	j	fff1014786 <spl+0x4706>
  fff10147b2:	5929                	li	s2,-22
  fff10147b4:	bfc9                	j	fff1014786 <spl+0x4706>
  fff10147b6:	7139                	addi	sp,sp,-64
  fff10147b8:	f426                	sd	s1,40(sp)
  fff10147ba:	f04a                	sd	s2,32(sp)
  fff10147bc:	ec4e                	sd	s3,24(sp)
  fff10147be:	e852                	sd	s4,16(sp)
  fff10147c0:	e456                	sd	s5,8(sp)
  fff10147c2:	fc06                	sd	ra,56(sp)
  fff10147c4:	f822                	sd	s0,48(sp)
  fff10147c6:	84aa                	mv	s1,a0
  fff10147c8:	892e                	mv	s2,a1
  fff10147ca:	4991                	li	s3,4
  fff10147cc:	0ff5fa13          	zext.b	s4,a1
  fff10147d0:	0075fa93          	andi	s5,a1,7
  fff10147d4:	0754c683          	lbu	a3,117(s1)
  fff10147d8:	0b300613          	li	a2,179
  fff10147dc:	4585                	li	a1,1
  fff10147de:	0f86f693          	andi	a3,a3,248
  fff10147e2:	0156e6b3          	or	a3,a3,s5
  fff10147e6:	8526                	mv	a0,s1
  fff10147e8:	dedff0ef          	jal	ra,fff10145d4 <spl+0x4554>
  fff10147ec:	842a                	mv	s0,a0
  fff10147ee:	e50d                	bnez	a0,fff1014818 <spl+0x4798>
  fff10147f0:	85ca                	mv	a1,s2
  fff10147f2:	8526                	mv	a0,s1
  fff10147f4:	9bdff0ef          	jal	ra,fff10141b0 <spl+0x4130>
  fff10147f8:	842a                	mv	s0,a0
  fff10147fa:	8526                	mv	a0,s1
  fff10147fc:	571000ef          	jal	ra,fff101556c <spl+0x54ec>
  fff1014800:	014505a3          	sb	s4,11(a0)
  fff1014804:	70e2                	ld	ra,56(sp)
  fff1014806:	8522                	mv	a0,s0
  fff1014808:	7442                	ld	s0,48(sp)
  fff101480a:	74a2                	ld	s1,40(sp)
  fff101480c:	7902                	ld	s2,32(sp)
  fff101480e:	69e2                	ld	s3,24(sp)
  fff1014810:	6a42                	ld	s4,16(sp)
  fff1014812:	6aa2                	ld	s5,8(sp)
  fff1014814:	6121                	addi	sp,sp,64
  fff1014816:	8082                	ret
  fff1014818:	39fd                	addiw	s3,s3,-1
  fff101481a:	fa099de3          	bnez	s3,fff10147d4 <spl+0x4754>
  fff101481e:	57b5                	li	a5,-19
  fff1014820:	fef512e3          	bne	a0,a5,fff1014804 <spl+0x4784>
  fff1014824:	fc0906e3          	beqz	s2,fff10147f0 <spl+0x4770>
  fff1014828:	bff1                	j	fff1014804 <spl+0x4784>
  fff101482a:	87ae                	mv	a5,a1
  fff101482c:	e215                	bnez	a2,fff1014850 <spl+0x47d0>
  fff101482e:	6118                	ld	a4,0(a0)
  fff1014830:	4b4c                	lw	a1,20(a4)
  fff1014832:	0005869b          	sext.w	a3,a1
  fff1014836:	00d7f363          	bgeu	a5,a3,fff101483c <spl+0x47bc>
  fff101483a:	85be                	mv	a1,a5
  fff101483c:	4b1c                	lw	a5,16(a4)
  fff101483e:	0005869b          	sext.w	a3,a1
  fff1014842:	0007871b          	sext.w	a4,a5
  fff1014846:	00e6f363          	bgeu	a3,a4,fff101484c <spl+0x47cc>
  fff101484a:	85be                	mv	a1,a5
  fff101484c:	0005879b          	sext.w	a5,a1
  fff1014850:	d51c                	sw	a5,40(a0)
  fff1014852:	02c50023          	sb	a2,32(a0)
  fff1014856:	39f0006f          	j	fff10153f4 <spl+0x5374>
  fff101485a:	4d1c                	lw	a5,24(a0)
  fff101485c:	1c079863          	bnez	a5,fff1014a2c <spl+0x49ac>
  fff1014860:	7175                	addi	sp,sp,-144
  fff1014862:	e122                	sd	s0,128(sp)
  fff1014864:	f8ca                	sd	s2,112(sp)
  fff1014866:	e506                	sd	ra,136(sp)
  fff1014868:	fca6                	sd	s1,120(sp)
  fff101486a:	f4ce                	sd	s3,104(sp)
  fff101486c:	f0d2                	sd	s4,96(sp)
  fff101486e:	ecd6                	sd	s5,88(sp)
  fff1014870:	e8da                	sd	s6,80(sp)
  fff1014872:	e4de                	sd	s7,72(sp)
  fff1014874:	e0e2                	sd	s8,64(sp)
  fff1014876:	fc66                	sd	s9,56(sp)
  fff1014878:	f86a                	sd	s10,48(sp)
  fff101487a:	f46e                	sd	s11,40(sp)
  fff101487c:	479d                	li	a5,7
  fff101487e:	892e                	mv	s2,a1
  fff1014880:	0ef52823          	sw	a5,240(a0)
  fff1014884:	4605                	li	a2,1
  fff1014886:	4581                	li	a1,0
  fff1014888:	842a                	mv	s0,a0
  fff101488a:	fa1ff0ef          	jal	ra,fff101482a <spl+0x47aa>
  fff101488e:	8522                	mv	a0,s0
  fff1014890:	39b000ef          	jal	ra,fff101542a <spl+0x53aa>
  fff1014894:	0e051e63          	bnez	a0,fff1014990 <spl+0x4910>
  fff1014898:	7d000513          	li	a0,2000
  fff101489c:	e0cfd0ef          	jal	ra,fff1011ea8 <spl+0x1e28>
  fff10148a0:	8522                	mv	a0,s0
  fff10148a2:	3a9000ef          	jal	ra,fff101544a <spl+0x53ca>
  fff10148a6:	10051a63          	bnez	a0,fff10149ba <spl+0x493a>
  fff10148aa:	5c7c                	lw	a5,124(s0)
  fff10148ac:	0c042623          	sw	zero,204(s0)
  fff10148b0:	0e042423          	sw	zero,232(s0)
  fff10148b4:	dc3c                	sw	a5,120(s0)
  fff10148b6:	4785                	li	a5,1
  fff10148b8:	d05c                	sw	a5,36(s0)
  fff10148ba:	8522                	mv	a0,s0
  fff10148bc:	339000ef          	jal	ra,fff10153f4 <spl+0x5374>
  fff10148c0:	4601                	li	a2,0
  fff10148c2:	4581                	li	a1,0
  fff10148c4:	8522                	mv	a0,s0
  fff10148c6:	f65ff0ef          	jal	ra,fff101482a <spl+0x47aa>
  fff10148ca:	8522                	mv	a0,s0
  fff10148cc:	8adff0ef          	jal	ra,fff1014178 <spl+0x40f8>
  fff10148d0:	e56d                	bnez	a0,fff10149ba <spl+0x493a>
  fff10148d2:	8522                	mv	a0,s0
  fff10148d4:	499000ef          	jal	ra,fff101556c <spl+0x54ec>
  fff10148d8:	000505a3          	sb	zero,11(a0)
  fff10148dc:	47a1                	li	a5,8
  fff10148de:	00f11023          	sh	a5,0(sp)
  fff10148e2:	601c                	ld	a5,0(s0)
  fff10148e4:	00ff8737          	lui	a4,0xff8
  fff10148e8:	47dc                	lw	a5,12(a5)
  fff10148ea:	8ff9                	and	a5,a5,a4
  fff10148ec:	1aa00713          	li	a4,426
  fff10148f0:	e399                	bnez	a5,fff10148f6 <spl+0x4876>
  fff10148f2:	0aa00713          	li	a4,170
  fff10148f6:	8a0a                	mv	s4,sp
  fff10148f8:	47d5                	li	a5,21
  fff10148fa:	4601                	li	a2,0
  fff10148fc:	85d2                	mv	a1,s4
  fff10148fe:	8522                	mv	a0,s0
  fff1014900:	c43a                	sw	a4,8(sp)
  fff1014902:	c23e                	sw	a5,4(sp)
  fff1014904:	3ad000ef          	jal	ra,fff10154b0 <spl+0x5430>
  fff1014908:	e911                	bnez	a0,fff101491c <spl+0x489c>
  fff101490a:	00c14703          	lbu	a4,12(sp)
  fff101490e:	0aa00793          	li	a5,170
  fff1014912:	00f71563          	bne	a4,a5,fff101491c <spl+0x489c>
  fff1014916:	800207b7          	lui	a5,0x80020
  fff101491a:	c41c                	sw	a5,8(s0)
  fff101491c:	3e900993          	li	s3,1001
  fff1014920:	03700a93          	li	s5,55
  fff1014924:	4b55                	li	s6,21
  fff1014926:	02900b93          	li	s7,41
  fff101492a:	4c05                	li	s8,1
  fff101492c:	00ff8cb7          	lui	s9,0xff8
  fff1014930:	80020d37          	lui	s10,0x80020
  fff1014934:	40000db7          	lui	s11,0x40000
  fff1014938:	4601                	li	a2,0
  fff101493a:	85d2                	mv	a1,s4
  fff101493c:	8522                	mv	a0,s0
  fff101493e:	01511023          	sh	s5,0(sp)
  fff1014942:	c25a                	sw	s6,4(sp)
  fff1014944:	c402                	sw	zero,8(sp)
  fff1014946:	36b000ef          	jal	ra,fff10154b0 <spl+0x5430>
  fff101494a:	84aa                	mv	s1,a0
  fff101494c:	e551                	bnez	a0,fff10149d8 <spl+0x4958>
  fff101494e:	601c                	ld	a5,0(s0)
  fff1014950:	01711023          	sh	s7,0(sp)
  fff1014954:	c262                	sw	s8,4(sp)
  fff1014956:	47dc                	lw	a5,12(a5)
  fff1014958:	4418                	lw	a4,8(s0)
  fff101495a:	0197f7b3          	and	a5,a5,s9
  fff101495e:	2781                	sext.w	a5,a5
  fff1014960:	c43e                	sw	a5,8(sp)
  fff1014962:	01a71563          	bne	a4,s10,fff101496c <spl+0x48ec>
  fff1014966:	01b7e7b3          	or	a5,a5,s11
  fff101496a:	c43e                	sw	a5,8(sp)
  fff101496c:	4601                	li	a2,0
  fff101496e:	85d2                	mv	a1,s4
  fff1014970:	8522                	mv	a0,s0
  fff1014972:	33f000ef          	jal	ra,fff10154b0 <spl+0x5430>
  fff1014976:	84aa                	mv	s1,a0
  fff1014978:	e125                	bnez	a0,fff10149d8 <spl+0x4958>
  fff101497a:	47b2                	lw	a5,12(sp)
  fff101497c:	0007cf63          	bltz	a5,fff101499a <spl+0x491a>
  fff1014980:	39fd                	addiw	s3,s3,-1
  fff1014982:	0c098163          	beqz	s3,fff1014a44 <spl+0x49c4>
  fff1014986:	3e800513          	li	a0,1000
  fff101498a:	d1efd0ef          	jal	ra,fff1011ea8 <spl+0x1e28>
  fff101498e:	b76d                	j	fff1014938 <spl+0x48b8>
  fff1014990:	5c1c                	lw	a5,56(s0)
  fff1014992:	c1f7f793          	andi	a5,a5,-993
  fff1014996:	dc1c                	sw	a5,56(s0)
  fff1014998:	b721                	j	fff10148a0 <spl+0x4820>
  fff101499a:	4414                	lw	a3,8(s0)
  fff101499c:	80020737          	lui	a4,0x80020
  fff10149a0:	00e68563          	beq	a3,a4,fff10149aa <spl+0x492a>
  fff10149a4:	80010737          	lui	a4,0x80010
  fff10149a8:	c418                	sw	a4,8(s0)
  fff10149aa:	dc5c                	sw	a5,60(s0)
  fff10149ac:	41e7d79b          	sraiw	a5,a5,0x1e
  fff10149b0:	8b85                	andi	a5,a5,1
  fff10149b2:	cc5c                	sw	a5,28(s0)
  fff10149b4:	06041823          	sh	zero,112(s0)
  fff10149b8:	4501                	li	a0,0
  fff10149ba:	60aa                	ld	ra,136(sp)
  fff10149bc:	640a                	ld	s0,128(sp)
  fff10149be:	74e6                	ld	s1,120(sp)
  fff10149c0:	7946                	ld	s2,112(sp)
  fff10149c2:	79a6                	ld	s3,104(sp)
  fff10149c4:	7a06                	ld	s4,96(sp)
  fff10149c6:	6ae6                	ld	s5,88(sp)
  fff10149c8:	6b46                	ld	s6,80(sp)
  fff10149ca:	6ba6                	ld	s7,72(sp)
  fff10149cc:	6c06                	ld	s8,64(sp)
  fff10149ce:	7ce2                	ld	s9,56(sp)
  fff10149d0:	7d42                	ld	s10,48(sp)
  fff10149d2:	7da2                	ld	s11,40(sp)
  fff10149d4:	6149                	addi	sp,sp,144
  fff10149d6:	8082                	ret
  fff10149d8:	f9200793          	li	a5,-110
  fff10149dc:	8526                	mv	a0,s1
  fff10149de:	fcf49ee3          	bne	s1,a5,fff10149ba <spl+0x493a>
  fff10149e2:	8522                	mv	a0,s0
  fff10149e4:	f94ff0ef          	jal	ra,fff1014178 <spl+0x40f8>
  fff10149e8:	4501                	li	a0,0
  fff10149ea:	c3efd0ef          	jal	ra,fff1011e28 <spl+0x1da8>
  fff10149ee:	02051a13          	slli	s4,a0,0x20
  fff10149f2:	4981                	li	s3,0
  fff10149f4:	020a5a13          	srli	s4,s4,0x20
  fff10149f8:	3e800a93          	li	s5,1000
  fff10149fc:	013035b3          	snez	a1,s3
  fff1014a00:	8522                	mv	a0,s0
  fff1014a02:	f28ff0ef          	jal	ra,fff101412a <spl+0x40aa>
  fff1014a06:	e515                	bnez	a0,fff1014a32 <spl+0x49b2>
  fff1014a08:	5c5c                	lw	a5,60(s0)
  fff1014a0a:	0007cd63          	bltz	a5,fff1014a24 <spl+0x49a4>
  fff1014a0e:	8552                	mv	a0,s4
  fff1014a10:	c18fd0ef          	jal	ra,fff1011e28 <spl+0x1da8>
  fff1014a14:	00aaee63          	bltu	s5,a0,fff1014a30 <spl+0x49b0>
  fff1014a18:	06400513          	li	a0,100
  fff1014a1c:	c8cfd0ef          	jal	ra,fff1011ea8 <spl+0x1e28>
  fff1014a20:	2985                	addiw	s3,s3,1
  fff1014a22:	bfe9                	j	fff10149fc <spl+0x497c>
  fff1014a24:	4785                	li	a5,1
  fff1014a26:	0cf40423          	sb	a5,200(s0)
  fff1014a2a:	bf41                	j	fff10149ba <spl+0x493a>
  fff1014a2c:	4501                	li	a0,0
  fff1014a2e:	8082                	ret
  fff1014a30:	8526                	mv	a0,s1
  fff1014a32:	00091963          	bnez	s2,fff1014a44 <spl+0x49c4>
  fff1014a36:	85aa                	mv	a1,a0
  fff1014a38:	00003517          	auipc	a0,0x3
  fff1014a3c:	3d850513          	addi	a0,a0,984 # fff1017e10 <spl+0x7d90>
  fff1014a40:	ffafd0ef          	jal	ra,fff101223a <spl+0x21ba>
  fff1014a44:	fa100513          	li	a0,-95
  fff1014a48:	bf8d                	j	fff10149ba <spl+0x493a>
  fff1014a4a:	1141                	addi	sp,sp,-16
  fff1014a4c:	e022                	sd	s0,0(sp)
  fff1014a4e:	e406                	sd	ra,8(sp)
  fff1014a50:	611c                	ld	a5,0(a0)
  fff1014a52:	10000737          	lui	a4,0x10000
  fff1014a56:	0705                	addi	a4,a4,1
  fff1014a58:	479c                	lw	a5,8(a5)
  fff1014a5a:	842a                	mv	s0,a0
  fff1014a5c:	8fd9                	or	a5,a5,a4
  fff1014a5e:	dd1c                	sw	a5,56(a0)
  fff1014a60:	1db000ef          	jal	ra,fff101543a <spl+0x53ba>
  fff1014a64:	8522                	mv	a0,s0
  fff1014a66:	1b3000ef          	jal	ra,fff1015418 <spl+0x5398>
  fff1014a6a:	ed19                	bnez	a0,fff1014a88 <spl+0x4a08>
  fff1014a6c:	00042c23          	sw	zero,24(s0)
  fff1014a70:	00003517          	auipc	a0,0x3
  fff1014a74:	48050513          	addi	a0,a0,1152 # fff1017ef0 <spl+0x7e70>
  fff1014a78:	fc2fd0ef          	jal	ra,fff101223a <spl+0x21ba>
  fff1014a7c:	f8500513          	li	a0,-123
  fff1014a80:	60a2                	ld	ra,8(sp)
  fff1014a82:	6402                	ld	s0,0(sp)
  fff1014a84:	0141                	addi	sp,sp,16
  fff1014a86:	8082                	ret
  fff1014a88:	4581                	li	a1,0
  fff1014a8a:	8522                	mv	a0,s0
  fff1014a8c:	dcfff0ef          	jal	ra,fff101485a <spl+0x47da>
  fff1014a90:	f965                	bnez	a0,fff1014a80 <spl+0x4a00>
  fff1014a92:	4785                	li	a5,1
  fff1014a94:	0cf404a3          	sb	a5,201(s0)
  fff1014a98:	b7e5                	j	fff1014a80 <spl+0x4a00>
  fff1014a9a:	7161                	addi	sp,sp,-432
  fff1014a9c:	f322                	sd	s0,416(sp)
  fff1014a9e:	ef26                	sd	s1,408(sp)
  fff1014aa0:	e74e                	sd	s3,392(sp)
  fff1014aa2:	f706                	sd	ra,424(sp)
  fff1014aa4:	eb4a                	sd	s2,400(sp)
  fff1014aa6:	e352                	sd	s4,384(sp)
  fff1014aa8:	fed6                	sd	s5,376(sp)
  fff1014aaa:	fada                	sd	s6,368(sp)
  fff1014aac:	f6de                	sd	s7,360(sp)
  fff1014aae:	f2e2                	sd	s8,352(sp)
  fff1014ab0:	eee6                	sd	s9,344(sp)
  fff1014ab2:	eaea                	sd	s10,336(sp)
  fff1014ab4:	e6ee                	sd	s11,328(sp)
  fff1014ab6:	842a                	mv	s0,a0
  fff1014ab8:	6968                	ld	a0,208(a0)
  fff1014aba:	4481                	li	s1,0
  fff1014abc:	d52fe0ef          	jal	ra,fff101300e <spl+0x2f8e>
  fff1014ac0:	e100                	sd	s0,0(a0)
  fff1014ac2:	01842983          	lw	s3,24(s0)
  fff1014ac6:	0e099b63          	bnez	s3,fff1014bbc <spl+0x4b3c>
  fff1014aca:	4501                	li	a0,0
  fff1014acc:	b5cfd0ef          	jal	ra,fff1011e28 <spl+0x1da8>
  fff1014ad0:	0c944783          	lbu	a5,201(s0)
  fff1014ad4:	cff9                	beqz	a5,fff1014bb2 <spl+0x4b32>
  fff1014ad6:	0c844783          	lbu	a5,200(s0)
  fff1014ada:	0c0404a3          	sb	zero,201(s0)
  fff1014ade:	0e079f63          	bnez	a5,fff1014bdc <spl+0x4b5c>
  fff1014ae2:	4789                	li	a5,2
  fff1014ae4:	04f11023          	sh	a5,64(sp)
  fff1014ae8:	479d                	li	a5,7
  fff1014aea:	c2be                	sw	a5,68(sp)
  fff1014aec:	0f042783          	lw	a5,240(s0)
  fff1014af0:	c482                	sw	zero,72(sp)
  fff1014af2:	04010913          	addi	s2,sp,64
  fff1014af6:	8b85                	andi	a5,a5,1
  fff1014af8:	14078063          	beqz	a5,fff1014c38 <spl+0x4bb8>
  fff1014afc:	4691                	li	a3,4
  fff1014afe:	4601                	li	a2,0
  fff1014b00:	85ca                	mv	a1,s2
  fff1014b02:	8522                	mv	a0,s0
  fff1014b04:	decff0ef          	jal	ra,fff10140f0 <spl+0x4070>
  fff1014b08:	84aa                	mv	s1,a0
  fff1014b0a:	3a051263          	bnez	a0,fff1014eae <spl+0x4e2e>
  fff1014b0e:	4641                	li	a2,16
  fff1014b10:	00ec                	addi	a1,sp,76
  fff1014b12:	06040513          	addi	a0,s0,96
  fff1014b16:	e8bfb0ef          	jal	ra,fff10109a0 <spl+0x920>
  fff1014b1a:	478d                	li	a5,3
  fff1014b1c:	04f11023          	sh	a5,64(sp)
  fff1014b20:	07045783          	lhu	a5,112(s0)
  fff1014b24:	4601                	li	a2,0
  fff1014b26:	85ca                	mv	a1,s2
  fff1014b28:	0107979b          	slliw	a5,a5,0x10
  fff1014b2c:	c4be                	sw	a5,72(sp)
  fff1014b2e:	8522                	mv	a0,s0
  fff1014b30:	47d5                	li	a5,21
  fff1014b32:	c2be                	sw	a5,68(sp)
  fff1014b34:	17d000ef          	jal	ra,fff10154b0 <spl+0x5430>
  fff1014b38:	84aa                	mv	s1,a0
  fff1014b3a:	36051a63          	bnez	a0,fff1014eae <spl+0x4e2e>
  fff1014b3e:	441c                	lw	a5,8(s0)
  fff1014b40:	0007d663          	bgez	a5,fff1014b4c <spl+0x4acc>
  fff1014b44:	04e15783          	lhu	a5,78(sp)
  fff1014b48:	06f41823          	sh	a5,112(s0)
  fff1014b4c:	47a5                	li	a5,9
  fff1014b4e:	04f11023          	sh	a5,64(sp)
  fff1014b52:	479d                	li	a5,7
  fff1014b54:	c2be                	sw	a5,68(sp)
  fff1014b56:	07045783          	lhu	a5,112(s0)
  fff1014b5a:	4601                	li	a2,0
  fff1014b5c:	85ca                	mv	a1,s2
  fff1014b5e:	0107979b          	slliw	a5,a5,0x10
  fff1014b62:	8522                	mv	a0,s0
  fff1014b64:	c4be                	sw	a5,72(sp)
  fff1014b66:	14b000ef          	jal	ra,fff10154b0 <spl+0x5430>
  fff1014b6a:	84aa                	mv	s1,a0
  fff1014b6c:	34051163          	bnez	a0,fff1014eae <spl+0x4e2e>
  fff1014b70:	4666                	lw	a2,88(sp)
  fff1014b72:	46b6                	lw	a3,76(sp)
  fff1014b74:	47c6                	lw	a5,80(sp)
  fff1014b76:	4756                	lw	a4,84(sp)
  fff1014b78:	440c                	lw	a1,8(s0)
  fff1014b7a:	cc70                	sw	a2,92(s0)
  fff1014b7c:	c834                	sw	a3,80(s0)
  fff1014b7e:	c87c                	sw	a5,84(s0)
  fff1014b80:	cc38                	sw	a4,88(s0)
  fff1014b82:	40000637          	lui	a2,0x40000
  fff1014b86:	0cc59a63          	bne	a1,a2,fff1014c5a <spl+0x4bda>
  fff1014b8a:	01a6d59b          	srliw	a1,a3,0x1a
  fff1014b8e:	00f5f613          	andi	a2,a1,15
  fff1014b92:	450d                	li	a0,3
  fff1014b94:	32a60363          	beq	a2,a0,fff1014eba <spl+0x4e3a>
  fff1014b98:	89b1                	andi	a1,a1,12
  fff1014b9a:	e5cd                	bnez	a1,fff1014c44 <spl+0x4bc4>
  fff1014b9c:	4585                	li	a1,1
  fff1014b9e:	0ab60963          	beq	a2,a1,fff1014c50 <spl+0x4bd0>
  fff1014ba2:	4589                	li	a1,2
  fff1014ba4:	30b60863          	beq	a2,a1,fff1014eb4 <spl+0x4e34>
  fff1014ba8:	40010637          	lui	a2,0x40010
  fff1014bac:	20060613          	addi	a2,a2,512 # 40010200 <ROM_BASE-0xffb0fffe00>
  fff1014bb0:	a065                	j	fff1014c58 <spl+0x4bd8>
  fff1014bb2:	8522                	mv	a0,s0
  fff1014bb4:	e97ff0ef          	jal	ra,fff1014a4a <spl+0x49ca>
  fff1014bb8:	84aa                	mv	s1,a0
  fff1014bba:	dd11                	beqz	a0,fff1014ad6 <spl+0x4a56>
  fff1014bbc:	70ba                	ld	ra,424(sp)
  fff1014bbe:	741a                	ld	s0,416(sp)
  fff1014bc0:	695a                	ld	s2,400(sp)
  fff1014bc2:	69ba                	ld	s3,392(sp)
  fff1014bc4:	6a1a                	ld	s4,384(sp)
  fff1014bc6:	7af6                	ld	s5,376(sp)
  fff1014bc8:	7b56                	ld	s6,368(sp)
  fff1014bca:	7bb6                	ld	s7,360(sp)
  fff1014bcc:	7c16                	ld	s8,352(sp)
  fff1014bce:	6cf6                	ld	s9,344(sp)
  fff1014bd0:	6d56                	ld	s10,336(sp)
  fff1014bd2:	6db6                	ld	s11,328(sp)
  fff1014bd4:	8526                	mv	a0,s1
  fff1014bd6:	64fa                	ld	s1,408(sp)
  fff1014bd8:	615d                	addi	sp,sp,432
  fff1014bda:	8082                	ret
  fff1014bdc:	5c5c                	lw	a5,60(s0)
  fff1014bde:	0c040423          	sb	zero,200(s0)
  fff1014be2:	0207cf63          	bltz	a5,fff1014c20 <spl+0x4ba0>
  fff1014be6:	8522                	mv	a0,s0
  fff1014be8:	d90ff0ef          	jal	ra,fff1014178 <spl+0x40f8>
  fff1014bec:	4501                	li	a0,0
  fff1014bee:	a3afd0ef          	jal	ra,fff1011e28 <spl+0x1da8>
  fff1014bf2:	892a                	mv	s2,a0
  fff1014bf4:	3e800a13          	li	s4,1000
  fff1014bf8:	4585                	li	a1,1
  fff1014bfa:	8522                	mv	a0,s0
  fff1014bfc:	d2eff0ef          	jal	ra,fff101412a <spl+0x40aa>
  fff1014c00:	84aa                	mv	s1,a0
  fff1014c02:	2a051663          	bnez	a0,fff1014eae <spl+0x4e2e>
  fff1014c06:	5c5c                	lw	a5,60(s0)
  fff1014c08:	0007cc63          	bltz	a5,fff1014c20 <spl+0x4ba0>
  fff1014c0c:	854a                	mv	a0,s2
  fff1014c0e:	a1afd0ef          	jal	ra,fff1011e28 <spl+0x1da8>
  fff1014c12:	76aa6263          	bltu	s4,a0,fff1015376 <spl+0x52f6>
  fff1014c16:	06400513          	li	a0,100
  fff1014c1a:	a8efd0ef          	jal	ra,fff1011ea8 <spl+0x1e28>
  fff1014c1e:	bfe9                	j	fff1014bf8 <spl+0x4b78>
  fff1014c20:	400007b7          	lui	a5,0x40000
  fff1014c24:	c41c                	sw	a5,8(s0)
  fff1014c26:	5c5c                	lw	a5,60(s0)
  fff1014c28:	41e7d79b          	sraiw	a5,a5,0x1e
  fff1014c2c:	8b85                	andi	a5,a5,1
  fff1014c2e:	cc5c                	sw	a5,28(s0)
  fff1014c30:	4785                	li	a5,1
  fff1014c32:	06f41823          	sh	a5,112(s0)
  fff1014c36:	b575                	j	fff1014ae2 <spl+0x4a62>
  fff1014c38:	4601                	li	a2,0
  fff1014c3a:	85ca                	mv	a1,s2
  fff1014c3c:	8522                	mv	a0,s0
  fff1014c3e:	073000ef          	jal	ra,fff10154b0 <spl+0x5430>
  fff1014c42:	b5d9                	j	fff1014b08 <spl+0x4a88>
  fff1014c44:	4591                	li	a1,4
  fff1014c46:	f6b611e3          	bne	a2,a1,fff1014ba8 <spl+0x4b28>
  fff1014c4a:	40040637          	lui	a2,0x40040
  fff1014c4e:	a029                	j	fff1014c58 <spl+0x4bd8>
  fff1014c50:	40010637          	lui	a2,0x40010
  fff1014c54:	40060613          	addi	a2,a2,1024 # 40010400 <ROM_BASE-0xffb0fffc00>
  fff1014c58:	c410                	sw	a2,8(s0)
  fff1014c5a:	0036d61b          	srliw	a2,a3,0x3
  fff1014c5e:	00f67593          	andi	a1,a2,15
  fff1014c62:	8a9d                	andi	a3,a3,7
  fff1014c64:	00003617          	auipc	a2,0x3
  fff1014c68:	2cc60613          	addi	a2,a2,716 # fff1017f30 <spl+0x7eb0>
  fff1014c6c:	962e                	add	a2,a2,a1
  fff1014c6e:	068a                	slli	a3,a3,0x2
  fff1014c70:	00003597          	auipc	a1,0x3
  fff1014c74:	f3858593          	addi	a1,a1,-200 # fff1017ba8 <spl+0x7b28>
  fff1014c78:	96ae                	add	a3,a3,a1
  fff1014c7a:	00064603          	lbu	a2,0(a2)
  fff1014c7e:	4294                	lw	a3,0(a3)
  fff1014c80:	0e042423          	sw	zero,232(s0)
  fff1014c84:	0c042623          	sw	zero,204(s0)
  fff1014c88:	02d606bb          	mulw	a3,a2,a3
  fff1014c8c:	0107d61b          	srliw	a2,a5,0x10
  fff1014c90:	00f67593          	andi	a1,a2,15
  fff1014c94:	4605                	li	a2,1
  fff1014c96:	00b615bb          	sllw	a1,a2,a1
  fff1014c9a:	4c50                	lw	a2,28(s0)
  fff1014c9c:	08b42023          	sw	a1,128(s0)
  fff1014ca0:	dc74                	sw	a3,124(s0)
  fff1014ca2:	dc34                	sw	a3,120(s0)
  fff1014ca4:	00c7d69b          	srliw	a3,a5,0xc
  fff1014ca8:	8a85                	andi	a3,a3,1
  fff1014caa:	c074                	sw	a3,68(s0)
  fff1014cac:	20060a63          	beqz	a2,fff1014ec0 <spl+0x4e40>
  fff1014cb0:	0107979b          	slliw	a5,a5,0x10
  fff1014cb4:	003f0637          	lui	a2,0x3f0
  fff1014cb8:	0107571b          	srliw	a4,a4,0x10
  fff1014cbc:	8ff1                	and	a5,a5,a2
  fff1014cbe:	8fd9                	or	a5,a5,a4
  fff1014cc0:	1782                	slli	a5,a5,0x20
  fff1014cc2:	9381                	srli	a5,a5,0x20
  fff1014cc4:	4721                	li	a4,8
  fff1014cc6:	0785                	addi	a5,a5,1
  fff1014cc8:	2709                	addiw	a4,a4,2
  fff1014cca:	00e797b3          	sll	a5,a5,a4
  fff1014cce:	02b787b3          	mul	a5,a5,a1
  fff1014cd2:	08043c23          	sd	zero,152(s0)
  fff1014cd6:	0a043023          	sd	zero,160(s0)
  fff1014cda:	0a043423          	sd	zero,168(s0)
  fff1014cde:	0a043823          	sd	zero,176(s0)
  fff1014ce2:	0a043c23          	sd	zero,184(s0)
  fff1014ce6:	0c043023          	sd	zero,192(s0)
  fff1014cea:	e85c                	sd	a5,144(s0)
  fff1014cec:	20000793          	li	a5,512
  fff1014cf0:	00b7d463          	bge	a5,a1,fff1014cf8 <spl+0x4c78>
  fff1014cf4:	08f42023          	sw	a5,128(s0)
  fff1014cf8:	c28d                	beqz	a3,fff1014d1a <spl+0x4c9a>
  fff1014cfa:	403c                	lw	a5,64(s0)
  fff1014cfc:	577d                	li	a4,-1
  fff1014cfe:	00e78e63          	beq	a5,a4,fff1014d1a <spl+0x4c9a>
  fff1014d02:	4711                	li	a4,4
  fff1014d04:	0107979b          	slliw	a5,a5,0x10
  fff1014d08:	4601                	li	a2,0
  fff1014d0a:	85ca                	mv	a1,s2
  fff1014d0c:	8522                	mv	a0,s0
  fff1014d0e:	04e11023          	sh	a4,64(sp)
  fff1014d12:	c4be                	sw	a5,72(sp)
  fff1014d14:	c282                	sw	zero,68(sp)
  fff1014d16:	79a000ef          	jal	ra,fff10154b0 <spl+0x5430>
  fff1014d1a:	479d                	li	a5,7
  fff1014d1c:	04f11023          	sh	a5,64(sp)
  fff1014d20:	07045783          	lhu	a5,112(s0)
  fff1014d24:	4ad5                	li	s5,21
  fff1014d26:	4601                	li	a2,0
  fff1014d28:	0107979b          	slliw	a5,a5,0x10
  fff1014d2c:	85ca                	mv	a1,s2
  fff1014d2e:	8522                	mv	a0,s0
  fff1014d30:	c2d6                	sw	s5,68(sp)
  fff1014d32:	c4be                	sw	a5,72(sp)
  fff1014d34:	77c000ef          	jal	ra,fff10154b0 <spl+0x5430>
  fff1014d38:	84aa                	mv	s1,a0
  fff1014d3a:	16051a63          	bnez	a0,fff1014eae <spl+0x4e2e>
  fff1014d3e:	57fd                	li	a5,-1
  fff1014d40:	06f40aa3          	sb	a5,117(s0)
  fff1014d44:	8522                	mv	a0,s0
  fff1014d46:	893ff0ef          	jal	ra,fff10145d8 <spl+0x4558>
  fff1014d4a:	84aa                	mv	s1,a0
  fff1014d4c:	16051163          	bnez	a0,fff1014eae <spl+0x4e2e>
  fff1014d50:	8522                	mv	a0,s0
  fff1014d52:	01b000ef          	jal	ra,fff101556c <spl+0x54ec>
  fff1014d56:	00b54583          	lbu	a1,11(a0)
  fff1014d5a:	8522                	mv	a0,s0
  fff1014d5c:	c54ff0ef          	jal	ra,fff10141b0 <spl+0x4130>
  fff1014d60:	84aa                	mv	s1,a0
  fff1014d62:	14051663          	bnez	a0,fff1014eae <spl+0x4e2e>
  fff1014d66:	4418                	lw	a4,8(s0)
  fff1014d68:	100007b7          	lui	a5,0x10000
  fff1014d6c:	0785                	addi	a5,a5,1
  fff1014d6e:	40075f63          	bgez	a4,fff101518c <spl+0x510c>
  fff1014d72:	d85c                	sw	a5,52(s0)
  fff1014d74:	03700793          	li	a5,55
  fff1014d78:	06f11023          	sh	a5,96(sp)
  fff1014d7c:	07045783          	lhu	a5,112(s0)
  fff1014d80:	06010913          	addi	s2,sp,96
  fff1014d84:	4601                	li	a2,0
  fff1014d86:	0107979b          	slliw	a5,a5,0x10
  fff1014d8a:	85ca                	mv	a1,s2
  fff1014d8c:	8522                	mv	a0,s0
  fff1014d8e:	d2d6                	sw	s5,100(sp)
  fff1014d90:	d4be                	sw	a5,104(sp)
  fff1014d92:	71e000ef          	jal	ra,fff10154b0 <spl+0x5430>
  fff1014d96:	5e051363          	bnez	a0,fff101537c <spl+0x52fc>
  fff1014d9a:	03300793          	li	a5,51
  fff1014d9e:	d2d6                	sw	s5,100(sp)
  fff1014da0:	4a85                	li	s5,1
  fff1014da2:	06f11023          	sh	a5,96(sp)
  fff1014da6:	020a9793          	slli	a5,s5,0x20
  fff1014daa:	0785                	addi	a5,a5,1
  fff1014dac:	0bf10a13          	addi	s4,sp,191
  fff1014db0:	fe0a7a13          	andi	s4,s4,-32
  fff1014db4:	ec3e                	sd	a5,24(sp)
  fff1014db6:	468d                	li	a3,3
  fff1014db8:	47a1                	li	a5,8
  fff1014dba:	0810                	addi	a2,sp,16
  fff1014dbc:	85ca                	mv	a1,s2
  fff1014dbe:	8522                	mv	a0,s0
  fff1014dc0:	d482                	sw	zero,104(sp)
  fff1014dc2:	e852                	sd	s4,16(sp)
  fff1014dc4:	d03e                	sw	a5,32(sp)
  fff1014dc6:	b2aff0ef          	jal	ra,fff10140f0 <spl+0x4070>
  fff1014dca:	5a051963          	bnez	a0,fff101537c <spl+0x52fc>
  fff1014dce:	000a2703          	lw	a4,0(s4)
  fff1014dd2:	00ff0537          	lui	a0,0xff0
  fff1014dd6:	0187561b          	srliw	a2,a4,0x18
  fff1014dda:	0187179b          	slliw	a5,a4,0x18
  fff1014dde:	8fd1                	or	a5,a5,a2
  fff1014de0:	0087161b          	slliw	a2,a4,0x8
  fff1014de4:	8e69                	and	a2,a2,a0
  fff1014de6:	8e5d                	or	a2,a2,a5
  fff1014de8:	0087579b          	srliw	a5,a4,0x8
  fff1014dec:	6741                	lui	a4,0x10
  fff1014dee:	f0070593          	addi	a1,a4,-256 # ff00 <ROM_BASE-0xfff1000100>
  fff1014df2:	8fed                	and	a5,a5,a1
  fff1014df4:	8fd1                	or	a5,a5,a2
  fff1014df6:	2781                	sext.w	a5,a5
  fff1014df8:	c43c                	sw	a5,72(s0)
  fff1014dfa:	004a2703          	lw	a4,4(s4)
  fff1014dfe:	0187561b          	srliw	a2,a4,0x18
  fff1014e02:	0187169b          	slliw	a3,a4,0x18
  fff1014e06:	8ed1                	or	a3,a3,a2
  fff1014e08:	0087161b          	slliw	a2,a4,0x8
  fff1014e0c:	8e69                	and	a2,a2,a0
  fff1014e0e:	0087571b          	srliw	a4,a4,0x8
  fff1014e12:	8ed1                	or	a3,a3,a2
  fff1014e14:	8f6d                	and	a4,a4,a1
  fff1014e16:	8f55                	or	a4,a4,a3
  fff1014e18:	c478                	sw	a4,76(s0)
  fff1014e1a:	0187d71b          	srliw	a4,a5,0x18
  fff1014e1e:	8b3d                	andi	a4,a4,15
  fff1014e20:	0b570e63          	beq	a4,s5,fff1014edc <spl+0x4e5c>
  fff1014e24:	4689                	li	a3,2
  fff1014e26:	0cd70063          	beq	a4,a3,fff1014ee6 <spl+0x4e66>
  fff1014e2a:	80010737          	lui	a4,0x80010
  fff1014e2e:	83c9                	srli	a5,a5,0x12
  fff1014e30:	c418                	sw	a4,8(s0)
  fff1014e32:	8b85                	andi	a5,a5,1
  fff1014e34:	c791                	beqz	a5,fff1014e40 <spl+0x4dc0>
  fff1014e36:	585c                	lw	a5,52(s0)
  fff1014e38:	20000737          	lui	a4,0x20000
  fff1014e3c:	8fd9                	or	a5,a5,a4
  fff1014e3e:	d85c                	sw	a5,52(s0)
  fff1014e40:	4418                	lw	a4,8(s0)
  fff1014e42:	800107b7          	lui	a5,0x80010
  fff1014e46:	0af71a63          	bne	a4,a5,fff1014efa <spl+0x4e7a>
  fff1014e4a:	00003797          	auipc	a5,0x3
  fff1014e4e:	c6e7b783          	ld	a5,-914(a5) # fff1017ab8 <spl+0x7a38>
  fff1014e52:	03442a83          	lw	s5,52(s0)
  fff1014e56:	f0be                	sd	a5,96(sp)
  fff1014e58:	5c1c                	lw	a5,56(s0)
  fff1014e5a:	4d85                	li	s11,1
  fff1014e5c:	0ff10b93          	addi	s7,sp,255
  fff1014e60:	00fafab3          	and	s5,s5,a5
  fff1014e64:	020d9c93          	slli	s9,s11,0x20
  fff1014e68:	c1fafa93          	andi	s5,s5,-993
  fff1014e6c:	00003a17          	auipc	s4,0x3
  fff1014e70:	404a0a13          	addi	s4,s4,1028 # fff1018270 <spl+0x81f0>
  fff1014e74:	0e010d13          	addi	s10,sp,224
  fff1014e78:	fe0bfb93          	andi	s7,s7,-32
  fff1014e7c:	0c85                	addi	s9,s9,1
  fff1014e7e:	000a2703          	lw	a4,0(s4)
  fff1014e82:	4785                	li	a5,1
  fff1014e84:	00e797bb          	sllw	a5,a5,a4
  fff1014e88:	00faf7b3          	and	a5,s5,a5
  fff1014e8c:	2781                	sext.w	a5,a5
  fff1014e8e:	ebf5                	bnez	a5,fff1014f82 <spl+0x4f02>
  fff1014e90:	0a21                	addi	s4,s4,8
  fff1014e92:	00003797          	auipc	a5,0x3
  fff1014e96:	3ee78793          	addi	a5,a5,1006 # fff1018280 <spl+0x8200>
  fff1014e9a:	fefa12e3          	bne	s4,a5,fff1014e7e <spl+0x4dfe>
  fff1014e9e:	00003517          	auipc	a0,0x3
  fff1014ea2:	fa250513          	addi	a0,a0,-94 # fff1017e40 <spl+0x7dc0>
  fff1014ea6:	b94fd0ef          	jal	ra,fff101223a <spl+0x21ba>
  fff1014eaa:	df400493          	li	s1,-524
  fff1014eae:	00042c23          	sw	zero,24(s0)
  fff1014eb2:	b329                	j	fff1014bbc <spl+0x4b3c>
  fff1014eb4:	40020637          	lui	a2,0x40020
  fff1014eb8:	b9d5                	j	fff1014bac <spl+0x4b2c>
  fff1014eba:	40030637          	lui	a2,0x40030
  fff1014ebe:	bb69                	j	fff1014c58 <spl+0x4bd8>
  fff1014ec0:	6605                	lui	a2,0x1
  fff1014ec2:	1671                	addi	a2,a2,-4
  fff1014ec4:	0027979b          	slliw	a5,a5,0x2
  fff1014ec8:	8ff1                	and	a5,a5,a2
  fff1014eca:	01e7561b          	srliw	a2,a4,0x1e
  fff1014ece:	8fd1                	or	a5,a5,a2
  fff1014ed0:	1782                	slli	a5,a5,0x20
  fff1014ed2:	00f7571b          	srliw	a4,a4,0xf
  fff1014ed6:	9381                	srli	a5,a5,0x20
  fff1014ed8:	8b1d                	andi	a4,a4,7
  fff1014eda:	b3f5                	j	fff1014cc6 <spl+0x4c46>
  fff1014edc:	80011737          	lui	a4,0x80011
  fff1014ee0:	a0070713          	addi	a4,a4,-1536 # ffffffff80010a00 <spl+0xfffffeff8f000980>
  fff1014ee4:	b7a9                	j	fff1014e2e <spl+0x4dae>
  fff1014ee6:	00f7d713          	srli	a4,a5,0xf
  fff1014eea:	8b05                	andi	a4,a4,1
  fff1014eec:	e701                	bnez	a4,fff1014ef4 <spl+0x4e74>
  fff1014eee:	80020737          	lui	a4,0x80020
  fff1014ef2:	bf35                	j	fff1014e2e <spl+0x4dae>
  fff1014ef4:	80030737          	lui	a4,0x80030
  fff1014ef8:	bf1d                	j	fff1014e2e <spl+0x4dae>
  fff1014efa:	4a85                	li	s5,1
  fff1014efc:	0ff10a13          	addi	s4,sp,255
  fff1014f00:	01000bb7          	lui	s7,0x1000
  fff1014f04:	1a82                	slli	s5,s5,0x20
  fff1014f06:	fe0a7a13          	andi	s4,s4,-32
  fff1014f0a:	4b15                	li	s6,5
  fff1014f0c:	1bc5                	addi	s7,s7,-15
  fff1014f0e:	0a85                	addi	s5,s5,1
  fff1014f10:	02810c13          	addi	s8,sp,40
  fff1014f14:	3b7d                	addiw	s6,s6,-1
  fff1014f16:	020b0963          	beqz	s6,fff1014f48 <spl+0x4ec8>
  fff1014f1a:	4799                	li	a5,6
  fff1014f1c:	08f11023          	sh	a5,128(sp)
  fff1014f20:	47d5                	li	a5,21
  fff1014f22:	c33e                	sw	a5,132(sp)
  fff1014f24:	8662                	mv	a2,s8
  fff1014f26:	04000793          	li	a5,64
  fff1014f2a:	010c                	addi	a1,sp,128
  fff1014f2c:	8522                	mv	a0,s0
  fff1014f2e:	c55e                	sw	s7,136(sp)
  fff1014f30:	f452                	sd	s4,40(sp)
  fff1014f32:	f856                	sd	s5,48(sp)
  fff1014f34:	dc3e                	sw	a5,56(sp)
  fff1014f36:	57a000ef          	jal	ra,fff10154b0 <spl+0x5430>
  fff1014f3a:	44051163          	bnez	a0,fff101537c <spl+0x52fc>
  fff1014f3e:	01ca2783          	lw	a5,28(s4)
  fff1014f42:	83a5                	srli	a5,a5,0x9
  fff1014f44:	8b85                	andi	a5,a5,1
  fff1014f46:	f7f9                	bnez	a5,fff1014f14 <spl+0x4e94>
  fff1014f48:	00ca2703          	lw	a4,12(s4)
  fff1014f4c:	00ff0637          	lui	a2,0xff0
  fff1014f50:	0187569b          	srliw	a3,a4,0x18
  fff1014f54:	0187179b          	slliw	a5,a4,0x18
  fff1014f58:	8fd5                	or	a5,a5,a3
  fff1014f5a:	0087169b          	slliw	a3,a4,0x8
  fff1014f5e:	8ef1                	and	a3,a3,a2
  fff1014f60:	8fd5                	or	a5,a5,a3
  fff1014f62:	66c1                	lui	a3,0x10
  fff1014f64:	0087571b          	srliw	a4,a4,0x8
  fff1014f68:	f0068693          	addi	a3,a3,-256 # ff00 <ROM_BASE-0xfff1000100>
  fff1014f6c:	8f75                	and	a4,a4,a3
  fff1014f6e:	8fd9                	or	a5,a5,a4
  fff1014f70:	83c5                	srli	a5,a5,0x11
  fff1014f72:	8b85                	andi	a5,a5,1
  fff1014f74:	ec078be3          	beqz	a5,fff1014e4a <spl+0x4dca>
  fff1014f78:	585c                	lw	a5,52(s0)
  fff1014f7a:	0047e793          	ori	a5,a5,4
  fff1014f7e:	d85c                	sw	a5,52(s0)
  fff1014f80:	b5e9                	j	fff1014e4a <spl+0x4dca>
  fff1014f82:	81000c37          	lui	s8,0x81000
  fff1014f86:	ff0c0793          	addi	a5,s8,-16 # ffffffff80fffff0 <spl+0xfffffeff8ffeff70>
  fff1014f8a:	8b4a                	mv	s6,s2
  fff1014f8c:	e03e                	sd	a5,0(sp)
  fff1014f8e:	004a2783          	lw	a5,4(s4)
  fff1014f92:	000b2c03          	lw	s8,0(s6)
  fff1014f96:	00faf7b3          	and	a5,s5,a5
  fff1014f9a:	0187f7b3          	and	a5,a5,s8
  fff1014f9e:	2781                	sext.w	a5,a5
  fff1014fa0:	1e078163          	beqz	a5,fff1015182 <spl+0x5102>
  fff1014fa4:	400007b7          	lui	a5,0x40000
  fff1014fa8:	1cfc0363          	beq	s8,a5,fff101516e <spl+0x50ee>
  fff1014fac:	200007b7          	lui	a5,0x20000
  fff1014fb0:	18fc0a63          	beq	s8,a5,fff1015144 <spl+0x50c4>
  fff1014fb4:	100007b7          	lui	a5,0x10000
  fff1014fb8:	1afc1b63          	bne	s8,a5,fff101516e <spl+0x50ee>
  fff1014fbc:	4785                	li	a5,1
  fff1014fbe:	03700693          	li	a3,55
  fff1014fc2:	0ed11023          	sh	a3,224(sp)
  fff1014fc6:	07045683          	lhu	a3,112(s0)
  fff1014fca:	4855                	li	a6,21
  fff1014fcc:	4601                	li	a2,0
  fff1014fce:	0106969b          	slliw	a3,a3,0x10
  fff1014fd2:	85ea                	mv	a1,s10
  fff1014fd4:	8522                	mv	a0,s0
  fff1014fd6:	e43e                	sd	a5,8(sp)
  fff1014fd8:	d3c2                	sw	a6,228(sp)
  fff1014fda:	d5b6                	sw	a3,232(sp)
  fff1014fdc:	4d4000ef          	jal	ra,fff10154b0 <spl+0x5430>
  fff1014fe0:	18051763          	bnez	a0,fff101516e <spl+0x50ee>
  fff1014fe4:	67a2                	ld	a5,8(sp)
  fff1014fe6:	4699                	li	a3,6
  fff1014fe8:	4855                	li	a6,21
  fff1014fea:	0ed11023          	sh	a3,224(sp)
  fff1014fee:	d3c2                	sw	a6,228(sp)
  fff1014ff0:	4691                	li	a3,4
  fff1014ff2:	14d79b63          	bne	a5,a3,fff1015148 <spl+0x50c8>
  fff1014ff6:	4789                	li	a5,2
  fff1014ff8:	d5be                	sw	a5,232(sp)
  fff1014ffa:	4601                	li	a2,0
  fff1014ffc:	85ea                	mv	a1,s10
  fff1014ffe:	8522                	mv	a0,s0
  fff1015000:	4b0000ef          	jal	ra,fff10154b0 <spl+0x5430>
  fff1015004:	87aa                	mv	a5,a0
  fff1015006:	16051463          	bnez	a0,fff101516e <spl+0x50ee>
  fff101500a:	20000637          	lui	a2,0x20000
  fff101500e:	4691                	li	a3,4
  fff1015010:	00cc0863          	beq	s8,a2,fff1015020 <spl+0x4fa0>
  fff1015014:	100006b7          	lui	a3,0x10000
  fff1015018:	40dc0733          	sub	a4,s8,a3
  fff101501c:	00173693          	seqz	a3,a4
  fff1015020:	d054                	sw	a3,36(s0)
  fff1015022:	8522                	mv	a0,s0
  fff1015024:	e43e                	sd	a5,8(sp)
  fff1015026:	3ce000ef          	jal	ra,fff10153f4 <spl+0x5374>
  fff101502a:	4414                	lw	a3,8(s0)
  fff101502c:	80010737          	lui	a4,0x80010
  fff1015030:	04e68663          	beq	a3,a4,fff101507c <spl+0x4ffc>
  fff1015034:	000a2703          	lw	a4,0(s4)
  fff1015038:	67a2                	ld	a5,8(sp)
  fff101503a:	c709                	beqz	a4,fff1015044 <spl+0x4fc4>
  fff101503c:	4789                	li	a5,2
  fff101503e:	12f71863          	bne	a4,a5,fff101516e <spl+0x50ee>
  fff1015042:	4785                	li	a5,1
  fff1015044:	4719                	li	a4,6
  fff1015046:	0ae11023          	sh	a4,160(sp)
  fff101504a:	4755                	li	a4,21
  fff101504c:	d33a                	sw	a4,164(sp)
  fff101504e:	6702                	ld	a4,0(sp)
  fff1015050:	2781                	sext.w	a5,a5
  fff1015052:	0110                	addi	a2,sp,128
  fff1015054:	8f5d                	or	a4,a4,a5
  fff1015056:	d53a                	sw	a4,168(sp)
  fff1015058:	110c                	addi	a1,sp,160
  fff101505a:	04000713          	li	a4,64
  fff101505e:	8522                	mv	a0,s0
  fff1015060:	e43e                	sd	a5,8(sp)
  fff1015062:	e15e                	sd	s7,128(sp)
  fff1015064:	e566                	sd	s9,136(sp)
  fff1015066:	c93a                	sw	a4,144(sp)
  fff1015068:	448000ef          	jal	ra,fff10154b0 <spl+0x5430>
  fff101506c:	10051163          	bnez	a0,fff101516e <spl+0x50ee>
  fff1015070:	010bc703          	lbu	a4,16(s7) # 1000010 <ROM_BASE-0xfff000fff0>
  fff1015074:	67a2                	ld	a5,8(sp)
  fff1015076:	8b3d                	andi	a4,a4,15
  fff1015078:	0ef71b63          	bne	a4,a5,fff101516e <spl+0x50ee>
  fff101507c:	000a2783          	lw	a5,0(s4)
  fff1015080:	0ef42423          	sw	a5,232(s0)
  fff1015084:	e7f1                	bnez	a5,fff1015150 <spl+0x50d0>
  fff1015086:	07c42983          	lw	s3,124(s0)
  fff101508a:	17f1                	addi	a5,a5,-4
  fff101508c:	0017b793          	seqz	a5,a5
  fff1015090:	07342c23          	sw	s3,120(s0)
  fff1015094:	0cf42623          	sw	a5,204(s0)
  fff1015098:	4601                	li	a2,0
  fff101509a:	85ce                	mv	a1,s3
  fff101509c:	8522                	mv	a0,s0
  fff101509e:	f8cff0ef          	jal	ra,fff101482a <spl+0x47aa>
  fff10150a2:	0e842783          	lw	a5,232(s0)
  fff10150a6:	0ef42623          	sw	a5,236(s0)
  fff10150aa:	0cc42783          	lw	a5,204(s0)
  fff10150ae:	c789                	beqz	a5,fff10150b8 <spl+0x5038>
  fff10150b0:	20000793          	li	a5,512
  fff10150b4:	08f42023          	sw	a5,128(s0)
  fff10150b8:	8522                	mv	a0,s0
  fff10150ba:	4b2000ef          	jal	ra,fff101556c <spl+0x54ec>
  fff10150be:	00051523          	sh	zero,10(a0)
  fff10150c2:	00050623          	sb	zero,12(a0)
  fff10150c6:	08042703          	lw	a4,128(s0)
  fff10150ca:	ccccd6b7          	lui	a3,0xccccd
  fff10150ce:	ccc68693          	addi	a3,a3,-820 # ffffffffcccccccc <spl+0xfffffeffdbcbcc4c>
  fff10150d2:	02071793          	slli	a5,a4,0x20
  fff10150d6:	9381                	srli	a5,a5,0x20
  fff10150d8:	ed1c                	sd	a5,24(a0)
  fff10150da:	aaaab7b7          	lui	a5,0xaaaab
  fff10150de:	aaa78793          	addi	a5,a5,-1366 # ffffffffaaaaaaaa <spl+0xfffffeffb9a9aa2a>
  fff10150e2:	8ff9                	and	a5,a5,a4
  fff10150e4:	8ef9                	and	a3,a3,a4
  fff10150e6:	2781                	sext.w	a5,a5
  fff10150e8:	00d036b3          	snez	a3,a3
  fff10150ec:	0686                	slli	a3,a3,0x1
  fff10150ee:	00f037b3          	snez	a5,a5
  fff10150f2:	9fb5                	addw	a5,a5,a3
  fff10150f4:	f0f0f6b7          	lui	a3,0xf0f0f
  fff10150f8:	0f068693          	addi	a3,a3,240 # fffffffff0f0f0f0 <spl+0xfffffeffffeff070>
  fff10150fc:	8ef9                	and	a3,a3,a4
  fff10150fe:	00d036b3          	snez	a3,a3
  fff1015102:	068a                	slli	a3,a3,0x2
  fff1015104:	9fb5                	addw	a5,a5,a3
  fff1015106:	ff0106b7          	lui	a3,0xff010
  fff101510a:	f0068693          	addi	a3,a3,-256 # ffffffffff00ff00 <spl+0xffffff000dfffe80>
  fff101510e:	8ef9                	and	a3,a3,a4
  fff1015110:	00d036b3          	snez	a3,a3
  fff1015114:	068e                	slli	a3,a3,0x3
  fff1015116:	9fb5                	addw	a5,a5,a3
  fff1015118:	76c1                	lui	a3,0xffff0
  fff101511a:	8f75                	and	a4,a4,a3
  fff101511c:	00e03733          	snez	a4,a4
  fff1015120:	0712                	slli	a4,a4,0x4
  fff1015122:	9fb9                	addw	a5,a5,a4
  fff1015124:	d11c                	sw	a5,32(a0)
  fff1015126:	08046703          	lwu	a4,128(s0)
  fff101512a:	645c                	ld	a5,136(s0)
  fff101512c:	02050223          	sb	zero,36(a0)
  fff1015130:	040506a3          	sb	zero,77(a0)
  fff1015134:	02e7d7b3          	divu	a5,a5,a4
  fff1015138:	06050123          	sb	zero,98(a0)
  fff101513c:	e91c                	sd	a5,16(a0)
  fff101513e:	4785                	li	a5,1
  fff1015140:	cc1c                	sw	a5,24(s0)
  fff1015142:	bcad                	j	fff1014bbc <spl+0x4b3c>
  fff1015144:	4791                	li	a5,4
  fff1015146:	bda5                	j	fff1014fbe <spl+0x4f3e>
  fff1015148:	ebb799e3          	bne	a5,s11,fff1014ffa <spl+0x4f7a>
  fff101514c:	d582                	sw	zero,232(sp)
  fff101514e:	b575                	j	fff1014ffa <spl+0x4f7a>
  fff1015150:	4731                	li	a4,12
  fff1015152:	f2f76ce3          	bltu	a4,a5,fff101508a <spl+0x500a>
  fff1015156:	02079713          	slli	a4,a5,0x20
  fff101515a:	01e75693          	srli	a3,a4,0x1e
  fff101515e:	00003717          	auipc	a4,0x3
  fff1015162:	ad270713          	addi	a4,a4,-1326 # fff1017c30 <spl+0x7bb0>
  fff1015166:	9736                	add	a4,a4,a3
  fff1015168:	00072983          	lw	s3,0(a4)
  fff101516c:	bf39                	j	fff101508a <spl+0x500a>
  fff101516e:	5c6c                	lw	a1,124(s0)
  fff1015170:	0e042423          	sw	zero,232(s0)
  fff1015174:	0c042623          	sw	zero,204(s0)
  fff1015178:	dc2c                	sw	a1,120(s0)
  fff101517a:	4601                	li	a2,0
  fff101517c:	8522                	mv	a0,s0
  fff101517e:	eacff0ef          	jal	ra,fff101482a <spl+0x47aa>
  fff1015182:	0b11                	addi	s6,s6,4
  fff1015184:	10bc                	addi	a5,sp,104
  fff1015186:	d0fb05e3          	beq	s6,a5,fff1014e90 <spl+0x4e10>
  fff101518a:	b511                	j	fff1014f8e <spl+0x4f0e>
  fff101518c:	d85c                	sw	a5,52(s0)
  fff101518e:	400407b7          	lui	a5,0x40040
  fff1015192:	6c74                	ld	a3,216(s0)
  fff1015194:	f0f767e3          	bltu	a4,a5,fff10150a2 <spl+0x5022>
  fff1015198:	e691                	bnez	a3,fff10151a4 <spl+0x5124>
  fff101519a:	00003517          	auipc	a0,0x3
  fff101519e:	cc650513          	addi	a0,a0,-826 # fff1017e60 <spl+0x7de0>
  fff10151a2:	b311                	j	fff1014ea6 <spl+0x4e26>
  fff10151a4:	70000737          	lui	a4,0x70000
  fff10151a8:	00170793          	addi	a5,a4,1 # 70000001 <ROM_BASE-0xff8100ffff>
  fff10151ac:	d85c                	sw	a5,52(s0)
  fff10151ae:	0c46c783          	lbu	a5,196(a3) # ffffffffffff00c4 <spl+0xffffff000efe0044>
  fff10151b2:	0ef42023          	sw	a5,224(s0)
  fff10151b6:	0027f693          	andi	a3,a5,2
  fff10151ba:	ca91                	beqz	a3,fff10151ce <spl+0x514e>
  fff10151bc:	00c7f693          	andi	a3,a5,12
  fff10151c0:	c299                	beqz	a3,fff10151c6 <spl+0x5146>
  fff10151c2:	0745                	addi	a4,a4,17
  fff10151c4:	d858                	sw	a4,52(s0)
  fff10151c6:	5858                	lw	a4,52(s0)
  fff10151c8:	00876713          	ori	a4,a4,8
  fff10151cc:	d858                	sw	a4,52(s0)
  fff10151ce:	8b85                	andi	a5,a5,1
  fff10151d0:	c789                	beqz	a5,fff10151da <spl+0x515a>
  fff10151d2:	585c                	lw	a5,52(s0)
  fff10151d4:	0067e793          	ori	a5,a5,6
  fff10151d8:	d85c                	sw	a5,52(s0)
  fff10151da:	5c1c                	lw	a5,56(s0)
  fff10151dc:	03442a03          	lw	s4,52(s0)
  fff10151e0:	5c6c                	lw	a1,124(s0)
  fff10151e2:	4601                	li	a2,0
  fff10151e4:	8522                	mv	a0,s0
  fff10151e6:	00fa7a33          	and	s4,s4,a5
  fff10151ea:	e40ff0ef          	jal	ra,fff101482a <spl+0x47aa>
  fff10151ee:	2a01                	sext.w	s4,s4
  fff10151f0:	4781                	li	a5,0
  fff10151f2:	00003917          	auipc	s2,0x3
  fff10151f6:	cde90913          	addi	s2,s2,-802 # fff1017ed0 <spl+0x7e50>
  fff10151fa:	40000b37          	lui	s6,0x40000
  fff10151fe:	00003b97          	auipc	s7,0x3
  fff1015202:	a32b8b93          	addi	s7,s7,-1486 # fff1017c30 <spl+0x7bb0>
  fff1015206:	00003c17          	auipc	s8,0x3
  fff101520a:	c8ac0c13          	addi	s8,s8,-886 # fff1017e90 <spl+0x7e10>
  fff101520e:	00003c97          	auipc	s9,0x3
  fff1015212:	c6ac8c93          	addi	s9,s9,-918 # fff1017e78 <spl+0x7df8>
  fff1015216:	00003d17          	auipc	s10,0x3
  fff101521a:	98ed0d13          	addi	s10,s10,-1650 # fff1017ba4 <spl+0x7b24>
  fff101521e:	00092683          	lw	a3,0(s2)
  fff1015222:	4705                	li	a4,1
  fff1015224:	00d7173b          	sllw	a4,a4,a3
  fff1015228:	00ea7733          	and	a4,s4,a4
  fff101522c:	2701                	sext.w	a4,a4
  fff101522e:	cb55                	beqz	a4,fff10152e2 <spl+0x5262>
  fff1015230:	00003997          	auipc	s3,0x3
  fff1015234:	93898993          	addi	s3,s3,-1736 # fff1017b68 <spl+0x7ae8>
  fff1015238:	4dad                	li	s11,11
  fff101523a:	4ab1                	li	s5,12
  fff101523c:	00092703          	lw	a4,0(s2)
  fff1015240:	0049c683          	lbu	a3,4(s3)
  fff1015244:	1771                	addi	a4,a4,-4
  fff1015246:	00173713          	seqz	a4,a4
  fff101524a:	08e69963          	bne	a3,a4,fff10152dc <spl+0x525c>
  fff101524e:	00492703          	lw	a4,4(s2)
  fff1015252:	0009a683          	lw	a3,0(s3)
  fff1015256:	00ea7733          	and	a4,s4,a4
  fff101525a:	8f75                	and	a4,a4,a3
  fff101525c:	2701                	sext.w	a4,a4
  fff101525e:	cf3d                	beqz	a4,fff10152dc <spl+0x525c>
  fff1015260:	0089a683          	lw	a3,8(s3)
  fff1015264:	0b700613          	li	a2,183
  fff1015268:	4585                	li	a1,1
  fff101526a:	0fb6f693          	andi	a3,a3,251
  fff101526e:	8522                	mv	a0,s0
  fff1015270:	b64ff0ef          	jal	ra,fff10145d4 <spl+0x4554>
  fff1015274:	87aa                	mv	a5,a0
  fff1015276:	ed1d                	bnez	a0,fff10152b4 <spl+0x5234>
  fff1015278:	0009a783          	lw	a5,0(s3)
  fff101527c:	4721                	li	a4,8
  fff101527e:	01678c63          	beq	a5,s6,fff1015296 <spl+0x5216>
  fff1015282:	200006b7          	lui	a3,0x20000
  fff1015286:	4711                	li	a4,4
  fff1015288:	00d78763          	beq	a5,a3,fff1015296 <spl+0x5216>
  fff101528c:	10000737          	lui	a4,0x10000
  fff1015290:	8f99                	sub	a5,a5,a4
  fff1015292:	0017b713          	seqz	a4,a5
  fff1015296:	d058                	sw	a4,36(s0)
  fff1015298:	8522                	mv	a0,s0
  fff101529a:	15a000ef          	jal	ra,fff10153f4 <spl+0x5374>
  fff101529e:	00092583          	lw	a1,0(s2)
  fff10152a2:	05b59f63          	bne	a1,s11,fff1015300 <spl+0x5280>
  fff10152a6:	df400593          	li	a1,-524
  fff10152aa:	8566                	mv	a0,s9
  fff10152ac:	f8ffc0ef          	jal	ra,fff101223a <spl+0x21ba>
  fff10152b0:	df400793          	li	a5,-524
  fff10152b4:	4681                	li	a3,0
  fff10152b6:	0b700613          	li	a2,183
  fff10152ba:	4585                	li	a1,1
  fff10152bc:	8522                	mv	a0,s0
  fff10152be:	e03e                	sd	a5,0(sp)
  fff10152c0:	b14ff0ef          	jal	ra,fff10145d4 <spl+0x4554>
  fff10152c4:	5c78                	lw	a4,124(s0)
  fff10152c6:	0e042423          	sw	zero,232(s0)
  fff10152ca:	0c042623          	sw	zero,204(s0)
  fff10152ce:	dc38                	sw	a4,120(s0)
  fff10152d0:	4705                	li	a4,1
  fff10152d2:	d058                	sw	a4,36(s0)
  fff10152d4:	8522                	mv	a0,s0
  fff10152d6:	11e000ef          	jal	ra,fff10153f4 <spl+0x5374>
  fff10152da:	6782                	ld	a5,0(sp)
  fff10152dc:	09b1                	addi	s3,s3,12
  fff10152de:	f5a99fe3          	bne	s3,s10,fff101523c <spl+0x51bc>
  fff10152e2:	0921                	addi	s2,s2,8
  fff10152e4:	00003717          	auipc	a4,0x3
  fff10152e8:	c0c70713          	addi	a4,a4,-1012 # fff1017ef0 <spl+0x7e70>
  fff10152ec:	f2e919e3          	bne	s2,a4,fff101521e <spl+0x519e>
  fff10152f0:	85be                	mv	a1,a5
  fff10152f2:	00003517          	auipc	a0,0x3
  fff10152f6:	bbe50513          	addi	a0,a0,-1090 # fff1017eb0 <spl+0x7e30>
  fff10152fa:	f41fc0ef          	jal	ra,fff101223a <spl+0x21ba>
  fff10152fe:	b675                	j	fff1014eaa <spl+0x4e2a>
  fff1015300:	01559663          	bne	a1,s5,fff101530c <spl+0x528c>
  fff1015304:	df400593          	li	a1,-524
  fff1015308:	8562                	mv	a0,s8
  fff101530a:	b74d                	j	fff10152ac <spl+0x522c>
  fff101530c:	8522                	mv	a0,s0
  fff101530e:	a48ff0ef          	jal	ra,fff1014556 <spl+0x44d6>
  fff1015312:	87aa                	mv	a5,a0
  fff1015314:	f145                	bnez	a0,fff10152b4 <spl+0x5234>
  fff1015316:	0089a683          	lw	a3,8(s3)
  fff101531a:	0046f793          	andi	a5,a3,4
  fff101531e:	e79d                	bnez	a5,fff101534c <spl+0x52cc>
  fff1015320:	00092783          	lw	a5,0(s2)
  fff1015324:	0ef42423          	sw	a5,232(s0)
  fff1015328:	ef8d                	bnez	a5,fff1015362 <spl+0x52e2>
  fff101532a:	5c6c                	lw	a1,124(s0)
  fff101532c:	17f1                	addi	a5,a5,-4
  fff101532e:	0017b793          	seqz	a5,a5
  fff1015332:	0cf42623          	sw	a5,204(s0)
  fff1015336:	dc2c                	sw	a1,120(s0)
  fff1015338:	4601                	li	a2,0
  fff101533a:	8522                	mv	a0,s0
  fff101533c:	ceeff0ef          	jal	ra,fff101482a <spl+0x47aa>
  fff1015340:	8522                	mv	a0,s0
  fff1015342:	98cff0ef          	jal	ra,fff10144ce <spl+0x444e>
  fff1015346:	87aa                	mv	a5,a0
  fff1015348:	f535                	bnez	a0,fff10152b4 <spl+0x5234>
  fff101534a:	bba1                	j	fff10150a2 <spl+0x5022>
  fff101534c:	0ff6f693          	zext.b	a3,a3
  fff1015350:	0b700613          	li	a2,183
  fff1015354:	4585                	li	a1,1
  fff1015356:	8522                	mv	a0,s0
  fff1015358:	a7cff0ef          	jal	ra,fff10145d4 <spl+0x4554>
  fff101535c:	87aa                	mv	a5,a0
  fff101535e:	d169                	beqz	a0,fff1015320 <spl+0x52a0>
  fff1015360:	bf91                	j	fff10152b4 <spl+0x5234>
  fff1015362:	4581                	li	a1,0
  fff1015364:	fcfae4e3          	bltu	s5,a5,fff101532c <spl+0x52ac>
  fff1015368:	02079693          	slli	a3,a5,0x20
  fff101536c:	01e6d713          	srli	a4,a3,0x1e
  fff1015370:	975e                	add	a4,a4,s7
  fff1015372:	430c                	lw	a1,0(a4)
  fff1015374:	bf65                	j	fff101532c <spl+0x52ac>
  fff1015376:	fa100493          	li	s1,-95
  fff101537a:	be15                	j	fff1014eae <spl+0x4e2e>
  fff101537c:	84aa                	mv	s1,a0
  fff101537e:	be05                	j	fff1014eae <spl+0x4e2e>
  fff1015380:	7179                	addi	sp,sp,-48
  fff1015382:	85aa                	mv	a1,a0
  fff1015384:	0830                	addi	a2,sp,24
  fff1015386:	e02a                	sd	a0,0(sp)
  fff1015388:	04300513          	li	a0,67
  fff101538c:	e432                	sd	a2,8(sp)
  fff101538e:	f406                	sd	ra,40(sp)
  fff1015390:	983fe0ef          	jal	ra,fff1013d12 <spl+0x3c92>
  fff1015394:	6582                	ld	a1,0(sp)
  fff1015396:	6622                	ld	a2,8(sp)
  fff1015398:	e519                	bnez	a0,fff10153a6 <spl+0x5326>
  fff101539a:	6562                	ld	a0,24(sp)
  fff101539c:	0be000ef          	jal	ra,fff101545a <spl+0x53da>
  fff10153a0:	e919                	bnez	a0,fff10153b6 <spl+0x5336>
  fff10153a2:	4501                	li	a0,0
  fff10153a4:	a031                	j	fff10153b0 <spl+0x5330>
  fff10153a6:	04300513          	li	a0,67
  fff10153aa:	945fe0ef          	jal	ra,fff1013cee <spl+0x3c6e>
  fff10153ae:	d575                	beqz	a0,fff101539a <spl+0x531a>
  fff10153b0:	70a2                	ld	ra,40(sp)
  fff10153b2:	6145                	addi	sp,sp,48
  fff10153b4:	8082                	ret
  fff10153b6:	0ca54783          	lbu	a5,202(a0)
  fff10153ba:	4735                	li	a4,13
  fff10153bc:	0ee52c23          	sw	a4,248(a0)
  fff10153c0:	d3ed                	beqz	a5,fff10153a2 <spl+0x5322>
  fff10153c2:	e88ff0ef          	jal	ra,fff1014a4a <spl+0x49ca>
  fff10153c6:	bff1                	j	fff10153a2 <spl+0x5322>
  fff10153c8:	1141                	addi	sp,sp,-16
  fff10153ca:	e406                	sd	ra,8(sp)
  fff10153cc:	e022                	sd	s0,0(sp)
  fff10153ce:	842a                	mv	s0,a0
  fff10153d0:	c4bfd0ef          	jal	ra,fff101301a <spl+0x2f9a>
  fff10153d4:	c3bfd0ef          	jal	ra,fff101300e <spl+0x2f8e>
  fff10153d8:	6108                	ld	a0,0(a0)
  fff10153da:	ec0ff0ef          	jal	ra,fff1014a9a <spl+0x4a1a>
  fff10153de:	e519                	bnez	a0,fff10153ec <spl+0x536c>
  fff10153e0:	8522                	mv	a0,s0
  fff10153e2:	6402                	ld	s0,0(sp)
  fff10153e4:	60a2                	ld	ra,8(sp)
  fff10153e6:	0141                	addi	sp,sp,16
  fff10153e8:	d93fd06f          	j	fff101317a <spl+0x30fa>
  fff10153ec:	60a2                	ld	ra,8(sp)
  fff10153ee:	6402                	ld	s0,0(sp)
  fff10153f0:	0141                	addi	sp,sp,16
  fff10153f2:	8082                	ret
  fff10153f4:	6968                	ld	a0,208(a0)
  fff10153f6:	611c                	ld	a5,0(a0)
  fff10153f8:	77bc                	ld	a5,104(a5)
  fff10153fa:	6f9c                	ld	a5,24(a5)
  fff10153fc:	c391                	beqz	a5,fff1015400 <spl+0x5380>
  fff10153fe:	8782                	jr	a5
  fff1015400:	fda00513          	li	a0,-38
  fff1015404:	8082                	ret
  fff1015406:	6968                	ld	a0,208(a0)
  fff1015408:	611c                	ld	a5,0(a0)
  fff101540a:	77bc                	ld	a5,104(a5)
  fff101540c:	7b9c                	ld	a5,48(a5)
  fff101540e:	c391                	beqz	a5,fff1015412 <spl+0x5392>
  fff1015410:	8782                	jr	a5
  fff1015412:	fda00513          	li	a0,-38
  fff1015416:	8082                	ret
  fff1015418:	6968                	ld	a0,208(a0)
  fff101541a:	611c                	ld	a5,0(a0)
  fff101541c:	77bc                	ld	a5,104(a5)
  fff101541e:	739c                	ld	a5,32(a5)
  fff1015420:	c391                	beqz	a5,fff1015424 <spl+0x53a4>
  fff1015422:	8782                	jr	a5
  fff1015424:	fda00513          	li	a0,-38
  fff1015428:	8082                	ret
  fff101542a:	6968                	ld	a0,208(a0)
  fff101542c:	611c                	ld	a5,0(a0)
  fff101542e:	77bc                	ld	a5,104(a5)
  fff1015430:	7f9c                	ld	a5,56(a5)
  fff1015432:	c391                	beqz	a5,fff1015436 <spl+0x53b6>
  fff1015434:	8782                	jr	a5
  fff1015436:	4501                	li	a0,0
  fff1015438:	8082                	ret
  fff101543a:	6968                	ld	a0,208(a0)
  fff101543c:	611c                	ld	a5,0(a0)
  fff101543e:	77bc                	ld	a5,104(a5)
  fff1015440:	639c                	ld	a5,0(a5)
  fff1015442:	c391                	beqz	a5,fff1015446 <spl+0x53c6>
  fff1015444:	8782                	jr	a5
  fff1015446:	4501                	li	a0,0
  fff1015448:	8082                	ret
  fff101544a:	6968                	ld	a0,208(a0)
  fff101544c:	611c                	ld	a5,0(a0)
  fff101544e:	77bc                	ld	a5,104(a5)
  fff1015450:	679c                	ld	a5,8(a5)
  fff1015452:	c391                	beqz	a5,fff1015456 <spl+0x53d6>
  fff1015454:	8782                	jr	a5
  fff1015456:	4501                	li	a0,0
  fff1015458:	8082                	ret
  fff101545a:	08852783          	lw	a5,136(a0)
  fff101545e:	8b85                	andi	a5,a5,1
  fff1015460:	cb89                	beqz	a5,fff1015472 <spl+0x53f2>
  fff1015462:	1141                	addi	sp,sp,-16
  fff1015464:	e406                	sd	ra,8(sp)
  fff1015466:	ba9fd0ef          	jal	ra,fff101300e <spl+0x2f8e>
  fff101546a:	60a2                	ld	ra,8(sp)
  fff101546c:	6108                	ld	a0,0(a0)
  fff101546e:	0141                	addi	sp,sp,16
  fff1015470:	8082                	ret
  fff1015472:	4501                	li	a0,0
  fff1015474:	8082                	ret
  fff1015476:	7179                	addi	sp,sp,-48
  fff1015478:	f406                	sd	ra,40(sp)
  fff101547a:	f022                	sd	s0,32(sp)
  fff101547c:	ec26                	sd	s1,24(sp)
  fff101547e:	6960                	ld	s0,208(a0)
  fff1015480:	e42e                	sd	a1,8(sp)
  fff1015482:	e032                	sd	a2,0(sp)
  fff1015484:	601c                	ld	a5,0(s0)
  fff1015486:	8522                	mv	a0,s0
  fff1015488:	77a4                	ld	s1,104(a5)
  fff101548a:	fd1ff0ef          	jal	ra,fff101545a <spl+0x53da>
  fff101548e:	60bc                	ld	a5,64(s1)
  fff1015490:	cb89                	beqz	a5,fff10154a2 <spl+0x5422>
  fff1015492:	8522                	mv	a0,s0
  fff1015494:	7402                	ld	s0,32(sp)
  fff1015496:	6602                	ld	a2,0(sp)
  fff1015498:	65a2                	ld	a1,8(sp)
  fff101549a:	70a2                	ld	ra,40(sp)
  fff101549c:	64e2                	ld	s1,24(sp)
  fff101549e:	6145                	addi	sp,sp,48
  fff10154a0:	8782                	jr	a5
  fff10154a2:	611c                	ld	a5,0(a0)
  fff10154a4:	70a2                	ld	ra,40(sp)
  fff10154a6:	7402                	ld	s0,32(sp)
  fff10154a8:	4f88                	lw	a0,24(a5)
  fff10154aa:	64e2                	ld	s1,24(sp)
  fff10154ac:	6145                	addi	sp,sp,48
  fff10154ae:	8082                	ret
  fff10154b0:	1101                	addi	sp,sp,-32
  fff10154b2:	ec06                	sd	ra,24(sp)
  fff10154b4:	e822                	sd	s0,16(sp)
  fff10154b6:	6960                	ld	s0,208(a0)
  fff10154b8:	e42e                	sd	a1,8(sp)
  fff10154ba:	e032                	sd	a2,0(sp)
  fff10154bc:	8522                	mv	a0,s0
  fff10154be:	f9dff0ef          	jal	ra,fff101545a <spl+0x53da>
  fff10154c2:	601c                	ld	a5,0(s0)
  fff10154c4:	77bc                	ld	a5,104(a5)
  fff10154c6:	6b9c                	ld	a5,16(a5)
  fff10154c8:	cb81                	beqz	a5,fff10154d8 <spl+0x5458>
  fff10154ca:	8522                	mv	a0,s0
  fff10154cc:	6442                	ld	s0,16(sp)
  fff10154ce:	6602                	ld	a2,0(sp)
  fff10154d0:	65a2                	ld	a1,8(sp)
  fff10154d2:	60e2                	ld	ra,24(sp)
  fff10154d4:	6105                	addi	sp,sp,32
  fff10154d6:	8782                	jr	a5
  fff10154d8:	60e2                	ld	ra,24(sp)
  fff10154da:	6442                	ld	s0,16(sp)
  fff10154dc:	fda00513          	li	a0,-38
  fff10154e0:	6105                	addi	sp,sp,32
  fff10154e2:	8082                	ret
  fff10154e4:	7179                	addi	sp,sp,-48
  fff10154e6:	e42e                	sd	a1,8(sp)
  fff10154e8:	f406                	sd	ra,40(sp)
  fff10154ea:	f022                	sd	s0,32(sp)
  fff10154ec:	ec26                	sd	s1,24(sp)
  fff10154ee:	84aa                	mv	s1,a0
  fff10154f0:	b2bfd0ef          	jal	ra,fff101301a <spl+0x2f9a>
  fff10154f4:	f67ff0ef          	jal	ra,fff101545a <spl+0x53da>
  fff10154f8:	842a                	mv	s0,a0
  fff10154fa:	8526                	mv	a0,s1
  fff10154fc:	b07fd0ef          	jal	ra,fff1013002 <spl+0x2f82>
  fff1015500:	00b54783          	lbu	a5,11(a0)
  fff1015504:	65a2                	ld	a1,8(sp)
  fff1015506:	00b78f63          	beq	a5,a1,fff1015524 <spl+0x54a4>
  fff101550a:	07544703          	lbu	a4,117(s0)
  fff101550e:	0ff00793          	li	a5,255
  fff1015512:	00f70f63          	beq	a4,a5,fff1015530 <spl+0x54b0>
  fff1015516:	8522                	mv	a0,s0
  fff1015518:	7402                	ld	s0,32(sp)
  fff101551a:	70a2                	ld	ra,40(sp)
  fff101551c:	64e2                	ld	s1,24(sp)
  fff101551e:	6145                	addi	sp,sp,48
  fff1015520:	a96ff06f          	j	fff10147b6 <spl+0x4736>
  fff1015524:	4501                	li	a0,0
  fff1015526:	70a2                	ld	ra,40(sp)
  fff1015528:	7402                	ld	s0,32(sp)
  fff101552a:	64e2                	ld	s1,24(sp)
  fff101552c:	6145                	addi	sp,sp,48
  fff101552e:	8082                	ret
  fff1015530:	f8400513          	li	a0,-124
  fff1015534:	bfcd                	j	fff1015526 <spl+0x54a6>
  fff1015536:	7179                	addi	sp,sp,-48
  fff1015538:	85aa                	mv	a1,a0
  fff101553a:	e42a                	sd	a0,8(sp)
  fff101553c:	0830                	addi	a2,sp,24
  fff101553e:	04300513          	li	a0,67
  fff1015542:	f406                	sd	ra,40(sp)
  fff1015544:	f8afd0ef          	jal	ra,fff1012cce <spl+0x2c4e>
  fff1015548:	65a2                	ld	a1,8(sp)
  fff101554a:	c919                	beqz	a0,fff1015560 <spl+0x54e0>
  fff101554c:	00002517          	auipc	a0,0x2
  fff1015550:	6c450513          	addi	a0,a0,1732 # fff1017c10 <spl+0x7b90>
  fff1015554:	ce7fc0ef          	jal	ra,fff101223a <spl+0x21ba>
  fff1015558:	4501                	li	a0,0
  fff101555a:	70a2                	ld	ra,40(sp)
  fff101555c:	6145                	addi	sp,sp,48
  fff101555e:	8082                	ret
  fff1015560:	6562                	ld	a0,24(sp)
  fff1015562:	ab9fd0ef          	jal	ra,fff101301a <spl+0x2f9a>
  fff1015566:	ef5ff0ef          	jal	ra,fff101545a <spl+0x53da>
  fff101556a:	bfc5                	j	fff101555a <spl+0x54da>
  fff101556c:	1101                	addi	sp,sp,-32
  fff101556e:	ec06                	sd	ra,24(sp)
  fff1015570:	6968                	ld	a0,208(a0)
  fff1015572:	0030                	addi	a2,sp,8
  fff1015574:	45d9                	li	a1,22
  fff1015576:	ab5fd0ef          	jal	ra,fff101302a <spl+0x2faa>
  fff101557a:	6522                	ld	a0,8(sp)
  fff101557c:	c119                	beqz	a0,fff1015582 <spl+0x5502>
  fff101557e:	a85fd0ef          	jal	ra,fff1013002 <spl+0x2f82>
  fff1015582:	60e2                	ld	ra,24(sp)
  fff1015584:	6105                	addi	sp,sp,32
  fff1015586:	8082                	ret
  fff1015588:	7139                	addi	sp,sp,-64
  fff101558a:	f04a                	sd	s2,32(sp)
  fff101558c:	fc06                	sd	ra,56(sp)
  fff101558e:	f822                	sd	s0,48(sp)
  fff1015590:	f426                	sd	s1,40(sp)
  fff1015592:	ec4e                	sd	s3,24(sp)
  fff1015594:	611c                	ld	a5,0(a0)
  fff1015596:	fda00913          	li	s2,-38
  fff101559a:	77bc                	ld	a5,104(a5)
  fff101559c:	cfa9                	beqz	a5,fff10155f6 <spl+0x5576>
  fff101559e:	08c52703          	lw	a4,140(a0)
  fff10155a2:	842e                	mv	s0,a1
  fff10155a4:	89b2                	mv	s3,a2
  fff10155a6:	00810893          	addi	a7,sp,8
  fff10155aa:	4801                	li	a6,0
  fff10155ac:	20000793          	li	a5,512
  fff10155b0:	04300693          	li	a3,67
  fff10155b4:	00003617          	auipc	a2,0x3
  fff10155b8:	11c60613          	addi	a2,a2,284 # fff10186d0 <spl+0x8650>
  fff10155bc:	00002597          	auipc	a1,0x2
  fff10155c0:	7fc58593          	addi	a1,a1,2044 # fff1017db8 <spl+0x7d38>
  fff10155c4:	84aa                	mv	s1,a0
  fff10155c6:	973fd0ef          	jal	ra,fff1012f38 <spl+0x2eb8>
  fff10155ca:	892a                	mv	s2,a0
  fff10155cc:	e50d                	bnez	a0,fff10155f6 <spl+0x5576>
  fff10155ce:	6522                	ld	a0,8(sp)
  fff10155d0:	a33fd0ef          	jal	ra,fff1013002 <spl+0x2f82>
  fff10155d4:	57fd                	li	a5,-1
  fff10155d6:	9381                	srli	a5,a5,0x20
  fff10155d8:	e03c                	sd	a5,64(s0)
  fff10155da:	01343023          	sd	s3,0(s0)
  fff10155de:	e804                	sd	s1,16(s0)
  fff10155e0:	4785                	li	a5,1
  fff10155e2:	00f506a3          	sb	a5,13(a0)
  fff10155e6:	01c9c783          	lbu	a5,28(s3)
  fff10155ea:	00f50423          	sb	a5,8(a0)
  fff10155ee:	47b5                	li	a5,13
  fff10155f0:	e864                	sd	s1,208(s0)
  fff10155f2:	0ef42c23          	sw	a5,248(s0)
  fff10155f6:	70e2                	ld	ra,56(sp)
  fff10155f8:	7442                	ld	s0,48(sp)
  fff10155fa:	74a2                	ld	s1,40(sp)
  fff10155fc:	69e2                	ld	s3,24(sp)
  fff10155fe:	854a                	mv	a0,s2
  fff1015600:	7902                	ld	s2,32(sp)
  fff1015602:	6121                	addi	sp,sp,64
  fff1015604:	8082                	ret
  fff1015606:	4505                	li	a0,1
  fff1015608:	8082                	ret
  fff101560a:	1101                	addi	sp,sp,-32
  fff101560c:	ec06                	sd	ra,24(sp)
  fff101560e:	e822                	sd	s0,16(sp)
  fff1015610:	e426                	sd	s1,8(sp)
  fff1015612:	e04a                	sd	s2,0(sp)
  fff1015614:	84aa                	mv	s1,a0
  fff1015616:	9f3fd0ef          	jal	ra,fff1013008 <spl+0x2f88>
  fff101561a:	892a                	mv	s2,a0
  fff101561c:	8526                	mv	a0,s1
  fff101561e:	9d9fd0ef          	jal	ra,fff1012ff6 <spl+0x2f76>
  fff1015622:	842a                	mv	s0,a0
  fff1015624:	8526                	mv	a0,s1
  fff1015626:	e79fd0ef          	jal	ra,fff101349e <spl+0x341e>
  fff101562a:	00a93023          	sd	a0,0(s2)
  fff101562e:	00003797          	auipc	a5,0x3
  fff1015632:	97278793          	addi	a5,a5,-1678 # fff1017fa0 <spl+0x7f20>
  fff1015636:	e01c                	sd	a5,0(s0)
  fff1015638:	008017b7          	lui	a5,0x801
  fff101563c:	07ca                	slli	a5,a5,0x12
  fff101563e:	e41c                	sd	a5,8(s0)
  fff1015640:	00002797          	auipc	a5,0x2
  fff1015644:	4807b783          	ld	a5,1152(a5) # fff1017ac0 <spl+0x7a40>
  fff1015648:	e81c                	sd	a5,16(s0)
  fff101564a:	20000793          	li	a5,512
  fff101564e:	0af42023          	sw	a5,160(s0)
  fff1015652:	4785                	li	a5,1
  fff1015654:	02c79713          	slli	a4,a5,0x2c
  fff1015658:	f858                	sd	a4,176(s0)
  fff101565a:	02379713          	slli	a4,a5,0x23
  fff101565e:	f458                	sd	a4,168(s0)
  fff1015660:	dc1c                	sw	a5,56(s0)
  fff1015662:	0a043c23          	sd	zero,184(s0)
  fff1015666:	0c043023          	sd	zero,192(s0)
  fff101566a:	0c043423          	sd	zero,200(s0)
  fff101566e:	0c043823          	sd	zero,208(s0)
  fff1015672:	0c043c23          	sd	zero,216(s0)
  fff1015676:	0e043023          	sd	zero,224(s0)
  fff101567a:	02040513          	addi	a0,s0,32
  fff101567e:	eefff0ef          	jal	ra,fff101556c <spl+0x54ec>
  fff1015682:	00051523          	sh	zero,10(a0)
  fff1015686:	00050623          	sb	zero,12(a0)
  fff101568a:	0a042703          	lw	a4,160(s0)
  fff101568e:	ccccd6b7          	lui	a3,0xccccd
  fff1015692:	ccc68693          	addi	a3,a3,-820 # ffffffffcccccccc <spl+0xfffffeffdbcbcc4c>
  fff1015696:	02071793          	slli	a5,a4,0x20
  fff101569a:	9381                	srli	a5,a5,0x20
  fff101569c:	ed1c                	sd	a5,24(a0)
  fff101569e:	aaaab7b7          	lui	a5,0xaaaab
  fff10156a2:	aaa78793          	addi	a5,a5,-1366 # ffffffffaaaaaaaa <spl+0xfffffeffb9a9aa2a>
  fff10156a6:	8ff9                	and	a5,a5,a4
  fff10156a8:	8ef9                	and	a3,a3,a4
  fff10156aa:	2781                	sext.w	a5,a5
  fff10156ac:	00d036b3          	snez	a3,a3
  fff10156b0:	0686                	slli	a3,a3,0x1
  fff10156b2:	00f037b3          	snez	a5,a5
  fff10156b6:	9fb5                	addw	a5,a5,a3
  fff10156b8:	f0f0f6b7          	lui	a3,0xf0f0f
  fff10156bc:	0f068693          	addi	a3,a3,240 # fffffffff0f0f0f0 <spl+0xfffffeffffeff070>
  fff10156c0:	8ef9                	and	a3,a3,a4
  fff10156c2:	00d036b3          	snez	a3,a3
  fff10156c6:	068a                	slli	a3,a3,0x2
  fff10156c8:	9fb5                	addw	a5,a5,a3
  fff10156ca:	ff0106b7          	lui	a3,0xff010
  fff10156ce:	f0068693          	addi	a3,a3,-256 # ffffffffff00ff00 <spl+0xffffff000dfffe80>
  fff10156d2:	8ef9                	and	a3,a3,a4
  fff10156d4:	00d036b3          	snez	a3,a3
  fff10156d8:	068e                	slli	a3,a3,0x3
  fff10156da:	9fb5                	addw	a5,a5,a3
  fff10156dc:	76c1                	lui	a3,0xffff0
  fff10156de:	8f75                	and	a4,a4,a3
  fff10156e0:	00e03733          	snez	a4,a4
  fff10156e4:	0712                	slli	a4,a4,0x4
  fff10156e6:	9fb9                	addw	a5,a5,a4
  fff10156e8:	d11c                	sw	a5,32(a0)
  fff10156ea:	0a046703          	lwu	a4,160(s0)
  fff10156ee:	745c                	ld	a5,168(s0)
  fff10156f0:	02e7d7b3          	divu	a5,a5,a4
  fff10156f4:	e91c                	sd	a5,16(a0)
  fff10156f6:	60e2                	ld	ra,24(sp)
  fff10156f8:	6442                	ld	s0,16(sp)
  fff10156fa:	64a2                	ld	s1,8(sp)
  fff10156fc:	6902                	ld	s2,0(sp)
  fff10156fe:	4501                	li	a0,0
  fff1015700:	6105                	addi	sp,sp,32
  fff1015702:	8082                	ret
  fff1015704:	1101                	addi	sp,sp,-32
  fff1015706:	ec06                	sd	ra,24(sp)
  fff1015708:	e822                	sd	s0,16(sp)
  fff101570a:	e426                	sd	s1,8(sp)
  fff101570c:	84aa                	mv	s1,a0
  fff101570e:	901fd0ef          	jal	ra,fff101300e <spl+0x2f8e>
  fff1015712:	842a                	mv	s0,a0
  fff1015714:	8526                	mv	a0,s1
  fff1015716:	8e1fd0ef          	jal	ra,fff1012ff6 <spl+0x2f76>
  fff101571a:	649c                	ld	a5,8(s1)
  fff101571c:	e11c                	sd	a5,0(a0)
  fff101571e:	02050793          	addi	a5,a0,32
  fff1015722:	e01c                	sd	a5,0(s0)
  fff1015724:	4785                	li	a5,1
  fff1015726:	dd1c                	sw	a5,56(a0)
  fff1015728:	6018                	ld	a4,0(s0)
  fff101572a:	178e                	slli	a5,a5,0x23
  fff101572c:	4501                	li	a0,0
  fff101572e:	e75c                	sd	a5,136(a4)
  fff1015730:	601c                	ld	a5,0(s0)
  fff1015732:	20000713          	li	a4,512
  fff1015736:	08e7a023          	sw	a4,128(a5)
  fff101573a:	60e2                	ld	ra,24(sp)
  fff101573c:	6442                	ld	s0,16(sp)
  fff101573e:	64a2                	ld	s1,8(sp)
  fff1015740:	6105                	addi	sp,sp,32
  fff1015742:	8082                	ret
  fff1015744:	1141                	addi	sp,sp,-16
  fff1015746:	e022                	sd	s0,0(sp)
  fff1015748:	e406                	sd	ra,8(sp)
  fff101574a:	842a                	mv	s0,a0
  fff101574c:	8abfd0ef          	jal	ra,fff1012ff6 <spl+0x2f76>
  fff1015750:	641c                	ld	a5,8(s0)
  fff1015752:	862a                	mv	a2,a0
  fff1015754:	02050593          	addi	a1,a0,32
  fff1015758:	e11c                	sd	a5,0(a0)
  fff101575a:	00002797          	auipc	a5,0x2
  fff101575e:	36e7b783          	ld	a5,878(a5) # fff1017ac8 <spl+0x7a48>
  fff1015762:	e51c                	sd	a5,8(a0)
  fff1015764:	00002797          	auipc	a5,0x2
  fff1015768:	35c7b783          	ld	a5,860(a5) # fff1017ac0 <spl+0x7a40>
  fff101576c:	e91c                	sd	a5,16(a0)
  fff101576e:	20000793          	li	a5,512
  fff1015772:	cd1c                	sw	a5,24(a0)
  fff1015774:	8522                	mv	a0,s0
  fff1015776:	6402                	ld	s0,0(sp)
  fff1015778:	60a2                	ld	ra,8(sp)
  fff101577a:	0141                	addi	sp,sp,16
  fff101577c:	e0dff06f          	j	fff1015588 <spl+0x5508>
  fff1015780:	ca35                	beqz	a2,fff10157f4 <spl+0x5774>
  fff1015782:	1101                	addi	sp,sp,-32
  fff1015784:	e822                	sd	s0,16(sp)
  fff1015786:	e426                	sd	s1,8(sp)
  fff1015788:	8432                	mv	s0,a2
  fff101578a:	84ae                	mv	s1,a1
  fff101578c:	ec06                	sd	ra,24(sp)
  fff101578e:	87bfd0ef          	jal	ra,fff1013008 <spl+0x2f88>
  fff1015792:	0084e703          	lwu	a4,8(s1)
  fff1015796:	611c                	ld	a5,0(a0)
  fff1015798:	4810                	lw	a2,16(s0)
  fff101579a:	6014                	ld	a3,0(s0)
  fff101579c:	97ba                	add	a5,a5,a4
  fff101579e:	4458                	lw	a4,12(s0)
  fff10157a0:	85b6                	mv	a1,a3
  fff10157a2:	02c7073b          	mulw	a4,a4,a2
  fff10157a6:	1702                	slli	a4,a4,0x20
  fff10157a8:	9301                	srli	a4,a4,0x20
  fff10157aa:	e719                	bnez	a4,fff10157b8 <spl+0x5738>
  fff10157ac:	60e2                	ld	ra,24(sp)
  fff10157ae:	6442                	ld	s0,16(sp)
  fff10157b0:	64a2                	ld	s1,8(sp)
  fff10157b2:	4501                	li	a0,0
  fff10157b4:	6105                	addi	sp,sp,32
  fff10157b6:	8082                	ret
  fff10157b8:	4410                	lw	a2,8(s0)
  fff10157ba:	00167513          	andi	a0,a2,1
  fff10157be:	cd11                	beqz	a0,fff10157da <spl+0x575a>
  fff10157c0:	00478513          	addi	a0,a5,4
  fff10157c4:	439c                	lw	a5,0(a5)
  fff10157c6:	00468613          	addi	a2,a3,4 # ffffffffffff0004 <spl+0xffffff000efdff84>
  fff10157ca:	2781                	sext.w	a5,a5
  fff10157cc:	0aa0000f          	fence	ir,ir
  fff10157d0:	c29c                	sw	a5,0(a3)
  fff10157d2:	87aa                	mv	a5,a0
  fff10157d4:	86b2                	mv	a3,a2
  fff10157d6:	1771                	addi	a4,a4,-4
  fff10157d8:	bfc9                	j	fff10157aa <spl+0x572a>
  fff10157da:	8a09                	andi	a2,a2,2
  fff10157dc:	de6d                	beqz	a2,fff10157d6 <spl+0x5756>
  fff10157de:	00458513          	addi	a0,a1,4
  fff10157e2:	00478613          	addi	a2,a5,4
  fff10157e6:	418c                	lw	a1,0(a1)
  fff10157e8:	0550000f          	fence	ow,ow
  fff10157ec:	c38c                	sw	a1,0(a5)
  fff10157ee:	85aa                	mv	a1,a0
  fff10157f0:	87b2                	mv	a5,a2
  fff10157f2:	b7d5                	j	fff10157d6 <spl+0x5756>
  fff10157f4:	4501                	li	a0,0
  fff10157f6:	8082                	ret
  fff10157f8:	7179                	addi	sp,sp,-48
  fff10157fa:	f022                	sd	s0,32(sp)
  fff10157fc:	ec26                	sd	s1,24(sp)
  fff10157fe:	f406                	sd	ra,40(sp)
  fff1015800:	e84a                	sd	s2,16(sp)
  fff1015802:	e44e                	sd	s3,8(sp)
  fff1015804:	611c                	ld	a5,0(a0)
  fff1015806:	842a                	mv	s0,a0
  fff1015808:	84ae                	mv	s1,a1
  fff101580a:	0687b983          	ld	s3,104(a5)
  fff101580e:	47a9                	li	a5,10
  fff1015810:	00f59563          	bne	a1,a5,fff101581a <spl+0x579a>
  fff1015814:	45b5                	li	a1,13
  fff1015816:	fe3ff0ef          	jal	ra,fff10157f8 <spl+0x5778>
  fff101581a:	5955                	li	s2,-11
  fff101581c:	0109b783          	ld	a5,16(s3)
  fff1015820:	85a6                	mv	a1,s1
  fff1015822:	8522                	mv	a0,s0
  fff1015824:	9782                	jalr	a5
  fff1015826:	ff250be3          	beq	a0,s2,fff101581c <spl+0x579c>
  fff101582a:	70a2                	ld	ra,40(sp)
  fff101582c:	7402                	ld	s0,32(sp)
  fff101582e:	64e2                	ld	s1,24(sp)
  fff1015830:	6942                	ld	s2,16(sp)
  fff1015832:	69a2                	ld	s3,8(sp)
  fff1015834:	6145                	addi	sp,sp,48
  fff1015836:	8082                	ret
  fff1015838:	611c                	ld	a5,0(a0)
  fff101583a:	77bc                	ld	a5,104(a5)
  fff101583c:	639c                	ld	a5,0(a5)
  fff101583e:	c781                	beqz	a5,fff1015846 <spl+0x57c6>
  fff1015840:	0101a583          	lw	a1,16(gp)
  fff1015844:	8782                	jr	a5
  fff1015846:	4501                	li	a0,0
  fff1015848:	8082                	ret
  fff101584a:	4501                	li	a0,0
  fff101584c:	8082                	ret
  fff101584e:	85aa                	mv	a1,a0
  fff1015850:	1401b503          	ld	a0,320(gp)
  fff1015854:	c119                	beqz	a0,fff101585a <spl+0x57da>
  fff1015856:	fa3ff06f          	j	fff10157f8 <spl+0x5778>
  fff101585a:	8082                	ret
  fff101585c:	1101                	addi	sp,sp,-32
  fff101585e:	e822                	sd	s0,16(sp)
  fff1015860:	ec06                	sd	ra,24(sp)
  fff1015862:	e426                	sd	s1,8(sp)
  fff1015864:	1401b483          	ld	s1,320(gp)
  fff1015868:	842a                	mv	s0,a0
  fff101586a:	e891                	bnez	s1,fff101587e <spl+0x57fe>
  fff101586c:	60e2                	ld	ra,24(sp)
  fff101586e:	6442                	ld	s0,16(sp)
  fff1015870:	64a2                	ld	s1,8(sp)
  fff1015872:	6105                	addi	sp,sp,32
  fff1015874:	8082                	ret
  fff1015876:	8526                	mv	a0,s1
  fff1015878:	0405                	addi	s0,s0,1
  fff101587a:	f7fff0ef          	jal	ra,fff10157f8 <spl+0x5778>
  fff101587e:	00044583          	lbu	a1,0(s0)
  fff1015882:	f9f5                	bnez	a1,fff1015876 <spl+0x57f6>
  fff1015884:	b7e5                	j	fff101586c <spl+0x57ec>
  fff1015886:	1401b503          	ld	a0,320(gp)
  fff101588a:	c901                	beqz	a0,fff101589a <spl+0x581a>
  fff101588c:	611c                	ld	a5,0(a0)
  fff101588e:	77bc                	ld	a5,104(a5)
  fff1015890:	639c                	ld	a5,0(a5)
  fff1015892:	c781                	beqz	a5,fff101589a <spl+0x581a>
  fff1015894:	0101a583          	lw	a1,16(gp)
  fff1015898:	8782                	jr	a5
  fff101589a:	8082                	ret
  fff101589c:	7139                	addi	sp,sp,-64
  fff101589e:	f04a                	sd	s2,32(sp)
  fff10158a0:	fc06                	sd	ra,56(sp)
  fff10158a2:	f822                	sd	s0,48(sp)
  fff10158a4:	f426                	sd	s1,40(sp)
  fff10158a6:	0d81b483          	ld	s1,216(gp)
  fff10158aa:	01810913          	addi	s2,sp,24
  fff10158ae:	0c048b63          	beqz	s1,fff1015984 <spl+0x5904>
  fff10158b2:	00003597          	auipc	a1,0x3
  fff10158b6:	9ce58593          	addi	a1,a1,-1586 # fff1018280 <spl+0x8200>
  fff10158ba:	8526                	mv	a0,s1
  fff10158bc:	902fc0ef          	jal	ra,fff10119be <spl+0x193e>
  fff10158c0:	842a                	mv	s0,a0
  fff10158c2:	e139                	bnez	a0,fff1015908 <spl+0x5888>
  fff10158c4:	00003597          	auipc	a1,0x3
  fff10158c8:	9cc58593          	addi	a1,a1,-1588 # fff1018290 <spl+0x8210>
  fff10158cc:	8526                	mv	a0,s1
  fff10158ce:	fdffb0ef          	jal	ra,fff10118ac <spl+0x182c>
  fff10158d2:	85aa                	mv	a1,a0
  fff10158d4:	864a                	mv	a2,s2
  fff10158d6:	06400513          	li	a0,100
  fff10158da:	e42e                	sd	a1,8(sp)
  fff10158dc:	c5afe0ef          	jal	ra,fff1013d36 <spl+0x3cb6>
  fff10158e0:	65a2                	ld	a1,8(sp)
  fff10158e2:	e535                	bnez	a0,fff101594e <spl+0x58ce>
  fff10158e4:	67e2                	ld	a5,24(sp)
  fff10158e6:	14f1b023          	sd	a5,320(gp)
  fff10158ea:	0081b783          	ld	a5,8(gp)
  fff10158ee:	1007e793          	ori	a5,a5,256
  fff10158f2:	00f1b423          	sd	a5,8(gp)
  fff10158f6:	f91ff0ef          	jal	ra,fff1015886 <spl+0x5806>
  fff10158fa:	70e2                	ld	ra,56(sp)
  fff10158fc:	7442                	ld	s0,48(sp)
  fff10158fe:	74a2                	ld	s1,40(sp)
  fff1015900:	7902                	ld	s2,32(sp)
  fff1015902:	4501                	li	a0,0
  fff1015904:	6121                	addi	sp,sp,64
  fff1015906:	8082                	ret
  fff1015908:	03a00593          	li	a1,58
  fff101590c:	c04fc0ef          	jal	ra,fff1011d10 <spl+0x1c90>
  fff1015910:	c90d                	beqz	a0,fff1015942 <spl+0x58c2>
  fff1015912:	4085063b          	subw	a2,a0,s0
  fff1015916:	85a2                	mv	a1,s0
  fff1015918:	8526                	mv	a0,s1
  fff101591a:	e432                	sd	a2,8(sp)
  fff101591c:	ee7fb0ef          	jal	ra,fff1011802 <spl+0x1782>
  fff1015920:	6622                	ld	a2,8(sp)
  fff1015922:	85aa                	mv	a1,a0
  fff1015924:	fa0558e3          	bgez	a0,fff10158d4 <spl+0x5854>
  fff1015928:	85a2                	mv	a1,s0
  fff101592a:	8526                	mv	a0,s1
  fff101592c:	e99fb0ef          	jal	ra,fff10117c4 <spl+0x1744>
  fff1015930:	85aa                	mv	a1,a0
  fff1015932:	d949                	beqz	a0,fff10158c4 <spl+0x5844>
  fff1015934:	8526                	mv	a0,s1
  fff1015936:	f77fb0ef          	jal	ra,fff10118ac <spl+0x182c>
  fff101593a:	85aa                	mv	a1,a0
  fff101593c:	f80544e3          	bltz	a0,fff10158c4 <spl+0x5844>
  fff1015940:	bf51                	j	fff10158d4 <spl+0x5854>
  fff1015942:	8522                	mv	a0,s0
  fff1015944:	be4fc0ef          	jal	ra,fff1011d28 <spl+0x1ca8>
  fff1015948:	0005061b          	sext.w	a2,a0
  fff101594c:	b7e9                	j	fff1015916 <spl+0x5896>
  fff101594e:	02b05563          	blez	a1,fff1015978 <spl+0x58f8>
  fff1015952:	0a81b503          	ld	a0,168(gp)
  fff1015956:	4701                	li	a4,0
  fff1015958:	4681                	li	a3,0
  fff101595a:	864a                	mv	a2,s2
  fff101595c:	cd1fd0ef          	jal	ra,fff101362c <spl+0x35ac>
  fff1015960:	ed01                	bnez	a0,fff1015978 <spl+0x58f8>
  fff1015962:	6562                	ld	a0,24(sp)
  fff1015964:	ebefd0ef          	jal	ra,fff1013022 <spl+0x2fa2>
  fff1015968:	06400793          	li	a5,100
  fff101596c:	00f51663          	bne	a0,a5,fff1015978 <spl+0x58f8>
  fff1015970:	6562                	ld	a0,24(sp)
  fff1015972:	809fd0ef          	jal	ra,fff101317a <spl+0x30fa>
  fff1015976:	d53d                	beqz	a0,fff10158e4 <spl+0x5864>
  fff1015978:	00003517          	auipc	a0,0x3
  fff101597c:	92050513          	addi	a0,a0,-1760 # fff1018298 <spl+0x8218>
  fff1015980:	d88fc0ef          	jal	ra,fff1011f08 <spl+0x1e88>
  fff1015984:	864a                	mv	a2,s2
  fff1015986:	4581                	li	a1,0
  fff1015988:	06400513          	li	a0,100
  fff101598c:	b86fe0ef          	jal	ra,fff1013d12 <spl+0x3c92>
  fff1015990:	d931                	beqz	a0,fff10158e4 <spl+0x5864>
  fff1015992:	864a                	mv	a2,s2
  fff1015994:	4581                	li	a1,0
  fff1015996:	06400513          	li	a0,100
  fff101599a:	b54fe0ef          	jal	ra,fff1013cee <spl+0x3c6e>
  fff101599e:	d139                	beqz	a0,fff10158e4 <spl+0x5864>
  fff10159a0:	85ca                	mv	a1,s2
  fff10159a2:	06400513          	li	a0,100
  fff10159a6:	c3efe0ef          	jal	ra,fff1013de4 <spl+0x3d64>
  fff10159aa:	b7f1                	j	fff1015976 <spl+0x58f6>
  fff10159ac:	1141                	addi	sp,sp,-16
  fff10159ae:	e022                	sd	s0,0(sp)
  fff10159b0:	e406                	sd	ra,8(sp)
  fff10159b2:	842e                	mv	s0,a1
  fff10159b4:	e54fd0ef          	jal	ra,fff1013008 <spl+0x2f88>
  fff10159b8:	6d1c                	ld	a5,24(a0)
  fff10159ba:	00043023          	sd	zero,0(s0)
  fff10159be:	60a2                	ld	ra,8(sp)
  fff10159c0:	6398                	ld	a4,0(a5)
  fff10159c2:	4501                	li	a0,0
  fff10159c4:	e418                	sd	a4,8(s0)
  fff10159c6:	4798                	lw	a4,8(a5)
  fff10159c8:	00e40823          	sb	a4,16(s0)
  fff10159cc:	47d8                	lw	a4,12(a5)
  fff10159ce:	00e40923          	sb	a4,18(s0)
  fff10159d2:	4b98                	lw	a4,16(a5)
  fff10159d4:	00e408a3          	sb	a4,17(s0)
  fff10159d8:	4bdc                	lw	a5,20(a5)
  fff10159da:	c85c                	sw	a5,20(s0)
  fff10159dc:	6402                	ld	s0,0(sp)
  fff10159de:	0141                	addi	sp,sp,16
  fff10159e0:	8082                	ret
  fff10159e2:	1101                	addi	sp,sp,-32
  fff10159e4:	ec06                	sd	ra,24(sp)
  fff10159e6:	e822                	sd	s0,16(sp)
  fff10159e8:	e426                	sd	s1,8(sp)
  fff10159ea:	e04a                	sd	s2,0(sp)
  fff10159ec:	84aa                	mv	s1,a0
  fff10159ee:	e08fd0ef          	jal	ra,fff1012ff6 <spl+0x2f76>
  fff10159f2:	842a                	mv	s0,a0
  fff10159f4:	8526                	mv	a0,s1
  fff10159f6:	e28fd0ef          	jal	ra,fff101301e <spl+0x2f9e>
  fff10159fa:	0005091b          	sext.w	s2,a0
  fff10159fe:	8526                	mv	a0,s1
  fff1015a00:	a9ffd0ef          	jal	ra,fff101349e <spl+0x341e>
  fff1015a04:	57fd                	li	a5,-1
  fff1015a06:	00f51b63          	bne	a0,a5,fff1015a1c <spl+0x599c>
  fff1015a0a:	7888                	ld	a0,48(s1)
  fff1015a0c:	e925                	bnez	a0,fff1015a7c <spl+0x59fc>
  fff1015a0e:	5529                	li	a0,-22
  fff1015a10:	60e2                	ld	ra,24(sp)
  fff1015a12:	6442                	ld	s0,16(sp)
  fff1015a14:	64a2                	ld	s1,8(sp)
  fff1015a16:	6902                	ld	s2,0(sp)
  fff1015a18:	6105                	addi	sp,sp,32
  fff1015a1a:	8082                	ret
  fff1015a1c:	e008                	sd	a0,0(s0)
  fff1015a1e:	68c8                	ld	a0,144(s1)
  fff1015a20:	4601                	li	a2,0
  fff1015a22:	00002597          	auipc	a1,0x2
  fff1015a26:	51e58593          	addi	a1,a1,1310 # fff1017f40 <spl+0x7ec0>
  fff1015a2a:	dc0fe0ef          	jal	ra,fff1013fea <spl+0x3f6a>
  fff1015a2e:	c808                	sw	a0,16(s0)
  fff1015a30:	68c8                	ld	a0,144(s1)
  fff1015a32:	4601                	li	a2,0
  fff1015a34:	00002597          	auipc	a1,0x2
  fff1015a38:	51c58593          	addi	a1,a1,1308 # fff1017f50 <spl+0x7ed0>
  fff1015a3c:	daefe0ef          	jal	ra,fff1013fea <spl+0x3f6a>
  fff1015a40:	c448                	sw	a0,12(s0)
  fff1015a42:	68c8                	ld	a0,144(s1)
  fff1015a44:	4605                	li	a2,1
  fff1015a46:	00002597          	auipc	a1,0x2
  fff1015a4a:	51a58593          	addi	a1,a1,1306 # fff1017f60 <spl+0x7ee0>
  fff1015a4e:	d9cfe0ef          	jal	ra,fff1013fea <spl+0x3f6a>
  fff1015a52:	485c                	lw	a5,20(s0)
  fff1015a54:	c408                	sw	a0,8(s0)
  fff1015a56:	ef81                	bnez	a5,fff1015a6e <spl+0x59ee>
  fff1015a58:	68c8                	ld	a0,144(s1)
  fff1015a5a:	4601                	li	a2,0
  fff1015a5c:	00002597          	auipc	a1,0x2
  fff1015a60:	51458593          	addi	a1,a1,1300 # fff1017f70 <spl+0x7ef0>
  fff1015a64:	d86fe0ef          	jal	ra,fff1013fea <spl+0x3f6a>
  fff1015a68:	2501                	sext.w	a0,a0
  fff1015a6a:	c848                	sw	a0,20(s0)
  fff1015a6c:	d14d                	beqz	a0,fff1015a0e <spl+0x598e>
  fff1015a6e:	4785                	li	a5,1
  fff1015a70:	00f90d63          	beq	s2,a5,fff1015a8a <spl+0x5a0a>
  fff1015a74:	479d                	li	a5,7
  fff1015a76:	cc1c                	sw	a5,24(s0)
  fff1015a78:	4501                	li	a0,0
  fff1015a7a:	bf59                	j	fff1015a10 <spl+0x5990>
  fff1015a7c:	da6fd0ef          	jal	ra,fff1013022 <spl+0x2fa2>
  fff1015a80:	04f00793          	li	a5,79
  fff1015a84:	f8f50de3          	beq	a0,a5,fff1015a1e <spl+0x599e>
  fff1015a88:	b759                	j	fff1015a0e <spl+0x598e>
  fff1015a8a:	47dd                	li	a5,23
  fff1015a8c:	b7ed                	j	fff1015a76 <spl+0x59f6>
  fff1015a8e:	6118                	ld	a4,0(a0)
  fff1015a90:	491c                	lw	a5,16(a0)
  fff1015a92:	97ba                	add	a5,a5,a4
  fff1015a94:	4558                	lw	a4,12(a0)
  fff1015a96:	00e595bb          	sllw	a1,a1,a4
  fff1015a9a:	97ae                	add	a5,a5,a1
  fff1015a9c:	0007c503          	lbu	a0,0(a5)
  fff1015aa0:	0ff57513          	zext.b	a0,a0
  fff1015aa4:	0aa0000f          	fence	ir,ir
  fff1015aa8:	8082                	ret
  fff1015aaa:	1141                	addi	sp,sp,-16
  fff1015aac:	e406                	sd	ra,8(sp)
  fff1015aae:	e022                	sd	s0,0(sp)
  fff1015ab0:	d58fd0ef          	jal	ra,fff1013008 <spl+0x2f88>
  fff1015ab4:	842a                	mv	s0,a0
  fff1015ab6:	6d08                	ld	a0,24(a0)
  fff1015ab8:	4595                	li	a1,5
  fff1015aba:	fd5ff0ef          	jal	ra,fff1015a8e <spl+0x5a0e>
  fff1015abe:	8905                	andi	a0,a0,1
  fff1015ac0:	c901                	beqz	a0,fff1015ad0 <spl+0x5a50>
  fff1015ac2:	6c08                	ld	a0,24(s0)
  fff1015ac4:	6402                	ld	s0,0(sp)
  fff1015ac6:	60a2                	ld	ra,8(sp)
  fff1015ac8:	4581                	li	a1,0
  fff1015aca:	0141                	addi	sp,sp,16
  fff1015acc:	fc3ff06f          	j	fff1015a8e <spl+0x5a0e>
  fff1015ad0:	60a2                	ld	ra,8(sp)
  fff1015ad2:	6402                	ld	s0,0(sp)
  fff1015ad4:	5555                	li	a0,-11
  fff1015ad6:	0141                	addi	sp,sp,16
  fff1015ad8:	8082                	ret
  fff1015ada:	1141                	addi	sp,sp,-16
  fff1015adc:	e022                	sd	s0,0(sp)
  fff1015ade:	e406                	sd	ra,8(sp)
  fff1015ae0:	842e                	mv	s0,a1
  fff1015ae2:	d26fd0ef          	jal	ra,fff1013008 <spl+0x2f88>
  fff1015ae6:	6d08                	ld	a0,24(a0)
  fff1015ae8:	4595                	li	a1,5
  fff1015aea:	c801                	beqz	s0,fff1015afa <spl+0x5a7a>
  fff1015aec:	fa3ff0ef          	jal	ra,fff1015a8e <spl+0x5a0e>
  fff1015af0:	60a2                	ld	ra,8(sp)
  fff1015af2:	6402                	ld	s0,0(sp)
  fff1015af4:	8905                	andi	a0,a0,1
  fff1015af6:	0141                	addi	sp,sp,16
  fff1015af8:	8082                	ret
  fff1015afa:	f95ff0ef          	jal	ra,fff1015a8e <spl+0x5a0e>
  fff1015afe:	4055551b          	sraiw	a0,a0,0x5
  fff1015b02:	00154513          	xori	a0,a0,1
  fff1015b06:	b7ed                	j	fff1015af0 <spl+0x5a70>
  fff1015b08:	6118                	ld	a4,0(a0)
  fff1015b0a:	491c                	lw	a5,16(a0)
  fff1015b0c:	0ff67613          	zext.b	a2,a2
  fff1015b10:	97ba                	add	a5,a5,a4
  fff1015b12:	4558                	lw	a4,12(a0)
  fff1015b14:	00e595bb          	sllw	a1,a1,a4
  fff1015b18:	97ae                	add	a5,a5,a1
  fff1015b1a:	0550000f          	fence	ow,ow
  fff1015b1e:	00c78023          	sb	a2,0(a5)
  fff1015b22:	8082                	ret
  fff1015b24:	1101                	addi	sp,sp,-32
  fff1015b26:	ec06                	sd	ra,24(sp)
  fff1015b28:	e822                	sd	s0,16(sp)
  fff1015b2a:	e42e                	sd	a1,8(sp)
  fff1015b2c:	cdcfd0ef          	jal	ra,fff1013008 <spl+0x2f88>
  fff1015b30:	842a                	mv	s0,a0
  fff1015b32:	6d08                	ld	a0,24(a0)
  fff1015b34:	4595                	li	a1,5
  fff1015b36:	f59ff0ef          	jal	ra,fff1015a8e <spl+0x5a0e>
  fff1015b3a:	02057513          	andi	a0,a0,32
  fff1015b3e:	c919                	beqz	a0,fff1015b54 <spl+0x5ad4>
  fff1015b40:	6c08                	ld	a0,24(s0)
  fff1015b42:	6622                	ld	a2,8(sp)
  fff1015b44:	4581                	li	a1,0
  fff1015b46:	fc3ff0ef          	jal	ra,fff1015b08 <spl+0x5a88>
  fff1015b4a:	4501                	li	a0,0
  fff1015b4c:	60e2                	ld	ra,24(sp)
  fff1015b4e:	6442                	ld	s0,16(sp)
  fff1015b50:	6105                	addi	sp,sp,32
  fff1015b52:	8082                	ret
  fff1015b54:	5555                	li	a0,-11
  fff1015b56:	bfdd                	j	fff1015b4c <spl+0x5acc>
  fff1015b58:	1141                	addi	sp,sp,-16
  fff1015b5a:	e022                	sd	s0,0(sp)
  fff1015b5c:	e406                	sd	ra,8(sp)
  fff1015b5e:	842e                	mv	s0,a1
  fff1015b60:	ca8fd0ef          	jal	ra,fff1013008 <spl+0x2f88>
  fff1015b64:	00347613          	andi	a2,s0,3
  fff1015b68:	0044569b          	srliw	a3,s0,0x4
  fff1015b6c:	0024541b          	srliw	s0,s0,0x2
  fff1015b70:	880d                	andi	s0,s0,3
  fff1015b72:	470d                	li	a4,3
  fff1015b74:	02e41b63          	bne	s0,a4,fff1015baa <spl+0x5b2a>
  fff1015b78:	8a8d                	andi	a3,a3,3
  fff1015b7a:	4705                	li	a4,1
  fff1015b7c:	87aa                	mv	a5,a0
  fff1015b7e:	df400513          	li	a0,-524
  fff1015b82:	02e69063          	bne	a3,a4,fff1015ba2 <spl+0x5b22>
  fff1015b86:	00860e63          	beq	a2,s0,fff1015ba2 <spl+0x5b22>
  fff1015b8a:	00002717          	auipc	a4,0x2
  fff1015b8e:	86670713          	addi	a4,a4,-1946 # fff10173f0 <spl+0x7370>
  fff1015b92:	9732                	add	a4,a4,a2
  fff1015b94:	6f88                	ld	a0,24(a5)
  fff1015b96:	00070603          	lb	a2,0(a4)
  fff1015b9a:	458d                	li	a1,3
  fff1015b9c:	f6dff0ef          	jal	ra,fff1015b08 <spl+0x5a88>
  fff1015ba0:	4501                	li	a0,0
  fff1015ba2:	60a2                	ld	ra,8(sp)
  fff1015ba4:	6402                	ld	s0,0(sp)
  fff1015ba6:	0141                	addi	sp,sp,16
  fff1015ba8:	8082                	ret
  fff1015baa:	df400513          	li	a0,-524
  fff1015bae:	bfd5                	j	fff1015ba2 <spl+0x5b22>
  fff1015bb0:	1101                	addi	sp,sp,-32
  fff1015bb2:	ec06                	sd	ra,24(sp)
  fff1015bb4:	e822                	sd	s0,16(sp)
  fff1015bb6:	e426                	sd	s1,8(sp)
  fff1015bb8:	e04a                	sd	s2,0(sp)
  fff1015bba:	842a                	mv	s0,a0
  fff1015bbc:	6d08                	ld	a0,24(a0)
  fff1015bbe:	892e                	mv	s2,a1
  fff1015bc0:	458d                	li	a1,3
  fff1015bc2:	ecdff0ef          	jal	ra,fff1015a8e <spl+0x5a0e>
  fff1015bc6:	f7f57493          	andi	s1,a0,-129
  fff1015bca:	6c08                	ld	a0,24(s0)
  fff1015bcc:	2481                	sext.w	s1,s1
  fff1015bce:	0804e613          	ori	a2,s1,128
  fff1015bd2:	458d                	li	a1,3
  fff1015bd4:	f35ff0ef          	jal	ra,fff1015b08 <spl+0x5a88>
  fff1015bd8:	6c08                	ld	a0,24(s0)
  fff1015bda:	0ff97613          	zext.b	a2,s2
  fff1015bde:	4581                	li	a1,0
  fff1015be0:	f29ff0ef          	jal	ra,fff1015b08 <spl+0x5a88>
  fff1015be4:	6c08                	ld	a0,24(s0)
  fff1015be6:	4089561b          	sraiw	a2,s2,0x8
  fff1015bea:	0ff67613          	zext.b	a2,a2
  fff1015bee:	4585                	li	a1,1
  fff1015bf0:	f19ff0ef          	jal	ra,fff1015b08 <spl+0x5a88>
  fff1015bf4:	6c08                	ld	a0,24(s0)
  fff1015bf6:	6442                	ld	s0,16(sp)
  fff1015bf8:	60e2                	ld	ra,24(sp)
  fff1015bfa:	6902                	ld	s2,0(sp)
  fff1015bfc:	8626                	mv	a2,s1
  fff1015bfe:	64a2                	ld	s1,8(sp)
  fff1015c00:	458d                	li	a1,3
  fff1015c02:	6105                	addi	sp,sp,32
  fff1015c04:	f05ff06f          	j	fff1015b08 <spl+0x5a88>
  fff1015c08:	0046161b          	slliw	a2,a2,0x4
  fff1015c0c:	0016551b          	srliw	a0,a2,0x1
  fff1015c10:	9d2d                	addw	a0,a0,a1
  fff1015c12:	02c5553b          	divuw	a0,a0,a2
  fff1015c16:	8082                	ret
  fff1015c18:	1101                	addi	sp,sp,-32
  fff1015c1a:	ec06                	sd	ra,24(sp)
  fff1015c1c:	e822                	sd	s0,16(sp)
  fff1015c1e:	e42e                	sd	a1,8(sp)
  fff1015c20:	be8fd0ef          	jal	ra,fff1013008 <spl+0x2f88>
  fff1015c24:	6d1c                	ld	a5,24(a0)
  fff1015c26:	6622                	ld	a2,8(sp)
  fff1015c28:	842a                	mv	s0,a0
  fff1015c2a:	4bcc                	lw	a1,20(a5)
  fff1015c2c:	fddff0ef          	jal	ra,fff1015c08 <spl+0x5b88>
  fff1015c30:	85aa                	mv	a1,a0
  fff1015c32:	8522                	mv	a0,s0
  fff1015c34:	f7dff0ef          	jal	ra,fff1015bb0 <spl+0x5b30>
  fff1015c38:	60e2                	ld	ra,24(sp)
  fff1015c3a:	6442                	ld	s0,16(sp)
  fff1015c3c:	4501                	li	a0,0
  fff1015c3e:	6105                	addi	sp,sp,32
  fff1015c40:	8082                	ret
  fff1015c42:	1101                	addi	sp,sp,-32
  fff1015c44:	e822                	sd	s0,16(sp)
  fff1015c46:	e426                	sd	s1,8(sp)
  fff1015c48:	ec06                	sd	ra,24(sp)
  fff1015c4a:	842a                	mv	s0,a0
  fff1015c4c:	84ae                	mv	s1,a1
  fff1015c4e:	6c08                	ld	a0,24(s0)
  fff1015c50:	4595                	li	a1,5
  fff1015c52:	e3dff0ef          	jal	ra,fff1015a8e <spl+0x5a0e>
  fff1015c56:	04057513          	andi	a0,a0,64
  fff1015c5a:	d975                	beqz	a0,fff1015c4e <spl+0x5bce>
  fff1015c5c:	6c08                	ld	a0,24(s0)
  fff1015c5e:	4601                	li	a2,0
  fff1015c60:	4585                	li	a1,1
  fff1015c62:	ea7ff0ef          	jal	ra,fff1015b08 <spl+0x5a88>
  fff1015c66:	6c08                	ld	a0,24(s0)
  fff1015c68:	460d                	li	a2,3
  fff1015c6a:	4591                	li	a1,4
  fff1015c6c:	e9dff0ef          	jal	ra,fff1015b08 <spl+0x5a88>
  fff1015c70:	6c08                	ld	a0,24(s0)
  fff1015c72:	4589                	li	a1,2
  fff1015c74:	4d10                	lw	a2,24(a0)
  fff1015c76:	e93ff0ef          	jal	ra,fff1015b08 <spl+0x5a88>
  fff1015c7a:	6c08                	ld	a0,24(s0)
  fff1015c7c:	460d                	li	a2,3
  fff1015c7e:	458d                	li	a1,3
  fff1015c80:	e89ff0ef          	jal	ra,fff1015b08 <spl+0x5a88>
  fff1015c84:	57fd                	li	a5,-1
  fff1015c86:	00f48a63          	beq	s1,a5,fff1015c9a <spl+0x5c1a>
  fff1015c8a:	8522                	mv	a0,s0
  fff1015c8c:	6442                	ld	s0,16(sp)
  fff1015c8e:	60e2                	ld	ra,24(sp)
  fff1015c90:	85a6                	mv	a1,s1
  fff1015c92:	64a2                	ld	s1,8(sp)
  fff1015c94:	6105                	addi	sp,sp,32
  fff1015c96:	f1bff06f          	j	fff1015bb0 <spl+0x5b30>
  fff1015c9a:	60e2                	ld	ra,24(sp)
  fff1015c9c:	6442                	ld	s0,16(sp)
  fff1015c9e:	64a2                	ld	s1,8(sp)
  fff1015ca0:	6105                	addi	sp,sp,32
  fff1015ca2:	8082                	ret
  fff1015ca4:	1101                	addi	sp,sp,-32
  fff1015ca6:	ec06                	sd	ra,24(sp)
  fff1015ca8:	e822                	sd	s0,16(sp)
  fff1015caa:	e426                	sd	s1,8(sp)
  fff1015cac:	842a                	mv	s0,a0
  fff1015cae:	e04a                	sd	s2,0(sp)
  fff1015cb0:	b46fd0ef          	jal	ra,fff1012ff6 <spl+0x2f76>
  fff1015cb4:	892a                	mv	s2,a0
  fff1015cb6:	8522                	mv	a0,s0
  fff1015cb8:	b50fd0ef          	jal	ra,fff1013008 <spl+0x2f88>
  fff1015cbc:	84aa                	mv	s1,a0
  fff1015cbe:	7808                	ld	a0,48(s0)
  fff1015cc0:	c10d                	beqz	a0,fff1015ce2 <spl+0x5c62>
  fff1015cc2:	b60fd0ef          	jal	ra,fff1013022 <spl+0x2fa2>
  fff1015cc6:	04f00793          	li	a5,79
  fff1015cca:	00f51c63          	bne	a0,a5,fff1015ce2 <spl+0x5c62>
  fff1015cce:	8522                	mv	a0,s0
  fff1015cd0:	fd6fd0ef          	jal	ra,fff10134a6 <spl+0x3426>
  fff1015cd4:	87aa                	mv	a5,a0
  fff1015cd6:	577d                	li	a4,-1
  fff1015cd8:	5529                	li	a0,-22
  fff1015cda:	00e78d63          	beq	a5,a4,fff1015cf4 <spl+0x5c74>
  fff1015cde:	00f93023          	sd	a5,0(s2)
  fff1015ce2:	8522                	mv	a0,s0
  fff1015ce4:	b12fd0ef          	jal	ra,fff1012ff6 <spl+0x2f76>
  fff1015ce8:	ec88                	sd	a0,24(s1)
  fff1015cea:	55fd                	li	a1,-1
  fff1015cec:	8526                	mv	a0,s1
  fff1015cee:	f55ff0ef          	jal	ra,fff1015c42 <spl+0x5bc2>
  fff1015cf2:	4501                	li	a0,0
  fff1015cf4:	60e2                	ld	ra,24(sp)
  fff1015cf6:	6442                	ld	s0,16(sp)
  fff1015cf8:	64a2                	ld	s1,8(sp)
  fff1015cfa:	6902                	ld	s2,0(sp)
  fff1015cfc:	6105                	addi	sp,sp,32
  fff1015cfe:	8082                	ret
  fff1015d00:	1141                	addi	sp,sp,-16
  fff1015d02:	e406                	sd	ra,8(sp)
  fff1015d04:	b0afd0ef          	jal	ra,fff101300e <spl+0x2f8e>
  fff1015d08:	611c                	ld	a5,0(a0)
  fff1015d0a:	5529                	li	a0,-22
  fff1015d0c:	c391                	beqz	a5,fff1015d10 <spl+0x5c90>
  fff1015d0e:	4501                	li	a0,0
  fff1015d10:	60a2                	ld	ra,8(sp)
  fff1015d12:	0141                	addi	sp,sp,16
  fff1015d14:	8082                	ret
  fff1015d16:	1101                	addi	sp,sp,-32
  fff1015d18:	e822                	sd	s0,16(sp)
  fff1015d1a:	e426                	sd	s1,8(sp)
  fff1015d1c:	ec06                	sd	ra,24(sp)
  fff1015d1e:	84aa                	mv	s1,a0
  fff1015d20:	aeefd0ef          	jal	ra,fff101300e <spl+0x2f8e>
  fff1015d24:	842a                	mv	s0,a0
  fff1015d26:	68c8                	ld	a0,144(s1)
  fff1015d28:	00054b63          	bltz	a0,fff1015d3e <spl+0x5cbe>
  fff1015d2c:	4601                	li	a2,0
  fff1015d2e:	00002597          	auipc	a1,0x2
  fff1015d32:	24258593          	addi	a1,a1,578 # fff1017f70 <spl+0x7ef0>
  fff1015d36:	ab4fe0ef          	jal	ra,fff1013fea <spl+0x3f6a>
  fff1015d3a:	2501                	sext.w	a0,a0
  fff1015d3c:	e008                	sd	a0,0(s0)
  fff1015d3e:	60e2                	ld	ra,24(sp)
  fff1015d40:	6442                	ld	s0,16(sp)
  fff1015d42:	64a2                	ld	s1,8(sp)
  fff1015d44:	4501                	li	a0,0
  fff1015d46:	6105                	addi	sp,sp,32
  fff1015d48:	8082                	ret
  fff1015d4a:	611c                	ld	a5,0(a0)
  fff1015d4c:	77bc                	ld	a5,104(a5)
  fff1015d4e:	639c                	ld	a5,0(a5)
  fff1015d50:	cf81                	beqz	a5,fff1015d68 <spl+0x5ce8>
  fff1015d52:	1141                	addi	sp,sp,-16
  fff1015d54:	e022                	sd	s0,0(sp)
  fff1015d56:	e406                	sd	ra,8(sp)
  fff1015d58:	842e                	mv	s0,a1
  fff1015d5a:	9782                	jalr	a5
  fff1015d5c:	e008                	sd	a0,0(s0)
  fff1015d5e:	60a2                	ld	ra,8(sp)
  fff1015d60:	6402                	ld	s0,0(sp)
  fff1015d62:	4501                	li	a0,0
  fff1015d64:	0141                	addi	sp,sp,16
  fff1015d66:	8082                	ret
  fff1015d68:	fda00513          	li	a0,-38
  fff1015d6c:	8082                	ret
  fff1015d6e:	1141                	addi	sp,sp,-16
  fff1015d70:	e406                	sd	ra,8(sp)
  fff1015d72:	a9cfd0ef          	jal	ra,fff101300e <spl+0x2f8e>
  fff1015d76:	60a2                	ld	ra,8(sp)
  fff1015d78:	6108                	ld	a0,0(a0)
  fff1015d7a:	0141                	addi	sp,sp,16
  fff1015d7c:	8082                	ret
  fff1015d7e:	1141                	addi	sp,sp,-16
  fff1015d80:	e406                	sd	ra,8(sp)
  fff1015d82:	e022                	sd	s0,0(sp)
  fff1015d84:	a8afd0ef          	jal	ra,fff101300e <spl+0x2f8e>
  fff1015d88:	611c                	ld	a5,0(a0)
  fff1015d8a:	e385                	bnez	a5,fff1015daa <spl+0x5d2a>
  fff1015d8c:	842a                	mv	s0,a0
  fff1015d8e:	174000ef          	jal	ra,fff1015f02 <spl+0x5e82>
  fff1015d92:	e511                	bnez	a0,fff1015d9e <spl+0x5d1e>
  fff1015d94:	5535                	li	a0,-19
  fff1015d96:	60a2                	ld	ra,8(sp)
  fff1015d98:	6402                	ld	s0,0(sp)
  fff1015d9a:	0141                	addi	sp,sp,16
  fff1015d9c:	8082                	ret
  fff1015d9e:	a5efd0ef          	jal	ra,fff1012ffc <spl+0x2f7c>
  fff1015da2:	d96d                	beqz	a0,fff1015d94 <spl+0x5d14>
  fff1015da4:	01c56783          	lwu	a5,28(a0)
  fff1015da8:	e01c                	sd	a5,0(s0)
  fff1015daa:	4501                	li	a0,0
  fff1015dac:	b7ed                	j	fff1015d96 <spl+0x5d16>
  fff1015dae:	7179                	addi	sp,sp,-48
  fff1015db0:	f406                	sd	ra,40(sp)
  fff1015db2:	f022                	sd	s0,32(sp)
  fff1015db4:	ec26                	sd	s1,24(sp)
  fff1015db6:	0d01b703          	ld	a4,208(gp)
  fff1015dba:	e402                	sd	zero,8(sp)
  fff1015dbc:	4501                	li	a0,0
  fff1015dbe:	e335                	bnez	a4,fff1015e22 <spl+0x5da2>
  fff1015dc0:	0a81b783          	ld	a5,168(gp)
  fff1015dc4:	5555                	li	a0,-11
  fff1015dc6:	cfb1                	beqz	a5,fff1015e22 <spl+0x5da2>
  fff1015dc8:	00002517          	auipc	a0,0x2
  fff1015dcc:	d0850513          	addi	a0,a0,-760 # fff1017ad0 <spl+0x7a50>
  fff1015dd0:	af2fe0ef          	jal	ra,fff10140c2 <spl+0x4042>
  fff1015dd4:	842a                	mv	s0,a0
  fff1015dd6:	02055163          	bgez	a0,fff1015df8 <spl+0x5d78>
  fff1015dda:	67a2                	ld	a5,8(sp)
  fff1015ddc:	e799                	bnez	a5,fff1015dea <spl+0x5d6a>
  fff1015dde:	002c                	addi	a1,sp,8
  fff1015de0:	07200513          	li	a0,114
  fff1015de4:	800fe0ef          	jal	ra,fff1013de4 <spl+0x3d64>
  fff1015de8:	ed0d                	bnez	a0,fff1015e22 <spl+0x5da2>
  fff1015dea:	67a2                	ld	a5,8(sp)
  fff1015dec:	5535                	li	a0,-19
  fff1015dee:	cb95                	beqz	a5,fff1015e22 <spl+0x5da2>
  fff1015df0:	0cf1b823          	sd	a5,208(gp)
  fff1015df4:	4501                	li	a0,0
  fff1015df6:	a035                	j	fff1015e22 <spl+0x5da2>
  fff1015df8:	0024                	addi	s1,sp,8
  fff1015dfa:	85aa                	mv	a1,a0
  fff1015dfc:	8626                	mv	a2,s1
  fff1015dfe:	07200513          	li	a0,114
  fff1015e02:	f59fd0ef          	jal	ra,fff1013d5a <spl+0x3cda>
  fff1015e06:	d971                	beqz	a0,fff1015dda <spl+0x5d5a>
  fff1015e08:	a53fd0ef          	jal	ra,fff101385a <spl+0x37da>
  fff1015e0c:	4701                	li	a4,0
  fff1015e0e:	4681                	li	a3,0
  fff1015e10:	8626                	mv	a2,s1
  fff1015e12:	85a2                	mv	a1,s0
  fff1015e14:	819fd0ef          	jal	ra,fff101362c <spl+0x35ac>
  fff1015e18:	f169                	bnez	a0,fff1015dda <spl+0x5d5a>
  fff1015e1a:	6522                	ld	a0,8(sp)
  fff1015e1c:	b5efd0ef          	jal	ra,fff101317a <spl+0x30fa>
  fff1015e20:	dd4d                	beqz	a0,fff1015dda <spl+0x5d5a>
  fff1015e22:	70a2                	ld	ra,40(sp)
  fff1015e24:	7402                	ld	s0,32(sp)
  fff1015e26:	64e2                	ld	s1,24(sp)
  fff1015e28:	6145                	addi	sp,sp,48
  fff1015e2a:	8082                	ret
  fff1015e2c:	c0102573          	rdtime	a0
  fff1015e30:	8082                	ret
  fff1015e32:	1141                	addi	sp,sp,-16
  fff1015e34:	e022                	sd	s0,0(sp)
  fff1015e36:	e406                	sd	ra,8(sp)
  fff1015e38:	842a                	mv	s0,a0
  fff1015e3a:	9d4fd0ef          	jal	ra,fff101300e <spl+0x2f8e>
  fff1015e3e:	741c                	ld	a5,40(s0)
  fff1015e40:	e11c                	sd	a5,0(a0)
  fff1015e42:	60a2                	ld	ra,8(sp)
  fff1015e44:	6402                	ld	s0,0(sp)
  fff1015e46:	4501                	li	a0,0
  fff1015e48:	0141                	addi	sp,sp,16
  fff1015e4a:	8082                	ret
  fff1015e4c:	1141                	addi	sp,sp,-16
  fff1015e4e:	e406                	sd	ra,8(sp)
  fff1015e50:	9b8fd0ef          	jal	ra,fff1013008 <spl+0x2f88>
  fff1015e54:	67b1                	lui	a5,0xc
  fff1015e56:	17e1                	addi	a5,a5,-8
  fff1015e58:	953e                	add	a0,a0,a5
  fff1015e5a:	6108                	ld	a0,0(a0)
  fff1015e5c:	0aa0000f          	fence	ir,ir
  fff1015e60:	60a2                	ld	ra,8(sp)
  fff1015e62:	0141                	addi	sp,sp,16
  fff1015e64:	8082                	ret
  fff1015e66:	1141                	addi	sp,sp,-16
  fff1015e68:	e406                	sd	ra,8(sp)
  fff1015e6a:	e022                	sd	s0,0(sp)
  fff1015e6c:	842a                	mv	s0,a0
  fff1015e6e:	e34fd0ef          	jal	ra,fff10134a2 <spl+0x3422>
  fff1015e72:	85aa                	mv	a1,a0
  fff1015e74:	8522                	mv	a0,s0
  fff1015e76:	a12fd0ef          	jal	ra,fff1013088 <spl+0x3008>
  fff1015e7a:	8522                	mv	a0,s0
  fff1015e7c:	98cfd0ef          	jal	ra,fff1013008 <spl+0x2f88>
  fff1015e80:	c519                	beqz	a0,fff1015e8e <spl+0x5e0e>
  fff1015e82:	8522                	mv	a0,s0
  fff1015e84:	6402                	ld	s0,0(sp)
  fff1015e86:	60a2                	ld	ra,8(sp)
  fff1015e88:	0141                	addi	sp,sp,16
  fff1015e8a:	ef5ff06f          	j	fff1015d7e <spl+0x5cfe>
  fff1015e8e:	60a2                	ld	ra,8(sp)
  fff1015e90:	6402                	ld	s0,0(sp)
  fff1015e92:	5529                	li	a0,-22
  fff1015e94:	0141                	addi	sp,sp,16
  fff1015e96:	8082                	ret
  fff1015e98:	4501                	li	a0,0
  fff1015e9a:	8082                	ret
  fff1015e9c:	7179                	addi	sp,sp,-48
  fff1015e9e:	00002517          	auipc	a0,0x2
  fff1015ea2:	41a50513          	addi	a0,a0,1050 # fff10182b8 <spl+0x8238>
  fff1015ea6:	f406                	sd	ra,40(sp)
  fff1015ea8:	9d8fe0ef          	jal	ra,fff1014080 <spl+0x4000>
  fff1015eac:	86aa                	mv	a3,a0
  fff1015eae:	e42a                	sd	a0,8(sp)
  fff1015eb0:	4501                	li	a0,0
  fff1015eb2:	0206c063          	bltz	a3,fff1015ed2 <spl+0x5e52>
  fff1015eb6:	9a5fd0ef          	jal	ra,fff101385a <spl+0x37da>
  fff1015eba:	66a2                	ld	a3,8(sp)
  fff1015ebc:	0838                	addi	a4,sp,24
  fff1015ebe:	00003617          	auipc	a2,0x3
  fff1015ec2:	9ea60613          	addi	a2,a2,-1558 # fff10188a8 <spl+0x8828>
  fff1015ec6:	00003597          	auipc	a1,0x3
  fff1015eca:	9ea58593          	addi	a1,a1,-1558 # fff10188b0 <spl+0x8830>
  fff1015ece:	f1efd0ef          	jal	ra,fff10135ec <spl+0x356c>
  fff1015ed2:	70a2                	ld	ra,40(sp)
  fff1015ed4:	6145                	addi	sp,sp,48
  fff1015ed6:	8082                	ret
  fff1015ed8:	4579                	li	a0,30
  fff1015eda:	804fe06f          	j	fff1013ede <spl+0x3e5e>
  fff1015ede:	611c                	ld	a5,0(a0)
  fff1015ee0:	77bc                	ld	a5,104(a5)
  fff1015ee2:	739c                	ld	a5,32(a5)
  fff1015ee4:	eb89                	bnez	a5,fff1015ef6 <spl+0x5e76>
  fff1015ee6:	fda00513          	li	a0,-38
  fff1015eea:	8082                	ret
  fff1015eec:	fda00513          	li	a0,-38
  fff1015ef0:	60a2                	ld	ra,8(sp)
  fff1015ef2:	0141                	addi	sp,sp,16
  fff1015ef4:	8082                	ret
  fff1015ef6:	1141                	addi	sp,sp,-16
  fff1015ef8:	e406                	sd	ra,8(sp)
  fff1015efa:	9782                	jalr	a5
  fff1015efc:	d965                	beqz	a0,fff1015eec <spl+0x5e6c>
  fff1015efe:	4505                	li	a0,1
  fff1015f00:	bfc5                	j	fff1015ef0 <spl+0x5e70>
  fff1015f02:	7179                	addi	sp,sp,-48
  fff1015f04:	ec26                	sd	s1,24(sp)
  fff1015f06:	0024                	addi	s1,sp,8
  fff1015f08:	85a6                	mv	a1,s1
  fff1015f0a:	4579                	li	a0,30
  fff1015f0c:	f406                	sd	ra,40(sp)
  fff1015f0e:	f022                	sd	s0,32(sp)
  fff1015f10:	e6ffd0ef          	jal	ra,fff1013d7e <spl+0x3cfe>
  fff1015f14:	6422                	ld	s0,8(sp)
  fff1015f16:	ec01                	bnez	s0,fff1015f2e <spl+0x5eae>
  fff1015f18:	85a6                	mv	a1,s1
  fff1015f1a:	4579                	li	a0,30
  fff1015f1c:	ec9fd0ef          	jal	ra,fff1013de4 <spl+0x3d64>
  fff1015f20:	cd01                	beqz	a0,fff1015f38 <spl+0x5eb8>
  fff1015f22:	70a2                	ld	ra,40(sp)
  fff1015f24:	8522                	mv	a0,s0
  fff1015f26:	7402                	ld	s0,32(sp)
  fff1015f28:	64e2                	ld	s1,24(sp)
  fff1015f2a:	6145                	addi	sp,sp,48
  fff1015f2c:	8082                	ret
  fff1015f2e:	8522                	mv	a0,s0
  fff1015f30:	fafff0ef          	jal	ra,fff1015ede <spl+0x5e5e>
  fff1015f34:	00a05463          	blez	a0,fff1015f3c <spl+0x5ebc>
  fff1015f38:	6422                	ld	s0,8(sp)
  fff1015f3a:	b7e5                	j	fff1015f22 <spl+0x5ea2>
  fff1015f3c:	8526                	mv	a0,s1
  fff1015f3e:	e5ffd0ef          	jal	ra,fff1013d9c <spl+0x3d1c>
  fff1015f42:	bfc9                	j	fff1015f14 <spl+0x5e94>
  fff1015f44:	4501                	li	a0,0
  fff1015f46:	8082                	ret
  fff1015f48:	7139                	addi	sp,sp,-64
  fff1015f4a:	f822                	sd	s0,48(sp)
  fff1015f4c:	fc06                	sd	ra,56(sp)
  fff1015f4e:	f426                	sd	s1,40(sp)
  fff1015f50:	f04a                	sd	s2,32(sp)
  fff1015f52:	ec4e                	sd	s3,24(sp)
  fff1015f54:	e852                	sd	s4,16(sp)
  fff1015f56:	e456                	sd	s5,8(sp)
  fff1015f58:	791c                	ld	a5,48(a0)
  fff1015f5a:	0d81b503          	ld	a0,216(gp)
  fff1015f5e:	547d                	li	s0,-1
  fff1015f60:	0907a583          	lw	a1,144(a5) # c090 <ROM_BASE-0xfff1003f70>
  fff1015f64:	cccfb0ef          	jal	ra,fff1011430 <spl+0x13b0>
  fff1015f68:	00054463          	bltz	a0,fff1015f70 <spl+0x5ef0>
  fff1015f6c:	0005041b          	sext.w	s0,a0
  fff1015f70:	4481                	li	s1,0
  fff1015f72:	59fd                	li	s3,-1
  fff1015f74:	00002a17          	auipc	s4,0x2
  fff1015f78:	2aca0a13          	addi	s4,s4,684 # fff1018220 <spl+0x81a0>
  fff1015f7c:	00003a97          	auipc	s5,0x3
  fff1015f80:	8fca8a93          	addi	s5,s5,-1796 # fff1018878 <spl+0x87f8>
  fff1015f84:	01341c63          	bne	s0,s3,fff1015f9c <spl+0x5f1c>
  fff1015f88:	70e2                	ld	ra,56(sp)
  fff1015f8a:	7442                	ld	s0,48(sp)
  fff1015f8c:	7902                	ld	s2,32(sp)
  fff1015f8e:	69e2                	ld	s3,24(sp)
  fff1015f90:	6a42                	ld	s4,16(sp)
  fff1015f92:	6aa2                	ld	s5,8(sp)
  fff1015f94:	8526                	mv	a0,s1
  fff1015f96:	74a2                	ld	s1,40(sp)
  fff1015f98:	6121                	addi	sp,sp,64
  fff1015f9a:	8082                	ret
  fff1015f9c:	0d81b503          	ld	a0,216(gp)
  fff1015fa0:	0004091b          	sext.w	s2,s0
  fff1015fa4:	85ca                	mv	a1,s2
  fff1015fa6:	9ebfb0ef          	jal	ra,fff1011990 <spl+0x1910>
  fff1015faa:	c919                	beqz	a0,fff1015fc0 <spl+0x5f40>
  fff1015fac:	85d2                	mv	a1,s4
  fff1015fae:	8522                	mv	a0,s0
  fff1015fb0:	87efe0ef          	jal	ra,fff101402e <spl+0x3fae>
  fff1015fb4:	c511                	beqz	a0,fff1015fc0 <spl+0x5f40>
  fff1015fb6:	85d6                	mv	a1,s5
  fff1015fb8:	d43fb0ef          	jal	ra,fff1011cfa <spl+0x1c7a>
  fff1015fbc:	e111                	bnez	a0,fff1015fc0 <spl+0x5f40>
  fff1015fbe:	2485                	addiw	s1,s1,1
  fff1015fc0:	0d81b503          	ld	a0,216(gp)
  fff1015fc4:	85ca                	mv	a1,s2
  fff1015fc6:	c8afb0ef          	jal	ra,fff1011450 <spl+0x13d0>
  fff1015fca:	0005041b          	sext.w	s0,a0
  fff1015fce:	fa055be3          	bgez	a0,fff1015f84 <spl+0x5f04>
  fff1015fd2:	547d                	li	s0,-1
  fff1015fd4:	bf45                	j	fff1015f84 <spl+0x5f04>
  fff1015fd6:	7179                	addi	sp,sp,-48
  fff1015fd8:	f022                	sd	s0,32(sp)
  fff1015fda:	ec26                	sd	s1,24(sp)
  fff1015fdc:	f406                	sd	ra,40(sp)
  fff1015fde:	619c                	ld	a5,0(a1)
  fff1015fe0:	84aa                	mv	s1,a0
  fff1015fe2:	842e                	mv	s0,a1
  fff1015fe4:	eb89                	bnez	a5,fff1015ff6 <spl+0x5f76>
  fff1015fe6:	6948                	ld	a0,144(a0)
  fff1015fe8:	862e                	mv	a2,a1
  fff1015fea:	00002597          	auipc	a1,0x2
  fff1015fee:	f8658593          	addi	a1,a1,-122 # fff1017f70 <spl+0x7ef0>
  fff1015ff2:	ff3fd0ef          	jal	ra,fff1013fe4 <spl+0x3f64>
  fff1015ff6:	68c8                	ld	a0,144(s1)
  fff1015ff8:	00002597          	auipc	a1,0x2
  fff1015ffc:	24858593          	addi	a1,a1,584 # fff1018240 <spl+0x81c0>
  fff1016000:	82efe0ef          	jal	ra,fff101402e <spl+0x3fae>
  fff1016004:	c509                	beqz	a0,fff101600e <spl+0x5f8e>
  fff1016006:	641c                	ld	a5,8(s0)
  fff1016008:	0027e793          	ori	a5,a5,2
  fff101600c:	e41c                	sd	a5,8(s0)
  fff101600e:	68c8                	ld	a0,144(s1)
  fff1016010:	0030                	addi	a2,sp,8
  fff1016012:	00002597          	auipc	a1,0x2
  fff1016016:	23e58593          	addi	a1,a1,574 # fff1018250 <spl+0x81d0>
  fff101601a:	fcbfd0ef          	jal	ra,fff1013fe4 <spl+0x3f64>
  fff101601e:	e919                	bnez	a0,fff1016034 <spl+0x5fb4>
  fff1016020:	641c                	ld	a5,8(s0)
  fff1016022:	0017e793          	ori	a5,a5,1
  fff1016026:	e41c                	sd	a5,8(s0)
  fff1016028:	70a2                	ld	ra,40(sp)
  fff101602a:	7402                	ld	s0,32(sp)
  fff101602c:	64e2                	ld	s1,24(sp)
  fff101602e:	4501                	li	a0,0
  fff1016030:	6145                	addi	sp,sp,48
  fff1016032:	8082                	ret
  fff1016034:	68c8                	ld	a0,144(s1)
  fff1016036:	0070                	addi	a2,sp,12
  fff1016038:	00002597          	auipc	a1,0x2
  fff101603c:	22858593          	addi	a1,a1,552 # fff1018260 <spl+0x81e0>
  fff1016040:	fa5fd0ef          	jal	ra,fff1013fe4 <spl+0x3f64>
  fff1016044:	f175                	bnez	a0,fff1016028 <spl+0x5fa8>
  fff1016046:	bfe9                	j	fff1016020 <spl+0x5fa0>
  fff1016048:	7179                	addi	sp,sp,-48
  fff101604a:	f406                	sd	ra,40(sp)
  fff101604c:	f022                	sd	s0,32(sp)
  fff101604e:	ec26                	sd	s1,24(sp)
  fff1016050:	6948                	ld	a0,144(a0)
  fff1016052:	842e                	mv	s0,a1
  fff1016054:	00002597          	auipc	a1,0x2
  fff1016058:	1dc58593          	addi	a1,a1,476 # fff1018230 <spl+0x81b0>
  fff101605c:	84b2                	mv	s1,a2
  fff101605e:	fd1fd0ef          	jal	ra,fff101402e <spl+0x3fae>
  fff1016062:	e42a                	sd	a0,8(sp)
  fff1016064:	cc5fb0ef          	jal	ra,fff1011d28 <spl+0x1ca8>
  fff1016068:	0505                	addi	a0,a0,1
  fff101606a:	00a4ec63          	bltu	s1,a0,fff1016082 <spl+0x6002>
  fff101606e:	65a2                	ld	a1,8(sp)
  fff1016070:	8522                	mv	a0,s0
  fff1016072:	c5bfb0ef          	jal	ra,fff1011ccc <spl+0x1c4c>
  fff1016076:	4501                	li	a0,0
  fff1016078:	70a2                	ld	ra,40(sp)
  fff101607a:	7402                	ld	s0,32(sp)
  fff101607c:	64e2                	ld	s1,24(sp)
  fff101607e:	6145                	addi	sp,sp,48
  fff1016080:	8082                	ret
  fff1016082:	5511                	li	a0,-28
  fff1016084:	bfd5                	j	fff1016078 <spl+0x5ff8>
  fff1016086:	7179                	addi	sp,sp,-48
  fff1016088:	f406                	sd	ra,40(sp)
  fff101608a:	f022                	sd	s0,32(sp)
  fff101608c:	ec26                	sd	s1,24(sp)
  fff101608e:	84aa                	mv	s1,a0
  fff1016090:	f6dfc0ef          	jal	ra,fff1012ffc <spl+0x2f7c>
  fff1016094:	842a                	mv	s0,a0
  fff1016096:	8526                	mv	a0,s1
  fff1016098:	c06fd0ef          	jal	ra,fff101349e <spl+0x341e>
  fff101609c:	c008                	sw	a0,0(s0)
  fff101609e:	68c8                	ld	a0,144(s1)
  fff10160a0:	01c40613          	addi	a2,s0,28
  fff10160a4:	00002597          	auipc	a1,0x2
  fff10160a8:	16458593          	addi	a1,a1,356 # fff1018208 <spl+0x8188>
  fff10160ac:	e432                	sd	a2,8(sp)
  fff10160ae:	f37fd0ef          	jal	ra,fff1013fe4 <spl+0x3f64>
  fff10160b2:	6622                	ld	a2,8(sp)
  fff10160b4:	c909                	beqz	a0,fff10160c6 <spl+0x6046>
  fff10160b6:	789c                	ld	a5,48(s1)
  fff10160b8:	00002597          	auipc	a1,0x2
  fff10160bc:	15058593          	addi	a1,a1,336 # fff1018208 <spl+0x8188>
  fff10160c0:	6bc8                	ld	a0,144(a5)
  fff10160c2:	f23fd0ef          	jal	ra,fff1013fe4 <spl+0x3f64>
  fff10160c6:	4018                	lw	a4,0(s0)
  fff10160c8:	1481b783          	ld	a5,328(gp)
  fff10160cc:	02f71763          	bne	a4,a5,fff10160fa <spl+0x607a>
  fff10160d0:	4c5c                	lw	a5,28(s0)
  fff10160d2:	c785                	beqz	a5,fff10160fa <spl+0x607a>
  fff10160d4:	00002517          	auipc	a0,0x2
  fff10160d8:	76450513          	addi	a0,a0,1892 # fff1018838 <spl+0x87b8>
  fff10160dc:	bccfd0ef          	jal	ra,fff10134a8 <spl+0x3428>
  fff10160e0:	85aa                	mv	a1,a0
  fff10160e2:	cd01                	beqz	a0,fff10160fa <spl+0x607a>
  fff10160e4:	01c46683          	lwu	a3,28(s0)
  fff10160e8:	4781                	li	a5,0
  fff10160ea:	577d                	li	a4,-1
  fff10160ec:	00002617          	auipc	a2,0x2
  fff10160f0:	74c60613          	addi	a2,a2,1868 # fff1018838 <spl+0x87b8>
  fff10160f4:	8526                	mv	a0,s1
  fff10160f6:	b30fd0ef          	jal	ra,fff1013426 <spl+0x33a6>
  fff10160fa:	70a2                	ld	ra,40(sp)
  fff10160fc:	7402                	ld	s0,32(sp)
  fff10160fe:	64e2                	ld	s1,24(sp)
  fff1016100:	4501                	li	a0,0
  fff1016102:	6145                	addi	sp,sp,48
  fff1016104:	8082                	ret
  fff1016106:	00003517          	auipc	a0,0x3
  fff101610a:	b6a53503          	ld	a0,-1174(a0) # fff1018c70 <spl+0x8bf0>
  fff101610e:	8082                	ret
  fff1016110:	8082                	ret
  fff1016112:	4661                	li	a2,24
  fff1016114:	4581                	li	a1,0
  fff1016116:	f7afa06f          	j	fff1010890 <spl+0x810>
  fff101611a:	ff9ff06f          	j	fff1016112 <spl+0x6092>
  fff101611e:	716d                	addi	sp,sp,-272
  fff1016120:	e606                	sd	ra,264(sp)
  fff1016122:	e222                	sd	s0,256(sp)
  fff1016124:	fda6                	sd	s1,248(sp)
  fff1016126:	f9ca                	sd	s2,240(sp)
  fff1016128:	84ae                	mv	s1,a1
  fff101612a:	8932                	mv	s2,a2
  fff101612c:	f5ce                	sd	s3,232(sp)
  fff101612e:	edd6                	sd	s5,216(sp)
  fff1016130:	e5de                	sd	s7,200(sp)
  fff1016132:	f96a                	sd	s10,176(sp)
  fff1016134:	ec36                	sd	a3,24(sp)
  fff1016136:	8d2a                	mv	s10,a0
  fff1016138:	fc3a                	sd	a4,56(sp)
  fff101613a:	f1d2                	sd	s4,224(sp)
  fff101613c:	e9da                	sd	s6,208(sp)
  fff101613e:	e1e2                	sd	s8,192(sp)
  fff1016140:	fd66                	sd	s9,184(sp)
  fff1016142:	f56e                	sd	s11,168(sp)
  fff1016144:	fc3ff0ef          	jal	ra,fff1016106 <spl+0x6086>
  fff1016148:	713c                	ld	a5,96(a0)
  fff101614a:	00cd2983          	lw	s3,12(s10)
  fff101614e:	08810a93          	addi	s5,sp,136
  fff1016152:	0207ab83          	lw	s7,32(a5)
  fff1016156:	000d3783          	ld	a5,0(s10)
  fff101615a:	8556                	mv	a0,s5
  fff101615c:	4f80                	lw	s0,24(a5)
  fff101615e:	00a4079b          	addiw	a5,s0,10
  fff1016162:	4177873b          	subw	a4,a5,s7
  fff1016166:	f43a                	sd	a4,40(sp)
  fff1016168:	4405                	li	s0,1
  fff101616a:	0007871b          	sext.w	a4,a5
  fff101616e:	f03a                	sd	a4,32(sp)
  fff1016170:	00f4143b          	sllw	s0,s0,a5
  fff1016174:	f9fff0ef          	jal	ra,fff1016112 <spl+0x6092>
  fff1016178:	02099793          	slli	a5,s3,0x20
  fff101617c:	9381                	srli	a5,a5,0x20
  fff101617e:	00990733          	add	a4,s2,s1
  fff1016182:	00e7d463          	bge	a5,a4,fff101618a <spl+0x610a>
  fff1016186:	40978933          	sub	s2,a5,s1
  fff101618a:	00805463          	blez	s0,fff1016192 <spl+0x6112>
  fff101618e:	03204563          	bgtz	s2,fff10161b8 <spl+0x6138>
  fff1016192:	8556                	mv	a0,s5
  fff1016194:	f87ff0ef          	jal	ra,fff101611a <spl+0x609a>
  fff1016198:	557d                	li	a0,-1
  fff101619a:	60b2                	ld	ra,264(sp)
  fff101619c:	6412                	ld	s0,256(sp)
  fff101619e:	74ee                	ld	s1,248(sp)
  fff10161a0:	794e                	ld	s2,240(sp)
  fff10161a2:	79ae                	ld	s3,232(sp)
  fff10161a4:	7a0e                	ld	s4,224(sp)
  fff10161a6:	6aee                	ld	s5,216(sp)
  fff10161a8:	6b4e                	ld	s6,208(sp)
  fff10161aa:	6bae                	ld	s7,200(sp)
  fff10161ac:	6c0e                	ld	s8,192(sp)
  fff10161ae:	7cea                	ld	s9,184(sp)
  fff10161b0:	7d4a                	ld	s10,176(sp)
  fff10161b2:	7daa                	ld	s11,168(sp)
  fff10161b4:	6151                	addi	sp,sp,272
  fff10161b6:	8082                	ret
  fff10161b8:	009909b3          	add	s3,s2,s1
  fff10161bc:	99a2                	add	s3,s3,s0
  fff10161be:	19fd                	addi	s3,s3,-1
  fff10161c0:	0289d7b3          	divu	a5,s3,s0
  fff10161c4:	6a62                	ld	s4,24(sp)
  fff10161c6:	4b01                	li	s6,0
  fff10161c8:	4681                	li	a3,0
  fff10161ca:	4c81                	li	s9,0
  fff10161cc:	4c01                	li	s8,0
  fff10161ce:	4981                	li	s3,0
  fff10161d0:	4d81                	li	s11,0
  fff10161d2:	5f7d                	li	t5,-1
  fff10161d4:	e83e                	sd	a5,16(sp)
  fff10161d6:	0284d7b3          	divu	a5,s1,s0
  fff10161da:	e43e                	sd	a5,8(sp)
  fff10161dc:	47a2                	lw	a5,8(sp)
  fff10161de:	f83e                	sd	a5,48(sp)
  fff10161e0:	0004879b          	sext.w	a5,s1
  fff10161e4:	e0be                	sd	a5,64(sp)
  fff10161e6:	008d0793          	addi	a5,s10,8
  fff10161ea:	e4be                	sd	a5,72(sp)
  fff10161ec:	67c2                	ld	a5,16(sp)
  fff10161ee:	5d7d                	li	s10,-1
  fff10161f0:	17fd                	addi	a5,a5,-1
  fff10161f2:	e8be                	sd	a5,80(sp)
  fff10161f4:	012487bb          	addw	a5,s1,s2
  fff10161f8:	cebe                	sw	a5,92(sp)
  fff10161fa:	7742                	ld	a4,48(sp)
  fff10161fc:	67a2                	ld	a5,8(sp)
  fff10161fe:	016702b3          	add	t0,a4,s6
  fff1016202:	6742                	ld	a4,16(sp)
  fff1016204:	016785bb          	addw	a1,a5,s6
  fff1016208:	87ae                	mv	a5,a1
  fff101620a:	02e2e863          	bltu	t0,a4,fff101623a <spl+0x61ba>
  fff101620e:	57fd                	li	a5,-1
  fff1016210:	00ff0d63          	beq	t5,a5,fff101622a <spl+0x61aa>
  fff1016214:	0009861b          	sext.w	a2,s3
  fff1016218:	000c059b          	sext.w	a1,s8
  fff101621c:	856e                	mv	a0,s11
  fff101621e:	793000ef          	jal	ra,fff10171b0 <spl+0x7130>
  fff1016222:	0542                	slli	a0,a0,0x10
  fff1016224:	4105551b          	sraiw	a0,a0,0x10
  fff1016228:	d52d                	beqz	a0,fff1016192 <spl+0x6112>
  fff101622a:	77e2                	ld	a5,56(sp)
  fff101622c:	8556                	mv	a0,s5
  fff101622e:	0127b023          	sd	s2,0(a5)
  fff1016232:	ee9ff0ef          	jal	ra,fff101611a <spl+0x609a>
  fff1016236:	4501                	li	a0,0
  fff1016238:	b78d                	j	fff101619a <spl+0x611a>
  fff101623a:	7702                	ld	a4,32(sp)
  fff101623c:	6526                	ld	a0,72(sp)
  fff101623e:	8656                	mv	a2,s5
  fff1016240:	00e7973b          	sllw	a4,a5,a4
  fff1016244:	fcb6                	sd	a3,120(sp)
  fff1016246:	f8fa                	sd	t5,112(sp)
  fff1016248:	f496                	sd	t0,104(sp)
  fff101624a:	d0ba                	sw	a4,96(sp)
  fff101624c:	2ae000ef          	jal	ra,fff10164fa <spl+0x647a>
  fff1016250:	f40541e3          	bltz	a0,fff1016192 <spl+0x6112>
  fff1016254:	77a2                	ld	a5,40(sp)
  fff1016256:	6646                	ld	a2,80(sp)
  fff1016258:	72a6                	ld	t0,104(sp)
  fff101625a:	5706                	lw	a4,96(sp)
  fff101625c:	7f46                	ld	t5,112(sp)
  fff101625e:	76e6                	ld	a3,120(sp)
  fff1016260:	00f517b3          	sll	a5,a0,a5
  fff1016264:	8822                	mv	a6,s0
  fff1016266:	00c29863          	bne	t0,a2,fff1016276 <spl+0x61f6>
  fff101626a:	4676                	lw	a2,92(sp)
  fff101626c:	40e6083b          	subw	a6,a2,a4
  fff1016270:	00081363          	bnez	a6,fff1016276 <spl+0x61f6>
  fff1016274:	8822                	mv	a6,s0
  fff1016276:	6622                	ld	a2,8(sp)
  fff1016278:	4481                	li	s1,0
  fff101627a:	00c29763          	bne	t0,a2,fff1016288 <spl+0x6208>
  fff101627e:	6606                	ld	a2,64(sp)
  fff1016280:	40e604bb          	subw	s1,a2,a4
  fff1016284:	4098083b          	subw	a6,a6,s1
  fff1016288:	cbb9                	beqz	a5,fff10162de <spl+0x625e>
  fff101628a:	05af0563          	beq	t5,s10,fff10162d4 <spl+0x6254>
  fff101628e:	01979d63          	bne	a5,s9,fff10162a8 <spl+0x6228>
  fff1016292:	99c2                	add	s3,s3,a6
  fff1016294:	4178583b          	sraw	a6,a6,s7
  fff1016298:	9cc2                	add	s9,s9,a6
  fff101629a:	87fa                	mv	a5,t5
  fff101629c:	4094073b          	subw	a4,s0,s1
  fff10162a0:	9a3a                	add	s4,s4,a4
  fff10162a2:	0b05                	addi	s6,s6,1
  fff10162a4:	8f3e                	mv	t5,a5
  fff10162a6:	bf91                	j	fff10161fa <spl+0x617a>
  fff10162a8:	0009861b          	sext.w	a2,s3
  fff10162ac:	000c059b          	sext.w	a1,s8
  fff10162b0:	856e                	mv	a0,s11
  fff10162b2:	f4c2                	sd	a6,104(sp)
  fff10162b4:	f0be                	sd	a5,96(sp)
  fff10162b6:	6fb000ef          	jal	ra,fff10171b0 <spl+0x7130>
  fff10162ba:	ec050ce3          	beqz	a0,fff1016192 <spl+0x6112>
  fff10162be:	7826                	ld	a6,104(sp)
  fff10162c0:	7786                	ld	a5,96(sp)
  fff10162c2:	8c26                	mv	s8,s1
  fff10162c4:	89c2                	mv	s3,a6
  fff10162c6:	4178533b          	sraw	t1,a6,s7
  fff10162ca:	00f30cb3          	add	s9,t1,a5
  fff10162ce:	86d2                	mv	a3,s4
  fff10162d0:	8dbe                	mv	s11,a5
  fff10162d2:	b7e9                	j	fff101629c <spl+0x621c>
  fff10162d4:	89c2                	mv	s3,a6
  fff10162d6:	8c26                	mv	s8,s1
  fff10162d8:	4178533b          	sraw	t1,a6,s7
  fff10162dc:	b7fd                	j	fff10162ca <spl+0x624a>
  fff10162de:	03af0063          	beq	t5,s10,fff10162fe <spl+0x627e>
  fff10162e2:	0009861b          	sext.w	a2,s3
  fff10162e6:	000c059b          	sext.w	a1,s8
  fff10162ea:	856e                	mv	a0,s11
  fff10162ec:	f0b6                	sd	a3,96(sp)
  fff10162ee:	6c3000ef          	jal	ra,fff10171b0 <spl+0x7130>
  fff10162f2:	0542                	slli	a0,a0,0x10
  fff10162f4:	4105551b          	sraiw	a0,a0,0x10
  fff10162f8:	7686                	ld	a3,96(sp)
  fff10162fa:	e8050ce3          	beqz	a0,fff1016192 <spl+0x6112>
  fff10162fe:	6762                	ld	a4,24(sp)
  fff1016300:	409407bb          	subw	a5,s0,s1
  fff1016304:	40ea0633          	sub	a2,s4,a4
  fff1016308:	40c905bb          	subw	a1,s2,a2
  fff101630c:	0007871b          	sext.w	a4,a5
  fff1016310:	862e                	mv	a2,a1
  fff1016312:	00b75463          	bge	a4,a1,fff101631a <spl+0x629a>
  fff1016316:	0007861b          	sext.w	a2,a5
  fff101631a:	4581                	li	a1,0
  fff101631c:	8552                	mv	a0,s4
  fff101631e:	f0b6                	sd	a3,96(sp)
  fff1016320:	d70fa0ef          	jal	ra,fff1010890 <spl+0x810>
  fff1016324:	7686                	ld	a3,96(sp)
  fff1016326:	57fd                	li	a5,-1
  fff1016328:	bf95                	j	fff101629c <spl+0x621c>
  fff101632a:	8736                	mv	a4,a3
  fff101632c:	00003697          	auipc	a3,0x3
  fff1016330:	a9c6b683          	ld	a3,-1380(a3) # fff1018dc8 <spl+0x8d48>
  fff1016334:	6294                	ld	a3,0(a3)
  fff1016336:	87aa                	mv	a5,a0
  fff1016338:	ca91                	beqz	a3,fff101634c <spl+0x62cc>
  fff101633a:	00003697          	auipc	a3,0x3
  fff101633e:	a766b683          	ld	a3,-1418(a3) # fff1018db0 <spl+0x8d30>
  fff1016342:	6288                	ld	a0,0(a3)
  fff1016344:	c501                	beqz	a0,fff101634c <spl+0x62cc>
  fff1016346:	86be                	mv	a3,a5
  fff1016348:	dd7ff06f          	j	fff101611e <spl+0x609e>
  fff101634c:	557d                	li	a0,-1
  fff101634e:	8082                	ret
  fff1016350:	7179                	addi	sp,sp,-48
  fff1016352:	f022                	sd	s0,32(sp)
  fff1016354:	e84a                	sd	s2,16(sp)
  fff1016356:	e44e                	sd	s3,8(sp)
  fff1016358:	f406                	sd	ra,40(sp)
  fff101635a:	ec26                	sd	s1,24(sp)
  fff101635c:	611c                	ld	a5,0(a0)
  fff101635e:	842a                	mv	s0,a0
  fff1016360:	89ae                	mv	s3,a1
  fff1016362:	8932                	mv	s2,a2
  fff1016364:	cb81                	beqz	a5,fff1016374 <spl+0x62f4>
  fff1016366:	651c                	ld	a5,8(a0)
  fff1016368:	00b79663          	bne	a5,a1,fff1016374 <spl+0x62f4>
  fff101636c:	491c                	lw	a5,16(a0)
  fff101636e:	4485                	li	s1,1
  fff1016370:	02c78863          	beq	a5,a2,fff10163a0 <spl+0x6320>
  fff1016374:	8522                	mv	a0,s0
  fff1016376:	da5ff0ef          	jal	ra,fff101611a <spl+0x609a>
  fff101637a:	85ca                	mv	a1,s2
  fff101637c:	02000513          	li	a0,32
  fff1016380:	df3fa0ef          	jal	ra,fff1011172 <spl+0x10f2>
  fff1016384:	e008                	sd	a0,0(s0)
  fff1016386:	86aa                	mv	a3,a0
  fff1016388:	4481                	li	s1,0
  fff101638a:	c919                	beqz	a0,fff10163a0 <spl+0x6320>
  fff101638c:	864a                	mv	a2,s2
  fff101638e:	4581                	li	a1,0
  fff1016390:	854e                	mv	a0,s3
  fff1016392:	61f000ef          	jal	ra,fff10171b0 <spl+0x7130>
  fff1016396:	84aa                	mv	s1,a0
  fff1016398:	ed01                	bnez	a0,fff10163b0 <spl+0x6330>
  fff101639a:	8522                	mv	a0,s0
  fff101639c:	d7fff0ef          	jal	ra,fff101611a <spl+0x609a>
  fff10163a0:	70a2                	ld	ra,40(sp)
  fff10163a2:	7402                	ld	s0,32(sp)
  fff10163a4:	6942                	ld	s2,16(sp)
  fff10163a6:	69a2                	ld	s3,8(sp)
  fff10163a8:	8526                	mv	a0,s1
  fff10163aa:	64e2                	ld	s1,24(sp)
  fff10163ac:	6145                	addi	sp,sp,48
  fff10163ae:	8082                	ret
  fff10163b0:	01343423          	sd	s3,8(s0)
  fff10163b4:	01242823          	sw	s2,16(s0)
  fff10163b8:	4485                	li	s1,1
  fff10163ba:	b7dd                	j	fff10163a0 <spl+0x6320>
  fff10163bc:	0145d683          	lhu	a3,20(a1)
  fff10163c0:	04000713          	li	a4,64
  fff10163c4:	87aa                	mv	a5,a0
  fff10163c6:	00856503          	lwu	a0,8(a0)
  fff10163ca:	00e69663          	bne	a3,a4,fff10163d6 <spl+0x6356>
  fff10163ce:	0287e783          	lwu	a5,40(a5)
  fff10163d2:	1782                	slli	a5,a5,0x20
  fff10163d4:	953e                	add	a0,a0,a5
  fff10163d6:	8082                	ret
  fff10163d8:	711d                	addi	sp,sp,-96
  fff10163da:	ec86                	sd	ra,88(sp)
  fff10163dc:	e8a2                	sd	s0,80(sp)
  fff10163de:	e4a6                	sd	s1,72(sp)
  fff10163e0:	842e                	mv	s0,a1
  fff10163e2:	fc4e                	sd	s3,56(sp)
  fff10163e4:	f852                	sd	s4,48(sp)
  fff10163e6:	89b2                	mv	s3,a2
  fff10163e8:	f456                	sd	s5,40(sp)
  fff10163ea:	f05a                	sd	s6,32(sp)
  fff10163ec:	e0ca                	sd	s2,64(sp)
  fff10163ee:	ec5e                	sd	s7,24(sp)
  fff10163f0:	e862                	sd	s8,16(sp)
  fff10163f2:	84aa                	mv	s1,a0
  fff10163f4:	d13ff0ef          	jal	ra,fff1016106 <spl+0x6086>
  fff10163f8:	8aaa                	mv	s5,a0
  fff10163fa:	d0dff0ef          	jal	ra,fff1016106 <spl+0x6086>
  fff10163fe:	713c                	ld	a5,96(a0)
  fff1016400:	0207aa03          	lw	s4,32(a5)
  fff1016404:	d03ff0ef          	jal	ra,fff1016106 <spl+0x6086>
  fff1016408:	01455603          	lhu	a2,20(a0)
  fff101640c:	02000513          	li	a0,32
  fff1016410:	85b2                	mv	a1,a2
  fff1016412:	e432                	sd	a2,8(sp)
  fff1016414:	d5ffa0ef          	jal	ra,fff1011172 <spl+0x10f2>
  fff1016418:	6622                	ld	a2,8(sp)
  fff101641a:	8b2a                	mv	s6,a0
  fff101641c:	4581                	li	a1,0
  fff101641e:	c72fa0ef          	jal	ra,fff1010890 <spl+0x810>
  fff1016422:	000b1f63          	bnez	s6,fff1016440 <spl+0x63c0>
  fff1016426:	4501                	li	a0,0
  fff1016428:	60e6                	ld	ra,88(sp)
  fff101642a:	6446                	ld	s0,80(sp)
  fff101642c:	64a6                	ld	s1,72(sp)
  fff101642e:	6906                	ld	s2,64(sp)
  fff1016430:	79e2                	ld	s3,56(sp)
  fff1016432:	7a42                	ld	s4,48(sp)
  fff1016434:	7aa2                	ld	s5,40(sp)
  fff1016436:	7b02                	ld	s6,32(sp)
  fff1016438:	6be2                	ld	s7,24(sp)
  fff101643a:	6c42                	ld	s8,16(sp)
  fff101643c:	6125                	addi	sp,sp,96
  fff101643e:	8082                	ret
  fff1016440:	0284ab83          	lw	s7,40(s1)
  fff1016444:	fe0b81e3          	beqz	s7,fff1016426 <spl+0x63a6>
  fff1016448:	00caa783          	lw	a5,12(s5)
  fff101644c:	dfe9                	beqz	a5,fff1016426 <spl+0x63a6>
  fff101644e:	cb9ff0ef          	jal	ra,fff1016106 <spl+0x6086>
  fff1016452:	713c                	ld	a5,96(a0)
  fff1016454:	0207ac03          	lw	s8,32(a5)
  fff1016458:	cafff0ef          	jal	ra,fff1016106 <spl+0x6086>
  fff101645c:	01455583          	lhu	a1,20(a0)
  fff1016460:	0005861b          	sext.w	a2,a1
  fff1016464:	d1e9                	beqz	a1,fff1016426 <spl+0x63a6>
  fff1016466:	4c88                	lw	a0,24(s1)
  fff1016468:	4905                	li	s2,1
  fff101646a:	2529                	addiw	a0,a0,10
  fff101646c:	00a9173b          	sllw	a4,s2,a0
  fff1016470:	02c747bb          	divw	a5,a4,a2
  fff1016474:	873e                	mv	a4,a5
  fff1016476:	dbc5                	beqz	a5,fff1016426 <spl+0x63a6>
  fff1016478:	347d                	addiw	s0,s0,-1
  fff101647a:	03745bbb          	divuw	s7,s0,s7
  fff101647e:	4185053b          	subw	a0,a0,s8
  fff1016482:	86da                	mv	a3,s6
  fff1016484:	02fbf83b          	remuw	a6,s7,a5
  fff1016488:	48dc                	lw	a5,20(s1)
  fff101648a:	2785                	addiw	a5,a5,1
  fff101648c:	02ebdbbb          	divuw	s7,s7,a4
  fff1016490:	02b805bb          	mulw	a1,a6,a1
  fff1016494:	017787bb          	addw	a5,a5,s7
  fff1016498:	1782                	slli	a5,a5,0x20
  fff101649a:	9381                	srli	a5,a5,0x20
  fff101649c:	00a79533          	sll	a0,a5,a0
  fff10164a0:	511000ef          	jal	ra,fff10171b0 <spl+0x7130>
  fff10164a4:	d149                	beqz	a0,fff1016426 <spl+0x63a6>
  fff10164a6:	4c9c                	lw	a5,24(s1)
  fff10164a8:	00caa503          	lw	a0,12(s5)
  fff10164ac:	27a9                	addiw	a5,a5,10
  fff10164ae:	00f9193b          	sllw	s2,s2,a5
  fff10164b2:	02a957bb          	divuw	a5,s2,a0
  fff10164b6:	893e                	mv	s2,a5
  fff10164b8:	d7bd                	beqz	a5,fff1016426 <spl+0x63a6>
  fff10164ba:	85d6                	mv	a1,s5
  fff10164bc:	855a                	mv	a0,s6
  fff10164be:	effff0ef          	jal	ra,fff10163bc <spl+0x633c>
  fff10164c2:	5498                	lw	a4,40(s1)
  fff10164c4:	032465bb          	remw	a1,s0,s2
  fff10164c8:	00caa783          	lw	a5,12(s5)
  fff10164cc:	86ce                	mv	a3,s3
  fff10164ce:	08000613          	li	a2,128
  fff10164d2:	02e4743b          	remuw	s0,s0,a4
  fff10164d6:	0324543b          	divuw	s0,s0,s2
  fff10164da:	02f585bb          	mulw	a1,a1,a5
  fff10164de:	1402                	slli	s0,s0,0x20
  fff10164e0:	9001                	srli	s0,s0,0x20
  fff10164e2:	942a                	add	s0,s0,a0
  fff10164e4:	4c88                	lw	a0,24(s1)
  fff10164e6:	2529                	addiw	a0,a0,10
  fff10164e8:	4145053b          	subw	a0,a0,s4
  fff10164ec:	00a41533          	sll	a0,s0,a0
  fff10164f0:	4c1000ef          	jal	ra,fff10171b0 <spl+0x7130>
  fff10164f4:	00a03533          	snez	a0,a0
  fff10164f8:	bf05                	j	fff1016428 <spl+0x63a8>
  fff10164fa:	7119                	addi	sp,sp,-128
  fff10164fc:	f8a2                	sd	s0,112(sp)
  fff10164fe:	ecce                	sd	s3,88(sp)
  fff1016500:	e8d2                	sd	s4,80(sp)
  fff1016502:	e4d6                	sd	s5,72(sp)
  fff1016504:	e0da                	sd	s6,64(sp)
  fff1016506:	fc86                	sd	ra,120(sp)
  fff1016508:	f4a6                	sd	s1,104(sp)
  fff101650a:	f0ca                	sd	s2,96(sp)
  fff101650c:	fc5e                	sd	s7,56(sp)
  fff101650e:	f862                	sd	s8,48(sp)
  fff1016510:	f466                	sd	s9,40(sp)
  fff1016512:	00003417          	auipc	s0,0x3
  fff1016516:	8b643403          	ld	s0,-1866(s0) # fff1018dc8 <spl+0x8d48>
  fff101651a:	601c                	ld	a5,0(s0)
  fff101651c:	8a2a                	mv	s4,a0
  fff101651e:	89ae                	mv	s3,a1
  fff1016520:	0187a903          	lw	s2,24(a5)
  fff1016524:	8b32                	mv	s6,a2
  fff1016526:	be1ff0ef          	jal	ra,fff1016106 <spl+0x6086>
  fff101652a:	713c                	ld	a5,96(a0)
  fff101652c:	00a90a9b          	addiw	s5,s2,10
  fff1016530:	00080737          	lui	a4,0x80
  fff1016534:	539c                	lw	a5,32(a5)
  fff1016536:	40fa893b          	subw	s2,s5,a5
  fff101653a:	020a2783          	lw	a5,32(s4)
  fff101653e:	8ff9                	and	a5,a5,a4
  fff1016540:	10078263          	beqz	a5,fff1016644 <spl+0x65c4>
  fff1016544:	8ada                	mv	s5,s6
  fff1016546:	000b1763          	bnez	s6,fff1016554 <spl+0x64d4>
  fff101654a:	00810a93          	addi	s5,sp,8
  fff101654e:	8556                	mv	a0,s5
  fff1016550:	bc3ff0ef          	jal	ra,fff1016112 <spl+0x6092>
  fff1016554:	601c                	ld	a5,0(s0)
  fff1016556:	64bd                	lui	s1,0xf
  fff1016558:	4405                	li	s0,1
  fff101655a:	4f90                	lw	a2,24(a5)
  fff101655c:	028a0a13          	addi	s4,s4,40
  fff1016560:	00098b9b          	sext.w	s7,s3
  fff1016564:	2629                	addiw	a2,a2,10
  fff1016566:	00c4143b          	sllw	s0,s0,a2
  fff101656a:	30a48493          	addi	s1,s1,778 # f30a <ROM_BASE-0xfff1000cf6>
  fff101656e:	4c31                	li	s8,12
  fff1016570:	000a5703          	lhu	a4,0(s4)
  fff1016574:	00ca0793          	addi	a5,s4,12
  fff1016578:	00971763          	bne	a4,s1,fff1016586 <spl+0x6506>
  fff101657c:	006a5703          	lhu	a4,6(s4)
  fff1016580:	e305                	bnez	a4,fff10165a0 <spl+0x6520>
  fff1016582:	0a0a1163          	bnez	s4,fff1016624 <spl+0x65a4>
  fff1016586:	00002517          	auipc	a0,0x2
  fff101658a:	a2a50513          	addi	a0,a0,-1494 # fff1017fb0 <spl+0x7f30>
  fff101658e:	cadfb0ef          	jal	ra,fff101223a <spl+0x21ba>
  fff1016592:	5429                	li	s0,-22
  fff1016594:	060b1a63          	bnez	s6,fff1016608 <spl+0x6588>
  fff1016598:	8556                	mv	a0,s5
  fff101659a:	b81ff0ef          	jal	ra,fff101611a <spl+0x609a>
  fff101659e:	a0ad                	j	fff1016608 <spl+0x6588>
  fff10165a0:	002a5503          	lhu	a0,2(s4)
  fff10165a4:	863e                	mv	a2,a5
  fff10165a6:	577d                	li	a4,-1
  fff10165a8:	86ba                	mv	a3,a4
  fff10165aa:	2705                	addiw	a4,a4,1
  fff10165ac:	00a75663          	bge	a4,a0,fff10165b8 <spl+0x6538>
  fff10165b0:	420c                	lw	a1,0(a2)
  fff10165b2:	0631                	addi	a2,a2,12
  fff10165b4:	febbfae3          	bgeu	s7,a1,fff10165a8 <spl+0x6528>
  fff10165b8:	e311                	bnez	a4,fff10165bc <spl+0x653c>
  fff10165ba:	4681                	li	a3,0
  fff10165bc:	038686b3          	mul	a3,a3,s8
  fff10165c0:	8622                	mv	a2,s0
  fff10165c2:	8556                	mv	a0,s5
  fff10165c4:	97b6                	add	a5,a5,a3
  fff10165c6:	0087d583          	lhu	a1,8(a5)
  fff10165ca:	02059713          	slli	a4,a1,0x20
  fff10165ce:	0047e583          	lwu	a1,4(a5)
  fff10165d2:	95ba                	add	a1,a1,a4
  fff10165d4:	012595b3          	sll	a1,a1,s2
  fff10165d8:	d79ff0ef          	jal	ra,fff1016350 <spl+0x62d0>
  fff10165dc:	d54d                	beqz	a0,fff1016586 <spl+0x6506>
  fff10165de:	000aba03          	ld	s4,0(s5)
  fff10165e2:	b779                	j	fff1016570 <spl+0x64f0>
  fff10165e4:	07b1                	addi	a5,a5,12
  fff10165e6:	04d9d263          	bge	s3,a3,fff101662a <spl+0x65aa>
  fff10165ea:	00665403          	lhu	s0,6(a2)
  fff10165ee:	00866a03          	lwu	s4,8(a2)
  fff10165f2:	02041913          	slli	s2,s0,0x20
  fff10165f6:	000b1563          	bnez	s6,fff1016600 <spl+0x6580>
  fff10165fa:	8556                	mv	a0,s5
  fff10165fc:	b1fff0ef          	jal	ra,fff101611a <spl+0x609a>
  fff1016600:	40998433          	sub	s0,s3,s1
  fff1016604:	9452                	add	s0,s0,s4
  fff1016606:	944a                	add	s0,s0,s2
  fff1016608:	70e6                	ld	ra,120(sp)
  fff101660a:	8522                	mv	a0,s0
  fff101660c:	7446                	ld	s0,112(sp)
  fff101660e:	74a6                	ld	s1,104(sp)
  fff1016610:	7906                	ld	s2,96(sp)
  fff1016612:	69e6                	ld	s3,88(sp)
  fff1016614:	6a46                	ld	s4,80(sp)
  fff1016616:	6aa6                	ld	s5,72(sp)
  fff1016618:	6b06                	ld	s6,64(sp)
  fff101661a:	7be2                	ld	s7,56(sp)
  fff101661c:	7c42                	ld	s8,48(sp)
  fff101661e:	7ca2                	ld	s9,40(sp)
  fff1016620:	6109                	addi	sp,sp,128
  fff1016622:	8082                	ret
  fff1016624:	002a5583          	lhu	a1,2(s4)
  fff1016628:	4701                	li	a4,0
  fff101662a:	00b75b63          	bge	a4,a1,fff1016640 <spl+0x65c0>
  fff101662e:	0007e483          	lwu	s1,0(a5)
  fff1016632:	0047d683          	lhu	a3,4(a5)
  fff1016636:	2705                	addiw	a4,a4,1
  fff1016638:	863e                	mv	a2,a5
  fff101663a:	96a6                	add	a3,a3,s1
  fff101663c:	fa99d4e3          	bge	s3,s1,fff10165e4 <spl+0x6564>
  fff1016640:	4401                	li	s0,0
  fff1016642:	bf89                	j	fff1016594 <spl+0x6514>
  fff1016644:	47ad                	li	a5,11
  fff1016646:	0137c963          	blt	a5,s3,fff1016658 <spl+0x65d8>
  fff101664a:	00898413          	addi	s0,s3,8
  fff101664e:	040a                	slli	s0,s0,0x2
  fff1016650:	9a22                	add	s4,s4,s0
  fff1016652:	008a6403          	lwu	s0,8(s4)
  fff1016656:	bf4d                	j	fff1016608 <spl+0x6588>
  fff1016658:	4b05                	li	s6,1
  fff101665a:	015b143b          	sllw	s0,s6,s5
  fff101665e:	4611                	li	a2,4
  fff1016660:	02c44bbb          	divw	s7,s0,a2
  fff1016664:	00002497          	auipc	s1,0x2
  fff1016668:	7244b483          	ld	s1,1828(s1) # fff1018d88 <spl+0x8d08>
  fff101666c:	6094                	ld	a3,0(s1)
  fff101666e:	8b22                	mv	s6,s0
  fff1016670:	00bb871b          	addiw	a4,s7,11
  fff1016674:	0f374263          	blt	a4,s3,fff1016758 <spl+0x66d8>
  fff1016678:	eea5                	bnez	a3,fff10166f0 <spl+0x6670>
  fff101667a:	85a2                	mv	a1,s0
  fff101667c:	02000513          	li	a0,32
  fff1016680:	af3fa0ef          	jal	ra,fff1011172 <spl+0x10f2>
  fff1016684:	8aaa                	mv	s5,a0
  fff1016686:	8622                	mv	a2,s0
  fff1016688:	4581                	li	a1,0
  fff101668a:	a06fa0ef          	jal	ra,fff1010890 <spl+0x810>
  fff101668e:	0154b023          	sd	s5,0(s1)
  fff1016692:	00002517          	auipc	a0,0x2
  fff1016696:	93650513          	addi	a0,a0,-1738 # fff1017fc8 <spl+0x7f48>
  fff101669a:	040a8763          	beqz	s5,fff10166e8 <spl+0x6668>
  fff101669e:	00002797          	auipc	a5,0x2
  fff10166a2:	64a7b783          	ld	a5,1610(a5) # fff1018ce8 <spl+0x8c68>
  fff10166a6:	c380                	sw	s0,0(a5)
  fff10166a8:	577d                	li	a4,-1
  fff10166aa:	00002797          	auipc	a5,0x2
  fff10166ae:	6367b783          	ld	a5,1590(a5) # fff1018ce0 <spl+0x8c60>
  fff10166b2:	c398                	sw	a4,0(a5)
  fff10166b4:	058a2503          	lw	a0,88(s4)
  fff10166b8:	00002a97          	auipc	s5,0x2
  fff10166bc:	628aba83          	ld	s5,1576(s5) # fff1018ce0 <spl+0x8c60>
  fff10166c0:	000aa783          	lw	a5,0(s5)
  fff10166c4:	0125173b          	sllw	a4,a0,s2
  fff10166c8:	08f70163          	beq	a4,a5,fff101674a <spl+0x66ca>
  fff10166cc:	1502                	slli	a0,a0,0x20
  fff10166ce:	6094                	ld	a3,0(s1)
  fff10166d0:	9101                	srli	a0,a0,0x20
  fff10166d2:	8622                	mv	a2,s0
  fff10166d4:	4581                	li	a1,0
  fff10166d6:	01251533          	sll	a0,a0,s2
  fff10166da:	2d7000ef          	jal	ra,fff10171b0 <spl+0x7130>
  fff10166de:	e125                	bnez	a0,fff101673e <spl+0x66be>
  fff10166e0:	00002517          	auipc	a0,0x2
  fff10166e4:	95850513          	addi	a0,a0,-1704 # fff1018038 <spl+0x7fb8>
  fff10166e8:	b53fb0ef          	jal	ra,fff101223a <spl+0x21ba>
  fff10166ec:	547d                	li	s0,-1
  fff10166ee:	bf29                	j	fff1016608 <spl+0x6588>
  fff10166f0:	00002b97          	auipc	s7,0x2
  fff10166f4:	5f8bbb83          	ld	s7,1528(s7) # fff1018ce8 <spl+0x8c68>
  fff10166f8:	000ba783          	lw	a5,0(s7)
  fff10166fc:	fa878ce3          	beq	a5,s0,fff10166b4 <spl+0x6634>
  fff1016700:	00002797          	auipc	a5,0x2
  fff1016704:	5e07b783          	ld	a5,1504(a5) # fff1018ce0 <spl+0x8c60>
  fff1016708:	577d                	li	a4,-1
  fff101670a:	85a2                	mv	a1,s0
  fff101670c:	02000513          	li	a0,32
  fff1016710:	c398                	sw	a4,0(a5)
  fff1016712:	0004b023          	sd	zero,0(s1)
  fff1016716:	000ba023          	sw	zero,0(s7)
  fff101671a:	a59fa0ef          	jal	ra,fff1011172 <spl+0x10f2>
  fff101671e:	8aaa                	mv	s5,a0
  fff1016720:	8622                	mv	a2,s0
  fff1016722:	4581                	li	a1,0
  fff1016724:	96cfa0ef          	jal	ra,fff1010890 <spl+0x810>
  fff1016728:	0154b023          	sd	s5,0(s1)
  fff101672c:	00002517          	auipc	a0,0x2
  fff1016730:	8d450513          	addi	a0,a0,-1836 # fff1018000 <spl+0x7f80>
  fff1016734:	fa0a8ae3          	beqz	s5,fff10166e8 <spl+0x6668>
  fff1016738:	008ba023          	sw	s0,0(s7)
  fff101673c:	bfa5                	j	fff10166b4 <spl+0x6634>
  fff101673e:	058a2783          	lw	a5,88(s4)
  fff1016742:	0127993b          	sllw	s2,a5,s2
  fff1016746:	012aa023          	sw	s2,0(s5)
  fff101674a:	609c                	ld	a5,0(s1)
  fff101674c:	00299413          	slli	s0,s3,0x2
  fff1016750:	943e                	add	s0,s0,a5
  fff1016752:	fd046403          	lwu	s0,-48(s0)
  fff1016756:	bd4d                	j	fff1016608 <spl+0x6588>
  fff1016758:	001b871b          	addiw	a4,s7,1
  fff101675c:	0377073b          	mulw	a4,a4,s7
  fff1016760:	00cb859b          	addiw	a1,s7,12
  fff1016764:	272d                	addiw	a4,a4,11
  fff1016766:	1d374163          	blt	a4,s3,fff1016928 <spl+0x68a8>
  fff101676a:	40b989bb          	subw	s3,s3,a1
  fff101676e:	eab5                	bnez	a3,fff10167e2 <spl+0x6762>
  fff1016770:	85a2                	mv	a1,s0
  fff1016772:	02000513          	li	a0,32
  fff1016776:	9fdfa0ef          	jal	ra,fff1011172 <spl+0x10f2>
  fff101677a:	8aaa                	mv	s5,a0
  fff101677c:	8622                	mv	a2,s0
  fff101677e:	4581                	li	a1,0
  fff1016780:	910fa0ef          	jal	ra,fff1010890 <spl+0x810>
  fff1016784:	0154b023          	sd	s5,0(s1)
  fff1016788:	000a9763          	bnez	s5,fff1016796 <spl+0x6716>
  fff101678c:	00002517          	auipc	a0,0x2
  fff1016790:	8dc50513          	addi	a0,a0,-1828 # fff1018068 <spl+0x7fe8>
  fff1016794:	bf91                	j	fff10166e8 <spl+0x6668>
  fff1016796:	00002797          	auipc	a5,0x2
  fff101679a:	5527b783          	ld	a5,1362(a5) # fff1018ce8 <spl+0x8c68>
  fff101679e:	c380                	sw	s0,0(a5)
  fff10167a0:	577d                	li	a4,-1
  fff10167a2:	00002797          	auipc	a5,0x2
  fff10167a6:	53e7b783          	ld	a5,1342(a5) # fff1018ce0 <spl+0x8c60>
  fff10167aa:	c398                	sw	a4,0(a5)
  fff10167ac:	05ca2503          	lw	a0,92(s4)
  fff10167b0:	00002a97          	auipc	s5,0x2
  fff10167b4:	530aba83          	ld	s5,1328(s5) # fff1018ce0 <spl+0x8c60>
  fff10167b8:	000aa783          	lw	a5,0(s5)
  fff10167bc:	0125173b          	sllw	a4,a0,s2
  fff10167c0:	06f70a63          	beq	a4,a5,fff1016834 <spl+0x67b4>
  fff10167c4:	1502                	slli	a0,a0,0x20
  fff10167c6:	6094                	ld	a3,0(s1)
  fff10167c8:	9101                	srli	a0,a0,0x20
  fff10167ca:	8622                	mv	a2,s0
  fff10167cc:	4581                	li	a1,0
  fff10167ce:	01251533          	sll	a0,a0,s2
  fff10167d2:	1df000ef          	jal	ra,fff10171b0 <spl+0x7130>
  fff10167d6:	e929                	bnez	a0,fff1016828 <spl+0x67a8>
  fff10167d8:	00002517          	auipc	a0,0x2
  fff10167dc:	8c850513          	addi	a0,a0,-1848 # fff10180a0 <spl+0x8020>
  fff10167e0:	b721                	j	fff10166e8 <spl+0x6668>
  fff10167e2:	00002c17          	auipc	s8,0x2
  fff10167e6:	506c3c03          	ld	s8,1286(s8) # fff1018ce8 <spl+0x8c68>
  fff10167ea:	000c2783          	lw	a5,0(s8)
  fff10167ee:	fa878fe3          	beq	a5,s0,fff10167ac <spl+0x672c>
  fff10167f2:	00002797          	auipc	a5,0x2
  fff10167f6:	4ee7b783          	ld	a5,1262(a5) # fff1018ce0 <spl+0x8c60>
  fff10167fa:	577d                	li	a4,-1
  fff10167fc:	85a2                	mv	a1,s0
  fff10167fe:	02000513          	li	a0,32
  fff1016802:	c398                	sw	a4,0(a5)
  fff1016804:	0004b023          	sd	zero,0(s1)
  fff1016808:	000c2023          	sw	zero,0(s8)
  fff101680c:	967fa0ef          	jal	ra,fff1011172 <spl+0x10f2>
  fff1016810:	8aaa                	mv	s5,a0
  fff1016812:	8622                	mv	a2,s0
  fff1016814:	4581                	li	a1,0
  fff1016816:	87afa0ef          	jal	ra,fff1010890 <spl+0x810>
  fff101681a:	0154b023          	sd	s5,0(s1)
  fff101681e:	f60a87e3          	beqz	s5,fff101678c <spl+0x670c>
  fff1016822:	008c2023          	sw	s0,0(s8)
  fff1016826:	b759                	j	fff10167ac <spl+0x672c>
  fff1016828:	05ca2783          	lw	a5,92(s4)
  fff101682c:	012797bb          	sllw	a5,a5,s2
  fff1016830:	00faa023          	sw	a5,0(s5)
  fff1016834:	00002a17          	auipc	s4,0x2
  fff1016838:	4e4a3a03          	ld	s4,1252(s4) # fff1018d18 <spl+0x8c98>
  fff101683c:	000a3783          	ld	a5,0(s4)
  fff1016840:	e3c1                	bnez	a5,fff10168c0 <spl+0x6840>
  fff1016842:	85a2                	mv	a1,s0
  fff1016844:	02000513          	li	a0,32
  fff1016848:	92bfa0ef          	jal	ra,fff1011172 <spl+0x10f2>
  fff101684c:	8aaa                	mv	s5,a0
  fff101684e:	8622                	mv	a2,s0
  fff1016850:	4581                	li	a1,0
  fff1016852:	83efa0ef          	jal	ra,fff1010890 <spl+0x810>
  fff1016856:	015a3023          	sd	s5,0(s4)
  fff101685a:	000a9763          	bnez	s5,fff1016868 <spl+0x67e8>
  fff101685e:	00002517          	auipc	a0,0x2
  fff1016862:	87250513          	addi	a0,a0,-1934 # fff10180d0 <spl+0x8050>
  fff1016866:	b549                	j	fff10166e8 <spl+0x6668>
  fff1016868:	00002797          	auipc	a5,0x2
  fff101686c:	5187b783          	ld	a5,1304(a5) # fff1018d80 <spl+0x8d00>
  fff1016870:	0167a023          	sw	s6,0(a5)
  fff1016874:	577d                	li	a4,-1
  fff1016876:	00002797          	auipc	a5,0x2
  fff101687a:	48a7b783          	ld	a5,1162(a5) # fff1018d00 <spl+0x8c80>
  fff101687e:	c398                	sw	a4,0(a5)
  fff1016880:	0379cab3          	div	s5,s3,s7
  fff1016884:	609c                	ld	a5,0(s1)
  fff1016886:	00002b17          	auipc	s6,0x2
  fff101688a:	47ab3b03          	ld	s6,1146(s6) # fff1018d00 <spl+0x8c80>
  fff101688e:	0a8a                	slli	s5,s5,0x2
  fff1016890:	97d6                	add	a5,a5,s5
  fff1016892:	4388                	lw	a0,0(a5)
  fff1016894:	000b2783          	lw	a5,0(s6)
  fff1016898:	0125173b          	sllw	a4,a0,s2
  fff101689c:	06f70d63          	beq	a4,a5,fff1016916 <spl+0x6896>
  fff10168a0:	1502                	slli	a0,a0,0x20
  fff10168a2:	000a3683          	ld	a3,0(s4)
  fff10168a6:	9101                	srli	a0,a0,0x20
  fff10168a8:	8622                	mv	a2,s0
  fff10168aa:	4581                	li	a1,0
  fff10168ac:	01251533          	sll	a0,a0,s2
  fff10168b0:	101000ef          	jal	ra,fff10171b0 <spl+0x7130>
  fff10168b4:	e929                	bnez	a0,fff1016906 <spl+0x6886>
  fff10168b6:	00002517          	auipc	a0,0x2
  fff10168ba:	85250513          	addi	a0,a0,-1966 # fff1018108 <spl+0x8088>
  fff10168be:	b52d                	j	fff10166e8 <spl+0x6668>
  fff10168c0:	00002c17          	auipc	s8,0x2
  fff10168c4:	4c0c3c03          	ld	s8,1216(s8) # fff1018d80 <spl+0x8d00>
  fff10168c8:	000c2783          	lw	a5,0(s8)
  fff10168cc:	fa878ae3          	beq	a5,s0,fff1016880 <spl+0x6800>
  fff10168d0:	00002797          	auipc	a5,0x2
  fff10168d4:	4307b783          	ld	a5,1072(a5) # fff1018d00 <spl+0x8c80>
  fff10168d8:	577d                	li	a4,-1
  fff10168da:	85a2                	mv	a1,s0
  fff10168dc:	02000513          	li	a0,32
  fff10168e0:	c398                	sw	a4,0(a5)
  fff10168e2:	000a3023          	sd	zero,0(s4)
  fff10168e6:	000c2023          	sw	zero,0(s8)
  fff10168ea:	889fa0ef          	jal	ra,fff1011172 <spl+0x10f2>
  fff10168ee:	8aaa                	mv	s5,a0
  fff10168f0:	8622                	mv	a2,s0
  fff10168f2:	4581                	li	a1,0
  fff10168f4:	f9df90ef          	jal	ra,fff1010890 <spl+0x810>
  fff10168f8:	015a3023          	sd	s5,0(s4)
  fff10168fc:	f60a81e3          	beqz	s5,fff101685e <spl+0x67de>
  fff1016900:	016c2023          	sw	s6,0(s8)
  fff1016904:	bfb5                	j	fff1016880 <spl+0x6800>
  fff1016906:	609c                	ld	a5,0(s1)
  fff1016908:	9abe                	add	s5,s5,a5
  fff101690a:	000aa783          	lw	a5,0(s5)
  fff101690e:	0127993b          	sllw	s2,a5,s2
  fff1016912:	012b2023          	sw	s2,0(s6)
  fff1016916:	0379e9b3          	rem	s3,s3,s7
  fff101691a:	000a3783          	ld	a5,0(s4)
  fff101691e:	098a                	slli	s3,s3,0x2
  fff1016920:	99be                	add	s3,s3,a5
  fff1016922:	0009e403          	lwu	s0,0(s3)
  fff1016926:	b1cd                	j	fff1016608 <spl+0x6588>
  fff1016928:	015b9abb          	sllw	s5,s7,s5
  fff101692c:	02cacabb          	divw	s5,s5,a2
  fff1016930:	00ba85bb          	addw	a1,s5,a1
  fff1016934:	037b8c3b          	mulw	s8,s7,s7
  fff1016938:	40b989bb          	subw	s3,s3,a1
  fff101693c:	eab5                	bnez	a3,fff10169b0 <spl+0x6930>
  fff101693e:	85a2                	mv	a1,s0
  fff1016940:	02000513          	li	a0,32
  fff1016944:	82ffa0ef          	jal	ra,fff1011172 <spl+0x10f2>
  fff1016948:	8aaa                	mv	s5,a0
  fff101694a:	8622                	mv	a2,s0
  fff101694c:	4581                	li	a1,0
  fff101694e:	f43f90ef          	jal	ra,fff1010890 <spl+0x810>
  fff1016952:	0154b023          	sd	s5,0(s1)
  fff1016956:	000a9763          	bnez	s5,fff1016964 <spl+0x68e4>
  fff101695a:	00001517          	auipc	a0,0x1
  fff101695e:	7de50513          	addi	a0,a0,2014 # fff1018138 <spl+0x80b8>
  fff1016962:	b359                	j	fff10166e8 <spl+0x6668>
  fff1016964:	00002797          	auipc	a5,0x2
  fff1016968:	3847b783          	ld	a5,900(a5) # fff1018ce8 <spl+0x8c68>
  fff101696c:	c380                	sw	s0,0(a5)
  fff101696e:	577d                	li	a4,-1
  fff1016970:	00002797          	auipc	a5,0x2
  fff1016974:	3707b783          	ld	a5,880(a5) # fff1018ce0 <spl+0x8c60>
  fff1016978:	c398                	sw	a4,0(a5)
  fff101697a:	060a2503          	lw	a0,96(s4)
  fff101697e:	00002a97          	auipc	s5,0x2
  fff1016982:	362aba83          	ld	s5,866(s5) # fff1018ce0 <spl+0x8c60>
  fff1016986:	000aa783          	lw	a5,0(s5)
  fff101698a:	0125173b          	sllw	a4,a0,s2
  fff101698e:	06f70a63          	beq	a4,a5,fff1016a02 <spl+0x6982>
  fff1016992:	1502                	slli	a0,a0,0x20
  fff1016994:	6094                	ld	a3,0(s1)
  fff1016996:	9101                	srli	a0,a0,0x20
  fff1016998:	8622                	mv	a2,s0
  fff101699a:	4581                	li	a1,0
  fff101699c:	01251533          	sll	a0,a0,s2
  fff10169a0:	011000ef          	jal	ra,fff10171b0 <spl+0x7130>
  fff10169a4:	e929                	bnez	a0,fff10169f6 <spl+0x6976>
  fff10169a6:	00001517          	auipc	a0,0x1
  fff10169aa:	7ca50513          	addi	a0,a0,1994 # fff1018170 <spl+0x80f0>
  fff10169ae:	bb2d                	j	fff10166e8 <spl+0x6668>
  fff10169b0:	00002c97          	auipc	s9,0x2
  fff10169b4:	338cbc83          	ld	s9,824(s9) # fff1018ce8 <spl+0x8c68>
  fff10169b8:	000ca783          	lw	a5,0(s9)
  fff10169bc:	fa878fe3          	beq	a5,s0,fff101697a <spl+0x68fa>
  fff10169c0:	00002797          	auipc	a5,0x2
  fff10169c4:	3207b783          	ld	a5,800(a5) # fff1018ce0 <spl+0x8c60>
  fff10169c8:	577d                	li	a4,-1
  fff10169ca:	85a2                	mv	a1,s0
  fff10169cc:	02000513          	li	a0,32
  fff10169d0:	c398                	sw	a4,0(a5)
  fff10169d2:	0004b023          	sd	zero,0(s1)
  fff10169d6:	000ca023          	sw	zero,0(s9)
  fff10169da:	f98fa0ef          	jal	ra,fff1011172 <spl+0x10f2>
  fff10169de:	8aaa                	mv	s5,a0
  fff10169e0:	8622                	mv	a2,s0
  fff10169e2:	4581                	li	a1,0
  fff10169e4:	eadf90ef          	jal	ra,fff1010890 <spl+0x810>
  fff10169e8:	0154b023          	sd	s5,0(s1)
  fff10169ec:	f60a87e3          	beqz	s5,fff101695a <spl+0x68da>
  fff10169f0:	008ca023          	sw	s0,0(s9)
  fff10169f4:	b759                	j	fff101697a <spl+0x68fa>
  fff10169f6:	060a2783          	lw	a5,96(s4)
  fff10169fa:	012797bb          	sllw	a5,a5,s2
  fff10169fe:	00faa023          	sw	a5,0(s5)
  fff1016a02:	00002a97          	auipc	s5,0x2
  fff1016a06:	316aba83          	ld	s5,790(s5) # fff1018d18 <spl+0x8c98>
  fff1016a0a:	000ab783          	ld	a5,0(s5)
  fff1016a0e:	e3c9                	bnez	a5,fff1016a90 <spl+0x6a10>
  fff1016a10:	85a2                	mv	a1,s0
  fff1016a12:	02000513          	li	a0,32
  fff1016a16:	f5cfa0ef          	jal	ra,fff1011172 <spl+0x10f2>
  fff1016a1a:	8a2a                	mv	s4,a0
  fff1016a1c:	8622                	mv	a2,s0
  fff1016a1e:	4581                	li	a1,0
  fff1016a20:	e71f90ef          	jal	ra,fff1010890 <spl+0x810>
  fff1016a24:	014ab023          	sd	s4,0(s5)
  fff1016a28:	000a1763          	bnez	s4,fff1016a36 <spl+0x69b6>
  fff1016a2c:	00001517          	auipc	a0,0x1
  fff1016a30:	77450513          	addi	a0,a0,1908 # fff10181a0 <spl+0x8120>
  fff1016a34:	b955                	j	fff10166e8 <spl+0x6668>
  fff1016a36:	00002797          	auipc	a5,0x2
  fff1016a3a:	34a7b783          	ld	a5,842(a5) # fff1018d80 <spl+0x8d00>
  fff1016a3e:	0167a023          	sw	s6,0(a5)
  fff1016a42:	577d                	li	a4,-1
  fff1016a44:	00002797          	auipc	a5,0x2
  fff1016a48:	2bc7b783          	ld	a5,700(a5) # fff1018d00 <spl+0x8c80>
  fff1016a4c:	c398                	sw	a4,0(a5)
  fff1016a4e:	0389c7b3          	div	a5,s3,s8
  fff1016a52:	00002c17          	auipc	s8,0x2
  fff1016a56:	2aec3c03          	ld	s8,686(s8) # fff1018d00 <spl+0x8c80>
  fff1016a5a:	00279a13          	slli	s4,a5,0x2
  fff1016a5e:	609c                	ld	a5,0(s1)
  fff1016a60:	97d2                	add	a5,a5,s4
  fff1016a62:	4388                	lw	a0,0(a5)
  fff1016a64:	000c2783          	lw	a5,0(s8)
  fff1016a68:	0125173b          	sllw	a4,a0,s2
  fff1016a6c:	06f70d63          	beq	a4,a5,fff1016ae6 <spl+0x6a66>
  fff1016a70:	1502                	slli	a0,a0,0x20
  fff1016a72:	000ab683          	ld	a3,0(s5)
  fff1016a76:	9101                	srli	a0,a0,0x20
  fff1016a78:	8622                	mv	a2,s0
  fff1016a7a:	4581                	li	a1,0
  fff1016a7c:	01251533          	sll	a0,a0,s2
  fff1016a80:	730000ef          	jal	ra,fff10171b0 <spl+0x7130>
  fff1016a84:	e929                	bnez	a0,fff1016ad6 <spl+0x6a56>
  fff1016a86:	00001517          	auipc	a0,0x1
  fff1016a8a:	75250513          	addi	a0,a0,1874 # fff10181d8 <spl+0x8158>
  fff1016a8e:	b9a9                	j	fff10166e8 <spl+0x6668>
  fff1016a90:	00002c97          	auipc	s9,0x2
  fff1016a94:	2f0cbc83          	ld	s9,752(s9) # fff1018d80 <spl+0x8d00>
  fff1016a98:	000ca783          	lw	a5,0(s9)
  fff1016a9c:	fa8789e3          	beq	a5,s0,fff1016a4e <spl+0x69ce>
  fff1016aa0:	00002797          	auipc	a5,0x2
  fff1016aa4:	2607b783          	ld	a5,608(a5) # fff1018d00 <spl+0x8c80>
  fff1016aa8:	577d                	li	a4,-1
  fff1016aaa:	85a2                	mv	a1,s0
  fff1016aac:	02000513          	li	a0,32
  fff1016ab0:	c398                	sw	a4,0(a5)
  fff1016ab2:	000ab023          	sd	zero,0(s5)
  fff1016ab6:	000ca023          	sw	zero,0(s9)
  fff1016aba:	eb8fa0ef          	jal	ra,fff1011172 <spl+0x10f2>
  fff1016abe:	8a2a                	mv	s4,a0
  fff1016ac0:	8622                	mv	a2,s0
  fff1016ac2:	4581                	li	a1,0
  fff1016ac4:	dcdf90ef          	jal	ra,fff1010890 <spl+0x810>
  fff1016ac8:	014ab023          	sd	s4,0(s5)
  fff1016acc:	f60a00e3          	beqz	s4,fff1016a2c <spl+0x69ac>
  fff1016ad0:	016ca023          	sw	s6,0(s9)
  fff1016ad4:	bfad                	j	fff1016a4e <spl+0x69ce>
  fff1016ad6:	609c                	ld	a5,0(s1)
  fff1016ad8:	9a3e                	add	s4,s4,a5
  fff1016ada:	000a2783          	lw	a5,0(s4)
  fff1016ade:	012797bb          	sllw	a5,a5,s2
  fff1016ae2:	00fc2023          	sw	a5,0(s8)
  fff1016ae6:	00002a17          	auipc	s4,0x2
  fff1016aea:	23aa3a03          	ld	s4,570(s4) # fff1018d20 <spl+0x8ca0>
  fff1016aee:	000a3783          	ld	a5,0(s4)
  fff1016af2:	ebd1                	bnez	a5,fff1016b86 <spl+0x6b06>
  fff1016af4:	85a2                	mv	a1,s0
  fff1016af6:	02000513          	li	a0,32
  fff1016afa:	e78fa0ef          	jal	ra,fff1011172 <spl+0x10f2>
  fff1016afe:	84aa                	mv	s1,a0
  fff1016b00:	8622                	mv	a2,s0
  fff1016b02:	4581                	li	a1,0
  fff1016b04:	d8df90ef          	jal	ra,fff1010890 <spl+0x810>
  fff1016b08:	009a3023          	sd	s1,0(s4)
  fff1016b0c:	d085                	beqz	s1,fff1016a2c <spl+0x69ac>
  fff1016b0e:	00002797          	auipc	a5,0x2
  fff1016b12:	2627b783          	ld	a5,610(a5) # fff1018d70 <spl+0x8cf0>
  fff1016b16:	0167a023          	sw	s6,0(a5)
  fff1016b1a:	577d                	li	a4,-1
  fff1016b1c:	00002797          	auipc	a5,0x2
  fff1016b20:	1847b783          	ld	a5,388(a5) # fff1018ca0 <spl+0x8c20>
  fff1016b24:	c398                	sw	a4,0(a5)
  fff1016b26:	0379c4b3          	div	s1,s3,s7
  fff1016b2a:	000ab783          	ld	a5,0(s5)
  fff1016b2e:	00002b17          	auipc	s6,0x2
  fff1016b32:	172b3b03          	ld	s6,370(s6) # fff1018ca0 <spl+0x8c20>
  fff1016b36:	000b2683          	lw	a3,0(s6)
  fff1016b3a:	00249713          	slli	a4,s1,0x2
  fff1016b3e:	973e                	add	a4,a4,a5
  fff1016b40:	4318                	lw	a4,0(a4)
  fff1016b42:	0127173b          	sllw	a4,a4,s2
  fff1016b46:	02d70963          	beq	a4,a3,fff1016b78 <spl+0x6af8>
  fff1016b4a:	0374e4b3          	rem	s1,s1,s7
  fff1016b4e:	000a3683          	ld	a3,0(s4)
  fff1016b52:	8622                	mv	a2,s0
  fff1016b54:	4581                	li	a1,0
  fff1016b56:	048a                	slli	s1,s1,0x2
  fff1016b58:	97a6                	add	a5,a5,s1
  fff1016b5a:	0007e503          	lwu	a0,0(a5)
  fff1016b5e:	01251533          	sll	a0,a0,s2
  fff1016b62:	64e000ef          	jal	ra,fff10171b0 <spl+0x7130>
  fff1016b66:	d105                	beqz	a0,fff1016a86 <spl+0x6a06>
  fff1016b68:	000ab783          	ld	a5,0(s5)
  fff1016b6c:	94be                	add	s1,s1,a5
  fff1016b6e:	409c                	lw	a5,0(s1)
  fff1016b70:	0127993b          	sllw	s2,a5,s2
  fff1016b74:	012b2023          	sw	s2,0(s6)
  fff1016b78:	0379e9b3          	rem	s3,s3,s7
  fff1016b7c:	000a3b83          	ld	s7,0(s4)
  fff1016b80:	098a                	slli	s3,s3,0x2
  fff1016b82:	99de                	add	s3,s3,s7
  fff1016b84:	bb79                	j	fff1016922 <spl+0x68a2>
  fff1016b86:	00002c17          	auipc	s8,0x2
  fff1016b8a:	1eac3c03          	ld	s8,490(s8) # fff1018d70 <spl+0x8cf0>
  fff1016b8e:	000c2783          	lw	a5,0(s8)
  fff1016b92:	f8878ae3          	beq	a5,s0,fff1016b26 <spl+0x6aa6>
  fff1016b96:	00002797          	auipc	a5,0x2
  fff1016b9a:	10a7b783          	ld	a5,266(a5) # fff1018ca0 <spl+0x8c20>
  fff1016b9e:	577d                	li	a4,-1
  fff1016ba0:	85a2                	mv	a1,s0
  fff1016ba2:	02000513          	li	a0,32
  fff1016ba6:	c398                	sw	a4,0(a5)
  fff1016ba8:	000a3023          	sd	zero,0(s4)
  fff1016bac:	000c2023          	sw	zero,0(s8)
  fff1016bb0:	dc2fa0ef          	jal	ra,fff1011172 <spl+0x10f2>
  fff1016bb4:	84aa                	mv	s1,a0
  fff1016bb6:	8622                	mv	a2,s0
  fff1016bb8:	4581                	li	a1,0
  fff1016bba:	cd7f90ef          	jal	ra,fff1010890 <spl+0x810>
  fff1016bbe:	009a3023          	sd	s1,0(s4)
  fff1016bc2:	e60485e3          	beqz	s1,fff1016a2c <spl+0x69ac>
  fff1016bc6:	016c2023          	sw	s6,0(s8)
  fff1016bca:	bfb1                	j	fff1016b26 <spl+0x6aa6>
  fff1016bcc:	7175                	addi	sp,sp,-144
  fff1016bce:	e122                	sd	s0,128(sp)
  fff1016bd0:	f8ca                	sd	s2,112(sp)
  fff1016bd2:	f4ce                	sd	s3,104(sp)
  fff1016bd4:	f0d2                	sd	s4,96(sp)
  fff1016bd6:	e8da                	sd	s6,80(sp)
  fff1016bd8:	e506                	sd	ra,136(sp)
  fff1016bda:	fca6                	sd	s1,120(sp)
  fff1016bdc:	ecd6                	sd	s5,88(sp)
  fff1016bde:	e4de                	sd	s7,72(sp)
  fff1016be0:	e0e2                	sd	s8,64(sp)
  fff1016be2:	fc66                	sd	s9,56(sp)
  fff1016be4:	f86a                	sd	s10,48(sp)
  fff1016be6:	f46e                	sd	s11,40(sp)
  fff1016be8:	0900                	addi	s0,sp,144
  fff1016bea:	08c52783          	lw	a5,140(a0)
  fff1016bee:	892a                	mv	s2,a0
  fff1016bf0:	89ae                	mv	s3,a1
  fff1016bf2:	8a32                	mv	s4,a2
  fff1016bf4:	8b36                	mv	s6,a3
  fff1016bf6:	14079e63          	bnez	a5,fff1016d52 <spl+0x6cd2>
  fff1016bfa:	08852583          	lw	a1,136(a0)
  fff1016bfe:	00850613          	addi	a2,a0,8
  fff1016c02:	6108                	ld	a0,0(a0)
  fff1016c04:	fd4ff0ef          	jal	ra,fff10163d8 <spl+0x6358>
  fff1016c08:	14051563          	bnez	a0,fff1016d52 <spl+0x6cd2>
  fff1016c0c:	4501                	li	a0,0
  fff1016c0e:	a055                	j	fff1016cb2 <spl+0x6c32>
  fff1016c10:	f8e44603          	lbu	a2,-114(s0)
  fff1016c14:	16060a63          	beqz	a2,fff1016d88 <spl+0x6d08>
  fff1016c18:	01060793          	addi	a5,a2,16
  fff1016c1c:	1f07f793          	andi	a5,a5,496
  fff1016c20:	8c0a                	mv	s8,sp
  fff1016c22:	40f10133          	sub	sp,sp,a5
  fff1016c26:	876a                	mv	a4,s10
  fff1016c28:	868a                	mv	a3,sp
  fff1016c2a:	00848593          	addi	a1,s1,8
  fff1016c2e:	854a                	mv	a0,s2
  fff1016c30:	8c8a                	mv	s9,sp
  fff1016c32:	cecff0ef          	jal	ra,fff101611e <spl+0x609e>
  fff1016c36:	10054c63          	bltz	a0,fff1016d4e <spl+0x6cce>
  fff1016c3a:	09000593          	li	a1,144
  fff1016c3e:	02000513          	li	a0,32
  fff1016c42:	d30fa0ef          	jal	ra,fff1011172 <spl+0x10f2>
  fff1016c46:	84aa                	mv	s1,a0
  fff1016c48:	09000613          	li	a2,144
  fff1016c4c:	4581                	li	a1,0
  fff1016c4e:	c43f90ef          	jal	ra,fff1010890 <spl+0x810>
  fff1016c52:	0e048e63          	beqz	s1,fff1016d4e <spl+0x6cce>
  fff1016c56:	00093783          	ld	a5,0(s2)
  fff1016c5a:	e09c                	sd	a5,0(s1)
  fff1016c5c:	f8842583          	lw	a1,-120(s0)
  fff1016c60:	f8e44783          	lbu	a5,-114(s0)
  fff1016c64:	f8f44703          	lbu	a4,-113(s0)
  fff1016c68:	08b4a423          	sw	a1,136(s1)
  fff1016c6c:	978a                	add	a5,a5,sp
  fff1016c6e:	00078023          	sb	zero,0(a5)
  fff1016c72:	c32d                	beqz	a4,fff1016cd4 <spl+0x6c54>
  fff1016c74:	0804a623          	sw	zero,140(s1)
  fff1016c78:	4689                	li	a3,2
  fff1016c7a:	4d89                	li	s11,2
  fff1016c7c:	00d70a63          	beq	a4,a3,fff1016c90 <spl+0x6c10>
  fff1016c80:	469d                	li	a3,7
  fff1016c82:	4d9d                	li	s11,7
  fff1016c84:	00d70663          	beq	a4,a3,fff1016c90 <spl+0x6c10>
  fff1016c88:	fff70793          	addi	a5,a4,-1 # 7ffff <ROM_BASE-0xfff0f90001>
  fff1016c8c:	0017bd93          	seqz	s11,a5
  fff1016c90:	08098963          	beqz	s3,fff1016d22 <spl+0x6ca2>
  fff1016c94:	080a0763          	beqz	s4,fff1016d22 <spl+0x6ca2>
  fff1016c98:	080b0263          	beqz	s6,fff1016d1c <spl+0x6c9c>
  fff1016c9c:	85ce                	mv	a1,s3
  fff1016c9e:	8566                	mv	a0,s9
  fff1016ca0:	85afb0ef          	jal	ra,fff1011cfa <spl+0x1c7a>
  fff1016ca4:	e16d                	bnez	a0,fff1016d86 <spl+0x6d06>
  fff1016ca6:	01bb2023          	sw	s11,0(s6)
  fff1016caa:	009a3023          	sd	s1,0(s4)
  fff1016cae:	4505                	li	a0,1
  fff1016cb0:	8162                	mv	sp,s8
  fff1016cb2:	f7040113          	addi	sp,s0,-144
  fff1016cb6:	60aa                	ld	ra,136(sp)
  fff1016cb8:	640a                	ld	s0,128(sp)
  fff1016cba:	74e6                	ld	s1,120(sp)
  fff1016cbc:	7946                	ld	s2,112(sp)
  fff1016cbe:	79a6                	ld	s3,104(sp)
  fff1016cc0:	7a06                	ld	s4,96(sp)
  fff1016cc2:	6ae6                	ld	s5,88(sp)
  fff1016cc4:	6b46                	ld	s6,80(sp)
  fff1016cc6:	6ba6                	ld	s7,72(sp)
  fff1016cc8:	6c06                	ld	s8,64(sp)
  fff1016cca:	7ce2                	ld	s9,56(sp)
  fff1016ccc:	7d42                	ld	s10,48(sp)
  fff1016cce:	7da2                	ld	s11,40(sp)
  fff1016cd0:	6149                	addi	sp,sp,144
  fff1016cd2:	8082                	ret
  fff1016cd4:	00093503          	ld	a0,0(s2)
  fff1016cd8:	00848613          	addi	a2,s1,8
  fff1016cdc:	efcff0ef          	jal	ra,fff10163d8 <spl+0x6358>
  fff1016ce0:	c53d                	beqz	a0,fff1016d4e <spl+0x6cce>
  fff1016ce2:	0084d703          	lhu	a4,8(s1)
  fff1016ce6:	67bd                	lui	a5,0xf
  fff1016ce8:	0974a623          	sw	s7,140(s1)
  fff1016cec:	8ff9                	and	a5,a5,a4
  fff1016cee:	6711                	lui	a4,0x4
  fff1016cf0:	06e78a63          	beq	a5,a4,fff1016d64 <spl+0x6ce4>
  fff1016cf4:	6729                	lui	a4,0xa
  fff1016cf6:	0ce78a63          	beq	a5,a4,fff1016dca <spl+0x6d4a>
  fff1016cfa:	6721                	lui	a4,0x8
  fff1016cfc:	8f99                	sub	a5,a5,a4
  fff1016cfe:	0017bd93          	seqz	s11,a5
  fff1016d02:	0c099763          	bnez	s3,fff1016dd0 <spl+0x6d50>
  fff1016d06:	00001517          	auipc	a0,0x1
  fff1016d0a:	e4a50513          	addi	a0,a0,-438 # fff1017b50 <spl+0x7ad0>
  fff1016d0e:	077d9263          	bne	s11,s7,fff1016d72 <spl+0x6cf2>
  fff1016d12:	00001517          	auipc	a0,0x1
  fff1016d16:	e3650513          	addi	a0,a0,-458 # fff1017b48 <spl+0x7ac8>
  fff1016d1a:	a8a1                	j	fff1016d72 <spl+0x6cf2>
  fff1016d1c:	08c4a703          	lw	a4,140(s1)
  fff1016d20:	ef01                	bnez	a4,fff1016d38 <spl+0x6cb8>
  fff1016d22:	f8842583          	lw	a1,-120(s0)
  fff1016d26:	00093503          	ld	a0,0(s2)
  fff1016d2a:	00848613          	addi	a2,s1,8
  fff1016d2e:	eaaff0ef          	jal	ra,fff10163d8 <spl+0x6358>
  fff1016d32:	cd11                	beqz	a0,fff1016d4e <spl+0x6cce>
  fff1016d34:	0974a623          	sw	s7,140(s1)
  fff1016d38:	4709                	li	a4,2
  fff1016d3a:	02ed8863          	beq	s11,a4,fff1016d6a <spl+0x6cea>
  fff1016d3e:	471d                	li	a4,7
  fff1016d40:	fced93e3          	bne	s11,a4,fff1016d06 <spl+0x6c86>
  fff1016d44:	00001517          	auipc	a0,0x1
  fff1016d48:	dfc50513          	addi	a0,a0,-516 # fff1017b40 <spl+0x7ac0>
  fff1016d4c:	a01d                	j	fff1016d72 <spl+0x6cf2>
  fff1016d4e:	4501                	li	a0,0
  fff1016d50:	b785                	j	fff1016cb0 <spl+0x6c30>
  fff1016d52:	f8840793          	addi	a5,s0,-120
  fff1016d56:	4a81                	li	s5,0
  fff1016d58:	f8040d13          	addi	s10,s0,-128
  fff1016d5c:	f6f43c23          	sd	a5,-136(s0)
  fff1016d60:	4b85                	li	s7,1
  fff1016d62:	a03d                	j	fff1016d90 <spl+0x6d10>
  fff1016d64:	4d89                	li	s11,2
  fff1016d66:	06099563          	bnez	s3,fff1016dd0 <spl+0x6d50>
  fff1016d6a:	00001517          	auipc	a0,0x1
  fff1016d6e:	dce50513          	addi	a0,a0,-562 # fff1017b38 <spl+0x7ab8>
  fff1016d72:	cc8fb0ef          	jal	ra,fff101223a <spl+0x21ba>
  fff1016d76:	44cc                	lw	a1,12(s1)
  fff1016d78:	8666                	mv	a2,s9
  fff1016d7a:	00001517          	auipc	a0,0x1
  fff1016d7e:	dde50513          	addi	a0,a0,-546 # fff1017b58 <spl+0x7ad8>
  fff1016d82:	cb8fb0ef          	jal	ra,fff101223a <spl+0x21ba>
  fff1016d86:	8162                	mv	sp,s8
  fff1016d88:	f8c45783          	lhu	a5,-116(s0)
  fff1016d8c:	01578abb          	addw	s5,a5,s5
  fff1016d90:	00c92783          	lw	a5,12(s2)
  fff1016d94:	e6fafce3          	bgeu	s5,a5,fff1016c0c <spl+0x6b8c>
  fff1016d98:	020a9493          	slli	s1,s5,0x20
  fff1016d9c:	f7843683          	ld	a3,-136(s0)
  fff1016da0:	9081                	srli	s1,s1,0x20
  fff1016da2:	876a                	mv	a4,s10
  fff1016da4:	4621                	li	a2,8
  fff1016da6:	85a6                	mv	a1,s1
  fff1016da8:	854a                	mv	a0,s2
  fff1016daa:	b74ff0ef          	jal	ra,fff101611e <spl+0x609e>
  fff1016dae:	e4054fe3          	bltz	a0,fff1016c0c <spl+0x6b8c>
  fff1016db2:	f8c45783          	lhu	a5,-116(s0)
  fff1016db6:	e4079de3          	bnez	a5,fff1016c10 <spl+0x6b90>
  fff1016dba:	85ce                	mv	a1,s3
  fff1016dbc:	00001517          	auipc	a0,0x1
  fff1016dc0:	d5450513          	addi	a0,a0,-684 # fff1017b10 <spl+0x7a90>
  fff1016dc4:	c76fb0ef          	jal	ra,fff101223a <spl+0x21ba>
  fff1016dc8:	b591                	j	fff1016c0c <spl+0x6b8c>
  fff1016dca:	4d9d                	li	s11,7
  fff1016dcc:	f6098ce3          	beqz	s3,fff1016d44 <spl+0x6cc4>
  fff1016dd0:	f60a04e3          	beqz	s4,fff1016d38 <spl+0x6cb8>
  fff1016dd4:	b5d1                	j	fff1016c98 <spl+0x6c18>
  fff1016dd6:	7135                	addi	sp,sp,-160
  fff1016dd8:	ed06                	sd	ra,152(sp)
  fff1016dda:	e922                	sd	s0,144(sp)
  fff1016ddc:	e526                	sd	s1,136(sp)
  fff1016dde:	1100                	addi	s0,sp,160
  fff1016de0:	e14a                	sd	s2,128(sp)
  fff1016de2:	f8d2                	sd	s4,112(sp)
  fff1016de4:	f4d6                	sd	s5,104(sp)
  fff1016de6:	fcce                	sd	s3,120(sp)
  fff1016de8:	f0da                	sd	s6,96(sp)
  fff1016dea:	ecde                	sd	s7,88(sp)
  fff1016dec:	e8e2                	sd	s8,80(sp)
  fff1016dee:	e4e6                	sd	s9,72(sp)
  fff1016df0:	e0ea                	sd	s10,64(sp)
  fff1016df2:	fc6e                	sd	s11,56(sp)
  fff1016df4:	84ae                	mv	s1,a1
  fff1016df6:	892a                	mv	s2,a0
  fff1016df8:	8ab2                	mv	s5,a2
  fff1016dfa:	f6d43423          	sd	a3,-152(s0)
  fff1016dfe:	f2bfa0ef          	jal	ra,fff1011d28 <spl+0x1ca8>
  fff1016e02:	01050793          	addi	a5,a0,16
  fff1016e06:	9bc1                	andi	a5,a5,-16
  fff1016e08:	40f10133          	sub	sp,sp,a5
  fff1016e0c:	854a                	mv	a0,s2
  fff1016e0e:	4789                	li	a5,2
  fff1016e10:	f6f42e23          	sw	a5,-132(s0)
  fff1016e14:	f8943023          	sd	s1,-128(s0)
  fff1016e18:	f11fa0ef          	jal	ra,fff1011d28 <spl+0x1ca8>
  fff1016e1c:	00150613          	addi	a2,a0,1
  fff1016e20:	85ca                	mv	a1,s2
  fff1016e22:	850a                	mv	a0,sp
  fff1016e24:	ebbfa0ef          	jal	ra,fff1011cde <spl+0x1c5e>
  fff1016e28:	8a0a                	mv	s4,sp
  fff1016e2a:	02f00713          	li	a4,47
  fff1016e2e:	000a4783          	lbu	a5,0(s4)
  fff1016e32:	06e78863          	beq	a5,a4,fff1016ea2 <spl+0x6e22>
  fff1016e36:	cba5                	beqz	a5,fff1016ea6 <spl+0x6e26>
  fff1016e38:	f7c40b13          	addi	s6,s0,-132
  fff1016e3c:	f8040b93          	addi	s7,s0,-128
  fff1016e40:	ffff9c17          	auipc	s8,0xffff9
  fff1016e44:	348c0c13          	addi	s8,s8,840 # fff1010188 <spl+0x108>
  fff1016e48:	00002d17          	auipc	s10,0x2
  fff1016e4c:	f80d3d03          	ld	s10,-128(s10) # fff1018dc8 <spl+0x8d48>
  fff1016e50:	f8840d93          	addi	s11,s0,-120
  fff1016e54:	02f00593          	li	a1,47
  fff1016e58:	8552                	mv	a0,s4
  fff1016e5a:	eb7fa0ef          	jal	ra,fff1011d10 <spl+0x1c90>
  fff1016e5e:	89aa                	mv	s3,a0
  fff1016e60:	02f00793          	li	a5,47
  fff1016e64:	ed21                	bnez	a0,fff1016ebc <spl+0x6e3c>
  fff1016e66:	f7c42783          	lw	a5,-132(s0)
  fff1016e6a:	4709                	li	a4,2
  fff1016e6c:	f8043903          	ld	s2,-128(s0)
  fff1016e70:	04e78b63          	beq	a5,a4,fff1016ec6 <spl+0x6e46>
  fff1016e74:	85a6                	mv	a1,s1
  fff1016e76:	854a                	mv	a0,s2
  fff1016e78:	a98ff0ef          	jal	ra,fff1016110 <spl+0x6090>
  fff1016e7c:	4a01                	li	s4,0
  fff1016e7e:	f6040113          	addi	sp,s0,-160
  fff1016e82:	60ea                	ld	ra,152(sp)
  fff1016e84:	8552                	mv	a0,s4
  fff1016e86:	644a                	ld	s0,144(sp)
  fff1016e88:	64aa                	ld	s1,136(sp)
  fff1016e8a:	690a                	ld	s2,128(sp)
  fff1016e8c:	79e6                	ld	s3,120(sp)
  fff1016e8e:	7a46                	ld	s4,112(sp)
  fff1016e90:	7aa6                	ld	s5,104(sp)
  fff1016e92:	7b06                	ld	s6,96(sp)
  fff1016e94:	6be6                	ld	s7,88(sp)
  fff1016e96:	6c46                	ld	s8,80(sp)
  fff1016e98:	6ca6                	ld	s9,72(sp)
  fff1016e9a:	6d06                	ld	s10,64(sp)
  fff1016e9c:	7de2                	ld	s11,56(sp)
  fff1016e9e:	610d                	addi	sp,sp,160
  fff1016ea0:	8082                	ret
  fff1016ea2:	0a05                	addi	s4,s4,1
  fff1016ea4:	b769                	j	fff1016e2e <spl+0x6dae>
  fff1016ea6:	f8043783          	ld	a5,-128(s0)
  fff1016eaa:	00fab023          	sd	a5,0(s5)
  fff1016eae:	4a05                	li	s4,1
  fff1016eb0:	b7f9                	j	fff1016e7e <spl+0x6dfe>
  fff1016eb2:	8a4e                	mv	s4,s3
  fff1016eb4:	b745                	j	fff1016e54 <spl+0x6dd4>
  fff1016eb6:	0985                	addi	s3,s3,1
  fff1016eb8:	fe098fa3          	sb	zero,-1(s3)
  fff1016ebc:	0009c703          	lbu	a4,0(s3)
  fff1016ec0:	fef70be3          	beq	a4,a5,fff1016eb6 <spl+0x6e36>
  fff1016ec4:	b74d                	j	fff1016e66 <spl+0x6de6>
  fff1016ec6:	85d2                	mv	a1,s4
  fff1016ec8:	86da                	mv	a3,s6
  fff1016eca:	865e                	mv	a2,s7
  fff1016ecc:	854a                	mv	a0,s2
  fff1016ece:	cffff0ef          	jal	ra,fff1016bcc <spl+0x6b4c>
  fff1016ed2:	8a2a                	mv	s4,a0
  fff1016ed4:	d54d                	beqz	a0,fff1016e7e <spl+0x6dfe>
  fff1016ed6:	57fd                	li	a5,-1
  fff1016ed8:	faf503e3          	beq	a0,a5,fff1016e7e <spl+0x6dfe>
  fff1016edc:	f7c42783          	lw	a5,-132(s0)
  fff1016ee0:	471d                	li	a4,7
  fff1016ee2:	0ee79663          	bne	a5,a4,fff1016fce <spl+0x6f4e>
  fff1016ee6:	000c2783          	lw	a5,0(s8)
  fff1016eea:	4721                	li	a4,8
  fff1016eec:	f8043c83          	ld	s9,-128(s0)
  fff1016ef0:	0017869b          	addiw	a3,a5,1
  fff1016ef4:	00dc2023          	sw	a3,0(s8)
  fff1016ef8:	00e69763          	bne	a3,a4,fff1016f06 <spl+0x6e86>
  fff1016efc:	85a6                	mv	a1,s1
  fff1016efe:	8566                	mv	a0,s9
  fff1016f00:	a10ff0ef          	jal	ra,fff1016110 <spl+0x6090>
  fff1016f04:	bf85                	j	fff1016e74 <spl+0x6df4>
  fff1016f06:	08cca703          	lw	a4,140(s9)
  fff1016f0a:	c331                	beqz	a4,fff1016f4e <spl+0x6ece>
  fff1016f0c:	00cca603          	lw	a2,12(s9)
  fff1016f10:	02000513          	li	a0,32
  fff1016f14:	2605                	addiw	a2,a2,1
  fff1016f16:	1602                	slli	a2,a2,0x20
  fff1016f18:	9201                	srli	a2,a2,0x20
  fff1016f1a:	85b2                	mv	a1,a2
  fff1016f1c:	f6c43023          	sd	a2,-160(s0)
  fff1016f20:	a52fa0ef          	jal	ra,fff1011172 <spl+0x10f2>
  fff1016f24:	f6043603          	ld	a2,-160(s0)
  fff1016f28:	8a2a                	mv	s4,a0
  fff1016f2a:	4581                	li	a1,0
  fff1016f2c:	965f90ef          	jal	ra,fff1010890 <spl+0x810>
  fff1016f30:	020a1963          	bnez	s4,fff1016f62 <spl+0x6ee2>
  fff1016f34:	4a01                	li	s4,0
  fff1016f36:	f8043503          	ld	a0,-128(s0)
  fff1016f3a:	85a6                	mv	a1,s1
  fff1016f3c:	9d4ff0ef          	jal	ra,fff1016110 <spl+0x6090>
  fff1016f40:	060a1163          	bnez	s4,fff1016fa2 <spl+0x6f22>
  fff1016f44:	85a6                	mv	a1,s1
  fff1016f46:	854a                	mv	a0,s2
  fff1016f48:	9c8ff0ef          	jal	ra,fff1016110 <spl+0x6090>
  fff1016f4c:	bf0d                	j	fff1016e7e <spl+0x6dfe>
  fff1016f4e:	088ca583          	lw	a1,136(s9)
  fff1016f52:	000cb503          	ld	a0,0(s9)
  fff1016f56:	008c8613          	addi	a2,s9,8
  fff1016f5a:	c7eff0ef          	jal	ra,fff10163d8 <spl+0x6358>
  fff1016f5e:	f55d                	bnez	a0,fff1016f0c <spl+0x6e8c>
  fff1016f60:	bfd1                	j	fff1016f34 <spl+0x6eb4>
  fff1016f62:	00cca703          	lw	a4,12(s9)
  fff1016f66:	03b00693          	li	a3,59
  fff1016f6a:	02071613          	slli	a2,a4,0x20
  fff1016f6e:	9201                	srli	a2,a2,0x20
  fff1016f70:	00e6ed63          	bltu	a3,a4,fff1016f8a <spl+0x6f0a>
  fff1016f74:	030c8593          	addi	a1,s9,48
  fff1016f78:	8552                	mv	a0,s4
  fff1016f7a:	d65fa0ef          	jal	ra,fff1011cde <spl+0x1c5e>
  fff1016f7e:	00cce783          	lwu	a5,12(s9)
  fff1016f82:	97d2                	add	a5,a5,s4
  fff1016f84:	00078023          	sb	zero,0(a5) # f000 <ROM_BASE-0xfff1001000>
  fff1016f88:	b77d                	j	fff1016f36 <spl+0x6eb6>
  fff1016f8a:	876e                	mv	a4,s11
  fff1016f8c:	86d2                	mv	a3,s4
  fff1016f8e:	4581                	li	a1,0
  fff1016f90:	8566                	mv	a0,s9
  fff1016f92:	98cff0ef          	jal	ra,fff101611e <spl+0x609e>
  fff1016f96:	f8054fe3          	bltz	a0,fff1016f34 <spl+0x6eb4>
  fff1016f9a:	f8843703          	ld	a4,-120(s0)
  fff1016f9e:	f365                	bnez	a4,fff1016f7e <spl+0x6efe>
  fff1016fa0:	bf51                	j	fff1016f34 <spl+0x6eb4>
  fff1016fa2:	000a4703          	lbu	a4,0(s4)
  fff1016fa6:	02f00793          	li	a5,47
  fff1016faa:	00f71a63          	bne	a4,a5,fff1016fbe <spl+0x6f3e>
  fff1016fae:	854a                	mv	a0,s2
  fff1016fb0:	85a6                	mv	a1,s1
  fff1016fb2:	95eff0ef          	jal	ra,fff1016110 <spl+0x6090>
  fff1016fb6:	000d3903          	ld	s2,0(s10)
  fff1016fba:	18090913          	addi	s2,s2,384
  fff1016fbe:	8552                	mv	a0,s4
  fff1016fc0:	86da                	mv	a3,s6
  fff1016fc2:	865e                	mv	a2,s7
  fff1016fc4:	85ca                	mv	a1,s2
  fff1016fc6:	e11ff0ef          	jal	ra,fff1016dd6 <spl+0x6d56>
  fff1016fca:	8a2a                	mv	s4,a0
  fff1016fcc:	dd25                	beqz	a0,fff1016f44 <spl+0x6ec4>
  fff1016fce:	85a6                	mv	a1,s1
  fff1016fd0:	854a                	mv	a0,s2
  fff1016fd2:	93eff0ef          	jal	ra,fff1016110 <spl+0x6090>
  fff1016fd6:	00098663          	beqz	s3,fff1016fe2 <spl+0x6f62>
  fff1016fda:	0009c783          	lbu	a5,0(s3)
  fff1016fde:	ec079ae3          	bnez	a5,fff1016eb2 <spl+0x6e32>
  fff1016fe2:	f8043783          	ld	a5,-128(s0)
  fff1016fe6:	f6843703          	ld	a4,-152(s0)
  fff1016fea:	00fab023          	sd	a5,0(s5)
  fff1016fee:	f7c42783          	lw	a5,-132(s0)
  fff1016ff2:	c31c                	sw	a5,0(a4)
  fff1016ff4:	bd6d                	j	fff1016eae <spl+0x6e2e>
  fff1016ff6:	7179                	addi	sp,sp,-48
  fff1016ff8:	ec26                	sd	s1,24(sp)
  fff1016ffa:	4489                	li	s1,2
  fff1016ffc:	f406                	sd	ra,40(sp)
  fff1016ffe:	f022                	sd	s0,32(sp)
  fff1017000:	c626                	sw	s1,12(sp)
  fff1017002:	ffff9797          	auipc	a5,0xffff9
  fff1017006:	1807a323          	sw	zero,390(a5) # fff1010188 <spl+0x108>
  fff101700a:	e519                	bnez	a0,fff1017018 <spl+0x6f98>
  fff101700c:	4501                	li	a0,0
  fff101700e:	70a2                	ld	ra,40(sp)
  fff1017010:	7402                	ld	s0,32(sp)
  fff1017012:	64e2                	ld	s1,24(sp)
  fff1017014:	6145                	addi	sp,sp,48
  fff1017016:	8082                	ret
  fff1017018:	8436                	mv	s0,a3
  fff101701a:	0074                	addi	a3,sp,12
  fff101701c:	dbbff0ef          	jal	ra,fff1016dd6 <spl+0x6d56>
  fff1017020:	d575                	beqz	a0,fff101700c <spl+0x6f8c>
  fff1017022:	4785                	li	a5,1
  fff1017024:	00f41763          	bne	s0,a5,fff1017032 <spl+0x6fb2>
  fff1017028:	4532                	lw	a0,12(sp)
  fff101702a:	157d                	addi	a0,a0,-1
  fff101702c:	00153513          	seqz	a0,a0
  fff1017030:	bff9                	j	fff101700e <spl+0x6f8e>
  fff1017032:	4505                	li	a0,1
  fff1017034:	fc941de3          	bne	s0,s1,fff101700e <spl+0x6f8e>
  fff1017038:	4532                	lw	a0,12(sp)
  fff101703a:	1579                	addi	a0,a0,-2
  fff101703c:	bfc5                	j	fff101702c <spl+0x6fac>
  fff101703e:	7179                	addi	sp,sp,-48
  fff1017040:	ec26                	sd	s1,24(sp)
  fff1017042:	00002497          	auipc	s1,0x2
  fff1017046:	d864b483          	ld	s1,-634(s1) # fff1018dc8 <spl+0x8d48>
  fff101704a:	f022                	sd	s0,32(sp)
  fff101704c:	842e                	mv	s0,a1
  fff101704e:	608c                	ld	a1,0(s1)
  fff1017050:	f406                	sd	ra,40(sp)
  fff1017052:	e84a                	sd	s2,16(sp)
  fff1017054:	e402                	sd	zero,8(sp)
  fff1017056:	cda9                	beqz	a1,fff10170b0 <spl+0x7030>
  fff1017058:	00002917          	auipc	s2,0x2
  fff101705c:	d5893903          	ld	s2,-680(s2) # fff1018db0 <spl+0x8d30>
  fff1017060:	4685                	li	a3,1
  fff1017062:	0030                	addi	a2,sp,8
  fff1017064:	18058593          	addi	a1,a1,384
  fff1017068:	00093023          	sd	zero,0(s2)
  fff101706c:	f8bff0ef          	jal	ra,fff1016ff6 <spl+0x6f76>
  fff1017070:	c915                	beqz	a0,fff10170a4 <spl+0x7024>
  fff1017072:	67a2                	ld	a5,8(sp)
  fff1017074:	08c7a703          	lw	a4,140(a5)
  fff1017078:	cf11                	beqz	a4,fff1017094 <spl+0x7014>
  fff101707a:	67a2                	ld	a5,8(sp)
  fff101707c:	4501                	li	a0,0
  fff101707e:	00c7e703          	lwu	a4,12(a5)
  fff1017082:	e018                	sd	a4,0(s0)
  fff1017084:	00f93023          	sd	a5,0(s2)
  fff1017088:	70a2                	ld	ra,40(sp)
  fff101708a:	7402                	ld	s0,32(sp)
  fff101708c:	64e2                	ld	s1,24(sp)
  fff101708e:	6942                	ld	s2,16(sp)
  fff1017090:	6145                	addi	sp,sp,48
  fff1017092:	8082                	ret
  fff1017094:	0887a583          	lw	a1,136(a5)
  fff1017098:	6388                	ld	a0,0(a5)
  fff101709a:	00878613          	addi	a2,a5,8
  fff101709e:	b3aff0ef          	jal	ra,fff10163d8 <spl+0x6358>
  fff10170a2:	fd61                	bnez	a0,fff101707a <spl+0x6ffa>
  fff10170a4:	608c                	ld	a1,0(s1)
  fff10170a6:	6522                	ld	a0,8(sp)
  fff10170a8:	18058593          	addi	a1,a1,384
  fff10170ac:	864ff0ef          	jal	ra,fff1016110 <spl+0x6090>
  fff10170b0:	557d                	li	a0,-1
  fff10170b2:	bfd9                	j	fff1017088 <spl+0x7008>
  fff10170b4:	1101                	addi	sp,sp,-32
  fff10170b6:	ec06                	sd	ra,24(sp)
  fff10170b8:	e822                	sd	s0,16(sp)
  fff10170ba:	e426                	sd	s1,8(sp)
  fff10170bc:	e04a                	sd	s2,0(sp)
  fff10170be:	848ff0ef          	jal	ra,fff1016106 <spl+0x6086>
  fff10170c2:	40000593          	li	a1,1024
  fff10170c6:	84aa                	mv	s1,a0
  fff10170c8:	02000513          	li	a0,32
  fff10170cc:	8a6fa0ef          	jal	ra,fff1011172 <spl+0x10f2>
  fff10170d0:	40000613          	li	a2,1024
  fff10170d4:	4581                	li	a1,0
  fff10170d6:	842a                	mv	s0,a0
  fff10170d8:	fb8f90ef          	jal	ra,fff1010890 <spl+0x810>
  fff10170dc:	4501                	li	a0,0
  fff10170de:	cc21                	beqz	s0,fff1017136 <spl+0x70b6>
  fff10170e0:	8522                	mv	a0,s0
  fff10170e2:	0fe000ef          	jal	ra,fff10171e0 <spl+0x7160>
  fff10170e6:	00002917          	auipc	s2,0x2
  fff10170ea:	ce293903          	ld	s2,-798(s2) # fff1018dc8 <spl+0x8d48>
  fff10170ee:	c925                	beqz	a0,fff101715e <spl+0x70de>
  fff10170f0:	03845703          	lhu	a4,56(s0)
  fff10170f4:	67bd                	lui	a5,0xf
  fff10170f6:	f5378793          	addi	a5,a5,-173 # ef53 <ROM_BASE-0xfff10010ad>
  fff10170fa:	06f71263          	bne	a4,a5,fff101715e <spl+0x70de>
  fff10170fe:	447c                	lw	a5,76(s0)
  fff1017100:	e3a9                	bnez	a5,fff1017142 <spl+0x70c2>
  fff1017102:	08000793          	li	a5,128
  fff1017106:	c4dc                	sw	a5,12(s1)
  fff1017108:	02000793          	li	a5,32
  fff101710c:	00f49a23          	sh	a5,20(s1)
  fff1017110:	4785                	li	a5,1
  fff1017112:	1782                	slli	a5,a5,0x20
  fff1017114:	0789                	addi	a5,a5,2
  fff1017116:	18840613          	addi	a2,s0,392
  fff101711a:	18843023          	sd	s0,384(s0)
  fff101711e:	20f43423          	sd	a5,520(s0)
  fff1017122:	16c43c23          	sd	a2,376(s0)
  fff1017126:	4589                	li	a1,2
  fff1017128:	8522                	mv	a0,s0
  fff101712a:	aaeff0ef          	jal	ra,fff10163d8 <spl+0x6358>
  fff101712e:	c905                	beqz	a0,fff101715e <spl+0x70de>
  fff1017130:	00893023          	sd	s0,0(s2)
  fff1017134:	4505                	li	a0,1
  fff1017136:	60e2                	ld	ra,24(sp)
  fff1017138:	6442                	ld	s0,16(sp)
  fff101713a:	64a2                	ld	s1,8(sp)
  fff101713c:	6902                	ld	s2,0(sp)
  fff101713e:	6105                	addi	sp,sp,32
  fff1017140:	8082                	ret
  fff1017142:	05845783          	lhu	a5,88(s0)
  fff1017146:	02000713          	li	a4,32
  fff101714a:	c4dc                	sw	a5,12(s1)
  fff101714c:	503c                	lw	a5,96(s0)
  fff101714e:	0807f793          	andi	a5,a5,128
  fff1017152:	c399                	beqz	a5,fff1017158 <spl+0x70d8>
  fff1017154:	0fe45703          	lhu	a4,254(s0)
  fff1017158:	00e49a23          	sh	a4,20(s1)
  fff101715c:	bf55                	j	fff1017110 <spl+0x7090>
  fff101715e:	00093023          	sd	zero,0(s2)
  fff1017162:	4501                	li	a0,0
  fff1017164:	bfc9                	j	fff1017136 <spl+0x70b6>
  fff1017166:	1101                	addi	sp,sp,-32
  fff1017168:	ec06                	sd	ra,24(sp)
  fff101716a:	e822                	sd	s0,16(sp)
  fff101716c:	e426                	sd	s1,8(sp)
  fff101716e:	842e                	mv	s0,a1
  fff1017170:	84aa                	mv	s1,a0
  fff1017172:	f95fe0ef          	jal	ra,fff1016106 <spl+0x6086>
  fff1017176:	f124                	sd	s1,96(a0)
  fff1017178:	6018                	ld	a4,0(s0)
  fff101717a:	ffff9797          	auipc	a5,0xffff9
  fff101717e:	0087bb23          	sd	s0,22(a5) # fff1010190 <spl+0x110>
  fff1017182:	00002797          	auipc	a5,0x2
  fff1017186:	b267b783          	ld	a5,-1242(a5) # fff1018ca8 <spl+0x8c28>
  fff101718a:	e398                	sd	a4,0(a5)
  fff101718c:	641c                	ld	a5,8(s0)
  fff101718e:	6800                	ld	s0,16(s0)
  fff1017190:	02878433          	mul	s0,a5,s0
  fff1017194:	f73fe0ef          	jal	ra,fff1016106 <spl+0x6086>
  fff1017198:	713c                	ld	a5,96(a0)
  fff101719a:	5384                	lw	s1,32(a5)
  fff101719c:	f6bfe0ef          	jal	ra,fff1016106 <spl+0x6086>
  fff10171a0:	00945433          	srl	s0,s0,s1
  fff10171a4:	e100                	sd	s0,0(a0)
  fff10171a6:	60e2                	ld	ra,24(sp)
  fff10171a8:	6442                	ld	s0,16(sp)
  fff10171aa:	64a2                	ld	s1,8(sp)
  fff10171ac:	6105                	addi	sp,sp,32
  fff10171ae:	8082                	ret
  fff10171b0:	7179                	addi	sp,sp,-48
  fff10171b2:	f022                	sd	s0,32(sp)
  fff10171b4:	ec26                	sd	s1,24(sp)
  fff10171b6:	f406                	sd	ra,40(sp)
  fff10171b8:	84ae                	mv	s1,a1
  fff10171ba:	842a                	mv	s0,a0
  fff10171bc:	e432                	sd	a2,8(sp)
  fff10171be:	e036                	sd	a3,0(sp)
  fff10171c0:	f47fe0ef          	jal	ra,fff1016106 <spl+0x6086>
  fff10171c4:	8622                	mv	a2,s0
  fff10171c6:	7402                	ld	s0,32(sp)
  fff10171c8:	6782                	ld	a5,0(sp)
  fff10171ca:	6722                	ld	a4,8(sp)
  fff10171cc:	70a2                	ld	ra,40(sp)
  fff10171ce:	7128                	ld	a0,96(a0)
  fff10171d0:	86a6                	mv	a3,s1
  fff10171d2:	64e2                	ld	s1,24(sp)
  fff10171d4:	ffff9597          	auipc	a1,0xffff9
  fff10171d8:	fbc5b583          	ld	a1,-68(a1) # fff1010190 <spl+0x110>
  fff10171dc:	6145                	addi	sp,sp,48
  fff10171de:	a805                	j	fff101720e <spl+0x718e>
  fff10171e0:	1101                	addi	sp,sp,-32
  fff10171e2:	ec06                	sd	ra,24(sp)
  fff10171e4:	e42a                	sd	a0,8(sp)
  fff10171e6:	f21fe0ef          	jal	ra,fff1016106 <spl+0x6086>
  fff10171ea:	713c                	ld	a5,96(a0)
  fff10171ec:	40000593          	li	a1,1024
  fff10171f0:	66a2                	ld	a3,8(sp)
  fff10171f2:	6f98                	ld	a4,24(a5)
  fff10171f4:	539c                	lw	a5,32(a5)
  fff10171f6:	60e2                	ld	ra,24(sp)
  fff10171f8:	02e5f5b3          	remu	a1,a1,a4
  fff10171fc:	40000513          	li	a0,1024
  fff1017200:	40000613          	li	a2,1024
  fff1017204:	40f5553b          	sraw	a0,a0,a5
  fff1017208:	6105                	addi	sp,sp,32
  fff101720a:	fa7ff06f          	j	fff10171b0 <spl+0x7130>
  fff101720e:	711d                	addi	sp,sp,-96
  fff1017210:	e8a2                	sd	s0,80(sp)
  fff1017212:	e4a6                	sd	s1,72(sp)
  fff1017214:	fc4e                	sd	s3,56(sp)
  fff1017216:	f852                	sd	s4,48(sp)
  fff1017218:	e862                	sd	s8,16(sp)
  fff101721a:	ec86                	sd	ra,88(sp)
  fff101721c:	e0ca                	sd	s2,64(sp)
  fff101721e:	f456                	sd	s5,40(sp)
  fff1017220:	f05a                	sd	s6,32(sp)
  fff1017222:	ec5e                	sd	s7,24(sp)
  fff1017224:	e466                	sd	s9,8(sp)
  fff1017226:	e06a                	sd	s10,0(sp)
  fff1017228:	1080                	addi	s0,sp,96
  fff101722a:	89ba                	mv	s3,a4
  fff101722c:	84aa                	mv	s1,a0
  fff101722e:	8c2e                	mv	s8,a1
  fff1017230:	8a3e                	mv	s4,a5
  fff1017232:	477d                	li	a4,31
  fff1017234:	c509                	beqz	a0,fff101723e <spl+0x71be>
  fff1017236:	6d18                	ld	a4,24(a0)
  fff1017238:	077d                	addi	a4,a4,31
  fff101723a:	01f76713          	ori	a4,a4,31
  fff101723e:	073d                	addi	a4,a4,15
  fff1017240:	9b41                	andi	a4,a4,-16
  fff1017242:	40e10133          	sub	sp,sp,a4
  fff1017246:	e885                	bnez	s1,fff1017276 <spl+0x71f6>
  fff1017248:	00001517          	auipc	a0,0x1
  fff101724c:	a2050513          	addi	a0,a0,-1504 # fff1017c68 <spl+0x7be8>
  fff1017250:	febfa0ef          	jal	ra,fff101223a <spl+0x21ba>
  fff1017254:	4501                	li	a0,0
  fff1017256:	fa040113          	addi	sp,s0,-96
  fff101725a:	60e6                	ld	ra,88(sp)
  fff101725c:	6446                	ld	s0,80(sp)
  fff101725e:	64a6                	ld	s1,72(sp)
  fff1017260:	6906                	ld	s2,64(sp)
  fff1017262:	79e2                	ld	s3,56(sp)
  fff1017264:	7a42                	ld	s4,48(sp)
  fff1017266:	7aa2                	ld	s5,40(sp)
  fff1017268:	7b02                	ld	s6,32(sp)
  fff101726a:	6be2                	ld	s7,24(sp)
  fff101726c:	6c42                	ld	s8,16(sp)
  fff101726e:	6ca2                	ld	s9,8(sp)
  fff1017270:	6d02                	ld	s10,0(sp)
  fff1017272:	6125                	addi	sp,sp,96
  fff1017274:	8082                	ret
  fff1017276:	0204ad03          	lw	s10,32(s1)
  fff101727a:	013687bb          	addw	a5,a3,s3
  fff101727e:	37fd                	addiw	a5,a5,-1
  fff1017280:	008c3703          	ld	a4,8(s8)
  fff1017284:	41a7d7bb          	sraw	a5,a5,s10
  fff1017288:	97b2                	add	a5,a5,a2
  fff101728a:	4501                	li	a0,0
  fff101728c:	fce7f5e3          	bgeu	a5,a4,fff1017256 <spl+0x71d6>
  fff1017290:	0184ba83          	ld	s5,24(s1)
  fff1017294:	41a6dbbb          	sraw	s7,a3,s10
  fff1017298:	01f10b13          	addi	s6,sp,31
  fff101729c:	3afd                	addiw	s5,s5,-1
  fff101729e:	0156f6b3          	and	a3,a3,s5
  fff10172a2:	00068a9b          	sext.w	s5,a3
  fff10172a6:	fe0b7b13          	andi	s6,s6,-32
  fff10172aa:	9bb2                	add	s7,s7,a2
  fff10172ac:	040a8c63          	beqz	s5,fff1017304 <spl+0x7284>
  fff10172b0:	000c3583          	ld	a1,0(s8)
  fff10172b4:	86da                	mv	a3,s6
  fff10172b6:	4605                	li	a2,1
  fff10172b8:	95de                	add	a1,a1,s7
  fff10172ba:	8526                	mv	a0,s1
  fff10172bc:	aadfb0ef          	jal	ra,fff1012d68 <spl+0x2ce8>
  fff10172c0:	4785                	li	a5,1
  fff10172c2:	00f50d63          	beq	a0,a5,fff10172dc <spl+0x725c>
  fff10172c6:	00000597          	auipc	a1,0x0
  fff10172ca:	14a58593          	addi	a1,a1,330 # fff1017410 <spl+0x7390>
  fff10172ce:	00001517          	auipc	a0,0x1
  fff10172d2:	9ca50513          	addi	a0,a0,-1590 # fff1017c98 <spl+0x7c18>
  fff10172d6:	f65fa0ef          	jal	ra,fff101223a <spl+0x21ba>
  fff10172da:	bfad                	j	fff1017254 <spl+0x71d4>
  fff10172dc:	0184bc83          	ld	s9,24(s1)
  fff10172e0:	415c87bb          	subw	a5,s9,s5
  fff10172e4:	8cbe                	mv	s9,a5
  fff10172e6:	00f9d363          	bge	s3,a5,fff10172ec <spl+0x726c>
  fff10172ea:	8cce                	mv	s9,s3
  fff10172ec:	000c891b          	sext.w	s2,s9
  fff10172f0:	8552                	mv	a0,s4
  fff10172f2:	864a                	mv	a2,s2
  fff10172f4:	015b05b3          	add	a1,s6,s5
  fff10172f8:	ea8f90ef          	jal	ra,fff10109a0 <spl+0x920>
  fff10172fc:	9a4a                	add	s4,s4,s2
  fff10172fe:	419989bb          	subw	s3,s3,s9
  fff1017302:	0b85                	addi	s7,s7,1
  fff1017304:	00099463          	bnez	s3,fff101730c <spl+0x728c>
  fff1017308:	4505                	li	a0,1
  fff101730a:	b7b1                	j	fff1017256 <spl+0x71d6>
  fff101730c:	6c9c                	ld	a5,24(s1)
  fff101730e:	000c3583          	ld	a1,0(s8)
  fff1017312:	00098a9b          	sext.w	s5,s3
  fff1017316:	40f0093b          	negw	s2,a5
  fff101731a:	0129f933          	and	s2,s3,s2
  fff101731e:	2901                	sext.w	s2,s2
  fff1017320:	02091a63          	bnez	s2,fff1017354 <spl+0x72d4>
  fff1017324:	07fd                	addi	a5,a5,31
  fff1017326:	9b81                	andi	a5,a5,-32
  fff1017328:	02078793          	addi	a5,a5,32
  fff101732c:	8a8a                	mv	s5,sp
  fff101732e:	40f10133          	sub	sp,sp,a5
  fff1017332:	01f10913          	addi	s2,sp,31
  fff1017336:	fe097913          	andi	s2,s2,-32
  fff101733a:	86ca                	mv	a3,s2
  fff101733c:	4605                	li	a2,1
  fff101733e:	95de                	add	a1,a1,s7
  fff1017340:	8526                	mv	a0,s1
  fff1017342:	a27fb0ef          	jal	ra,fff1012d68 <spl+0x2ce8>
  fff1017346:	864e                	mv	a2,s3
  fff1017348:	85ca                	mv	a1,s2
  fff101734a:	8552                	mv	a0,s4
  fff101734c:	e54f90ef          	jal	ra,fff10109a0 <spl+0x920>
  fff1017350:	8156                	mv	sp,s5
  fff1017352:	bf5d                	j	fff1017308 <spl+0x7288>
  fff1017354:	01a9593b          	srlw	s2,s2,s10
  fff1017358:	1902                	slli	s2,s2,0x20
  fff101735a:	02095913          	srli	s2,s2,0x20
  fff101735e:	86d2                	mv	a3,s4
  fff1017360:	864a                	mv	a2,s2
  fff1017362:	95de                	add	a1,a1,s7
  fff1017364:	8526                	mv	a0,s1
  fff1017366:	a03fb0ef          	jal	ra,fff1012d68 <spl+0x2ce8>
  fff101736a:	00a90b63          	beq	s2,a0,fff1017380 <spl+0x7300>
  fff101736e:	00000597          	auipc	a1,0x0
  fff1017372:	0a258593          	addi	a1,a1,162 # fff1017410 <spl+0x7390>
  fff1017376:	00001517          	auipc	a0,0x1
  fff101737a:	93a50513          	addi	a0,a0,-1734 # fff1017cb0 <spl+0x7c30>
  fff101737e:	bfa1                	j	fff10172d6 <spl+0x7256>
  fff1017380:	6c8c                	ld	a1,24(s1)
  fff1017382:	40b007bb          	negw	a5,a1
  fff1017386:	00faf7b3          	and	a5,s5,a5
  fff101738a:	40fa8abb          	subw	s5,s5,a5
  fff101738e:	0007891b          	sext.w	s2,a5
  fff1017392:	f60a8be3          	beqz	s5,fff1017308 <spl+0x7288>
  fff1017396:	1902                	slli	s2,s2,0x20
  fff1017398:	02095913          	srli	s2,s2,0x20
  fff101739c:	02b955b3          	divu	a1,s2,a1
  fff10173a0:	000c3603          	ld	a2,0(s8)
  fff10173a4:	86da                	mv	a3,s6
  fff10173a6:	8526                	mv	a0,s1
  fff10173a8:	9bb2                	add	s7,s7,a2
  fff10173aa:	4605                	li	a2,1
  fff10173ac:	95de                	add	a1,a1,s7
  fff10173ae:	9bbfb0ef          	jal	ra,fff1012d68 <spl+0x2ce8>
  fff10173b2:	4785                	li	a5,1
  fff10173b4:	00f50b63          	beq	a0,a5,fff10173ca <spl+0x734a>
  fff10173b8:	00000597          	auipc	a1,0x0
  fff10173bc:	05858593          	addi	a1,a1,88 # fff1017410 <spl+0x7390>
  fff10173c0:	00001517          	auipc	a0,0x1
  fff10173c4:	91050513          	addi	a0,a0,-1776 # fff1017cd0 <spl+0x7c50>
  fff10173c8:	b739                	j	fff10172d6 <spl+0x7256>
  fff10173ca:	8656                	mv	a2,s5
  fff10173cc:	85da                	mv	a1,s6
  fff10173ce:	012a0533          	add	a0,s4,s2
  fff10173d2:	dcef90ef          	jal	ra,fff10109a0 <spl+0x920>
  fff10173d6:	bf0d                	j	fff1017308 <spl+0x7288>
  fff10173d8:	deadbeef          	jal	t4,fff0ff29c2 <ROM_BASE-0x1d63e>
  fff10173dc:	deadbeef          	jal	t4,fff0ff29c6 <ROM_BASE-0x1d63a>
  fff10173e0:	deadbeef          	jal	t4,fff0ff29ca <ROM_BASE-0x1d636>
  fff10173e4:	deadbeef          	jal	t4,fff0ff29ce <ROM_BASE-0x1d632>
  fff10173e8:	deadbeef          	jal	t4,fff0ff29d2 <ROM_BASE-0x1d62e>
  fff10173ec:	0000                	unimp
  fff10173ee:	0000                	unimp
  fff10173f0:	001b0b03          	lb	s6,1(s6)
  fff10173f4:	0000                	unimp
  fff10173f6:	0000                	unimp
  fff10173f8:	5f6c7073          	csrci	0x5f6,24
  fff10173fc:	6f6c                	ld	a1,216(a4)
  fff10173fe:	6461                	lui	s0,0x18
  fff1017400:	695f 616d 6567      	0x6567616d695f
  fff1017406:	655f 7478 0000      	0x7478655f
  fff101740c:	0000                	unimp
  fff101740e:	0000                	unimp
  fff1017410:	7366                	ld	t1,120(sp)
  fff1017412:	645f 7665 6572      	0x65727665645f
  fff1017418:	6461                	lui	s0,0x18
  fff101741a:	0000                	unimp
  fff101741c:	0000                	unimp
  fff101741e:	0000                	unimp
  fff1017420:	0808                	addi	a0,sp,16
  fff1017422:	0808                	addi	a0,sp,16
  fff1017424:	0808                	addi	a0,sp,16
  fff1017426:	0808                	addi	a0,sp,16
  fff1017428:	2808                	fld	fa0,16(s0)
  fff101742a:	2828                	fld	fa0,80(s0)
  fff101742c:	2828                	fld	fa0,80(s0)
  fff101742e:	0808                	addi	a0,sp,16
  fff1017430:	0808                	addi	a0,sp,16
  fff1017432:	0808                	addi	a0,sp,16
  fff1017434:	0808                	addi	a0,sp,16
  fff1017436:	0808                	addi	a0,sp,16
  fff1017438:	0808                	addi	a0,sp,16
  fff101743a:	0808                	addi	a0,sp,16
  fff101743c:	0808                	addi	a0,sp,16
  fff101743e:	0808                	addi	a0,sp,16
  fff1017440:	10a0                	addi	s0,sp,104
  fff1017442:	1010                	addi	a2,sp,32
  fff1017444:	1010                	addi	a2,sp,32
  fff1017446:	1010                	addi	a2,sp,32
  fff1017448:	1010                	addi	a2,sp,32
  fff101744a:	1010                	addi	a2,sp,32
  fff101744c:	1010                	addi	a2,sp,32
  fff101744e:	1010                	addi	a2,sp,32
  fff1017450:	0404                	addi	s1,sp,512
  fff1017452:	0404                	addi	s1,sp,512
  fff1017454:	0404                	addi	s1,sp,512
  fff1017456:	0404                	addi	s1,sp,512
  fff1017458:	0404                	addi	s1,sp,512
  fff101745a:	1010                	addi	a2,sp,32
  fff101745c:	1010                	addi	a2,sp,32
  fff101745e:	1010                	addi	a2,sp,32
  fff1017460:	4110                	lw	a2,0(a0)
  fff1017462:	4141                	li	sp,16
  fff1017464:	4141                	li	sp,16
  fff1017466:	0141                	addi	sp,sp,16
  fff1017468:	0101                	addi	sp,sp,0
  fff101746a:	0101                	addi	sp,sp,0
  fff101746c:	0101                	addi	sp,sp,0
  fff101746e:	0101                	addi	sp,sp,0
  fff1017470:	0101                	addi	sp,sp,0
  fff1017472:	0101                	addi	sp,sp,0
  fff1017474:	0101                	addi	sp,sp,0
  fff1017476:	0101                	addi	sp,sp,0
  fff1017478:	0101                	addi	sp,sp,0
  fff101747a:	1001                	c.nop	-32
  fff101747c:	1010                	addi	a2,sp,32
  fff101747e:	1010                	addi	a2,sp,32
  fff1017480:	4210                	lw	a2,0(a2)
  fff1017482:	4242                	lw	tp,16(sp)
  fff1017484:	4242                	lw	tp,16(sp)
  fff1017486:	0242                	slli	tp,tp,0x10
  fff1017488:	0202                	c.slli64	tp
  fff101748a:	0202                	c.slli64	tp
  fff101748c:	0202                	c.slli64	tp
  fff101748e:	0202                	c.slli64	tp
  fff1017490:	0202                	c.slli64	tp
  fff1017492:	0202                	c.slli64	tp
  fff1017494:	0202                	c.slli64	tp
  fff1017496:	0202                	c.slli64	tp
  fff1017498:	0202                	c.slli64	tp
  fff101749a:	1002                	c.slli	zero,0x20
  fff101749c:	1010                	addi	a2,sp,32
  fff101749e:	0810                	addi	a2,sp,16
	...
  fff10174c0:	10a0                	addi	s0,sp,104
  fff10174c2:	1010                	addi	a2,sp,32
  fff10174c4:	1010                	addi	a2,sp,32
  fff10174c6:	1010                	addi	a2,sp,32
  fff10174c8:	1010                	addi	a2,sp,32
  fff10174ca:	1010                	addi	a2,sp,32
  fff10174cc:	1010                	addi	a2,sp,32
  fff10174ce:	1010                	addi	a2,sp,32
  fff10174d0:	1010                	addi	a2,sp,32
  fff10174d2:	1010                	addi	a2,sp,32
  fff10174d4:	1010                	addi	a2,sp,32
  fff10174d6:	1010                	addi	a2,sp,32
  fff10174d8:	1010                	addi	a2,sp,32
  fff10174da:	1010                	addi	a2,sp,32
  fff10174dc:	1010                	addi	a2,sp,32
  fff10174de:	1010                	addi	a2,sp,32
  fff10174e0:	0101                	addi	sp,sp,0
  fff10174e2:	0101                	addi	sp,sp,0
  fff10174e4:	0101                	addi	sp,sp,0
  fff10174e6:	0101                	addi	sp,sp,0
  fff10174e8:	0101                	addi	sp,sp,0
  fff10174ea:	0101                	addi	sp,sp,0
  fff10174ec:	0101                	addi	sp,sp,0
  fff10174ee:	0101                	addi	sp,sp,0
  fff10174f0:	0101                	addi	sp,sp,0
  fff10174f2:	0101                	addi	sp,sp,0
  fff10174f4:	0101                	addi	sp,sp,0
  fff10174f6:	1001                	c.nop	-32
  fff10174f8:	0101                	addi	sp,sp,0
  fff10174fa:	0101                	addi	sp,sp,0
  fff10174fc:	0101                	addi	sp,sp,0
  fff10174fe:	0201                	addi	tp,tp,0
  fff1017500:	0202                	c.slli64	tp
  fff1017502:	0202                	c.slli64	tp
  fff1017504:	0202                	c.slli64	tp
  fff1017506:	0202                	c.slli64	tp
  fff1017508:	0202                	c.slli64	tp
  fff101750a:	0202                	c.slli64	tp
  fff101750c:	0202                	c.slli64	tp
  fff101750e:	0202                	c.slli64	tp
  fff1017510:	0202                	c.slli64	tp
  fff1017512:	0202                	c.slli64	tp
  fff1017514:	0202                	c.slli64	tp
  fff1017516:	1002                	c.slli	zero,0x20
  fff1017518:	0202                	c.slli64	tp
  fff101751a:	0202                	c.slli64	tp
  fff101751c:	0202                	c.slli64	tp
  fff101751e:	0202                	c.slli64	tp
  fff1017520:	0020                	addi	s0,sp,8
  fff1017522:	0000                	unimp
  fff1017524:	0000                	unimp
  fff1017526:	0000                	unimp
  fff1017528:	6e55                	lui	t3,0x15
  fff101752a:	6168                	ld	a0,192(a0)
  fff101752c:	646e                	ld	s0,216(sp)
  fff101752e:	656c                	ld	a1,200(a0)
  fff1017530:	2064                	fld	fs1,192(s0)
  fff1017532:	7865                	lui	a6,0xffff9
  fff1017534:	74706563          	bltu	zero,t2,fff1017c7e <spl+0x7bfe>
  fff1017538:	6f69                	lui	t5,0x1a
  fff101753a:	3a6e                	fld	fs4,248(sp)
  fff101753c:	2520                	fld	fs0,72(a0)
  fff101753e:	00000a73          	0xa73
  fff1017542:	0000                	unimp
  fff1017544:	0000                	unimp
  fff1017546:	0000                	unimp
  fff1017548:	6e55                	lui	t3,0x15
  fff101754a:	6168                	ld	a0,192(a0)
  fff101754c:	646e                	ld	s0,216(sp)
  fff101754e:	656c                	ld	a1,200(a0)
  fff1017550:	2064                	fld	fs1,192(s0)
  fff1017552:	7865                	lui	a6,0xffff9
  fff1017554:	74706563          	bltu	zero,t2,fff1017c9e <spl+0x7c1e>
  fff1017558:	6f69                	lui	t5,0x1a
  fff101755a:	206e                	fld	ft0,216(sp)
  fff101755c:	65646f63          	bltu	s0,s6,fff1017bba <spl+0x7b3a>
  fff1017560:	203a                	fld	ft0,392(sp)
  fff1017562:	6c25                	lui	s8,0x9
  fff1017564:	0a64                	addi	s1,sp,284
  fff1017566:	0000                	unimp
  fff1017568:	5045                	c.li	zero,-15
  fff101756a:	25203a43          	fmadd.h	fs4,ft0,fs2,ft4,rup
  fff101756e:	3130                	fld	fa2,96(a0)
  fff1017570:	6c36                	ld	s8,328(sp)
  fff1017572:	2078                	fld	fa4,192(s0)
  fff1017574:	4152                	lw	sp,20(sp)
  fff1017576:	203a                	fld	ft0,392(sp)
  fff1017578:	3025                	0x3025
  fff101757a:	3631                	addiw	a2,a2,-20
  fff101757c:	786c                	ld	a1,240(s0)
  fff101757e:	5420                	lw	s0,104(s0)
  fff1017580:	4156                	lw	sp,84(sp)
  fff1017582:	3a4c                	fld	fa1,176(a2)
  fff1017584:	2520                	fld	fs0,72(a0)
  fff1017586:	3130                	fld	fa2,96(a0)
  fff1017588:	6c36                	ld	s8,328(sp)
  fff101758a:	0a78                	addi	a4,sp,284
  fff101758c:	0000                	unimp
  fff101758e:	0000                	unimp
  fff1017590:	5045                	c.li	zero,-15
  fff1017592:	25203a43          	fmadd.h	fs4,ft0,fs2,ft4,rup
  fff1017596:	3130                	fld	fa2,96(a0)
  fff1017598:	6c36                	ld	s8,328(sp)
  fff101759a:	2078                	fld	fa4,192(s0)
  fff101759c:	4152                	lw	sp,20(sp)
  fff101759e:	203a                	fld	ft0,392(sp)
  fff10175a0:	3025                	0x3025
  fff10175a2:	3631                	addiw	a2,a2,-20
  fff10175a4:	786c                	ld	a1,240(s0)
  fff10175a6:	7220                	ld	s0,96(a2)
  fff10175a8:	6c65                	lui	s8,0x19
  fff10175aa:	6120636f          	jal	t1,fff101dbbc <spl+0xdb3c>
  fff10175ae:	6a64                	ld	s1,208(a2)
  fff10175b0:	7375                	lui	t1,0xffffd
  fff10175b2:	6574                	ld	a3,200(a0)
  fff10175b4:	0a64                	addi	s1,sp,284
  fff10175b6:	0000                	unimp
  fff10175b8:	430a                	lw	t1,128(sp)
  fff10175ba:	3a65646f          	jal	s0,fff106d960 <spl+0x5d8e0>
  fff10175be:	0020                	addi	s0,sp,8
  fff10175c0:	3025                	0x3025
  fff10175c2:	7834                	ld	a3,112(s0)
  fff10175c4:	0020                	addi	s0,sp,8
  fff10175c6:	0000                	unimp
  fff10175c8:	0028                	addi	a0,sp,8
  fff10175ca:	0000                	unimp
  fff10175cc:	0000                	unimp
  fff10175ce:	0000                	unimp
  fff10175d0:	3025                	0x3025
  fff10175d2:	7834                	ld	a3,112(s0)
  fff10175d4:	7325                	lui	t1,0xfffe9
  fff10175d6:	0000                	unimp
  fff10175d8:	6c61                	lui	s8,0x18
  fff10175da:	6f6c                	ld	a1,216(a4)
  fff10175dc:	70732063          	0x70732063
  fff10175e0:	6361                	lui	t1,0x18
  fff10175e2:	2065                	0x2065
  fff10175e4:	7865                	lui	a6,0xffff9
  fff10175e6:	6168                	ld	a0,192(a0)
  fff10175e8:	7375                	lui	t1,0xffffd
  fff10175ea:	6574                	ld	a3,200(a0)
  fff10175ec:	0a64                	addi	s1,sp,284
  fff10175ee:	0000                	unimp
  fff10175f0:	7325                	lui	t1,0xfffe9
  fff10175f2:	252e                	fld	fa0,200(sp)
  fff10175f4:	00000073          	ecall
  fff10175f8:	5f6c7073          	csrci	0x5f6,24
  fff10175fc:	6165                	addi	sp,sp,112
  fff10175fe:	6c72                	ld	s8,280(sp)
  fff1017600:	5f79                	li	t5,-2
  fff1017602:	6e69                	lui	t3,0x1a
  fff1017604:	7469                	lui	s0,0xffffa
  fff1017606:	2928                	fld	fa0,80(a0)
  fff1017608:	6620                	ld	s0,72(a2)
  fff101760a:	6961                	lui	s2,0x18
  fff101760c:	656c                	ld	a1,200(a0)
  fff101760e:	3a64                	fld	fs1,240(a2)
  fff1017610:	2520                	fld	fs0,72(a0)
  fff1017612:	0a64                	addi	s1,sp,284
  fff1017614:	0000                	unimp
  fff1017616:	0000                	unimp
  fff1017618:	5f6c7073          	csrci	0x5f6,24
  fff101761c:	6f62                	ld	t5,24(sp)
  fff101761e:	7261                	lui	tp,0xffff8
  fff1017620:	5f64                	lw	s1,124(a4)
  fff1017622:	6e69                	lui	t3,0x1a
  fff1017624:	7469                	lui	s0,0xffffa
  fff1017626:	665f 2928 6620      	0x66202928665f
  fff101762c:	6961                	lui	s2,0x18
  fff101762e:	656c                	ld	a1,200(a0)
  fff1017630:	3a64                	fld	fs1,240(a2)
  fff1017632:	2520                	fld	fs0,72(a0)
  fff1017634:	0a64                	addi	s1,sp,284
  fff1017636:	0000                	unimp
  fff1017638:	7254                	ld	a3,160(a2)
  fff101763a:	6979                	lui	s2,0x1e
  fff101763c:	676e                	ld	a4,216(sp)
  fff101763e:	7420                	ld	s0,104(s0)
  fff1017640:	6f62206f          	j	fff1039d36 <spl+0x29cb6>
  fff1017644:	6620746f          	jal	s0,fff101eca6 <spl+0xec26>
  fff1017648:	6f72                	ld	t5,280(sp)
  fff101764a:	206d                	0x206d
  fff101764c:	7325                	lui	t1,0xfffe9
  fff101764e:	000a                	c.slli	zero,0x2
  fff1017650:	3a4c5053          	0x3a4c5053
  fff1017654:	6620                	ld	s0,72(a2)
  fff1017656:	6961                	lui	s2,0x18
  fff1017658:	656c                	ld	a1,200(a0)
  fff101765a:	2064                	fld	fs1,192(s0)
  fff101765c:	6f74                	ld	a3,216(a4)
  fff101765e:	6220                	ld	s0,64(a2)
  fff1017660:	20746f6f          	jal	t5,fff105e066 <spl+0x4dfe6>
  fff1017664:	7266                	ld	tp,120(sp)
  fff1017666:	61206d6f          	jal	s10,fff101dc78 <spl+0xdbf8>
  fff101766a:	6c6c                	ld	a1,216(s0)
  fff101766c:	6220                	ld	s0,64(a2)
  fff101766e:	20746f6f          	jal	t5,fff105e074 <spl+0x4dff4>
  fff1017672:	6564                	ld	s1,200(a0)
  fff1017674:	6976                	ld	s2,344(sp)
  fff1017676:	0a736563          	bltu	t1,t2,fff1017720 <spl+0x76a0>
	...
  fff1017682:	0000                	unimp
  fff1017684:	3096                	fld	ft1,352(sp)
  fff1017686:	612c7707          	0x612c7707
  fff101768a:	ee0e                	sd	gp,280(sp)
  fff101768c:	51ba                	lw	gp,172(sp)
  fff101768e:	9909                	andi	a0,a0,-30
  fff1017690:	c419                	beqz	s0,fff101769e <spl+0x761e>
  fff1017692:	076d                	addi	a4,a4,27
  fff1017694:	706af48f          	0x706af48f
  fff1017698:	a535                	j	fff1017cc4 <spl+0x7c44>
  fff101769a:	95a3e963          	bltu	t2,s10,fff10167ec <spl+0x676c>
  fff101769e:	9e64                	0x9e64
  fff10176a0:	8832                	mv	a6,a2
  fff10176a2:	b8a40edb          	0xb8a40edb
  fff10176a6:	79dc                	ld	a5,176(a1)
  fff10176a8:	e91e                	sd	t2,144(sp)
  fff10176aa:	e0d5                	bnez	s1,fff101774e <spl+0x76ce>
  fff10176ac:	d988                	sw	a0,48(a1)
  fff10176ae:	97d2                	add	a5,a5,s4
  fff10176b0:	09b64c2b          	0x9b64c2b
  fff10176b4:	7cbd                	lui	s9,0xfffef
  fff10176b6:	7eb1                	lui	t4,0xfffec
  fff10176b8:	e7b82d07          	flw	fs10,-389(a6) # ffffffffffff8e7b <spl+0xffffff000efe8dfb>
  fff10176bc:	1d91                	addi	s11,s11,-28
  fff10176be:	106490bf 20f21db7 	0x20f21db7106490bf
  fff10176c6:	6ab0                	ld	a2,80(a3)
  fff10176c8:	7148                	ld	a0,160(a0)
  fff10176ca:	f3b9                	bnez	a5,fff1017610 <spl+0x7590>
  fff10176cc:	41de                	lw	gp,212(sp)
  fff10176ce:	84be                	mv	s1,a5
  fff10176d0:	d47d                	beqz	s0,fff10176be <spl+0x763e>
  fff10176d2:	1ada                	slli	s5,s5,0x36
  fff10176d4:	6ddde4eb          	0x6ddde4eb
  fff10176d8:	b551                	j	fff101755c <spl+0x74dc>
  fff10176da:	f4d4                	sd	a3,168(s1)
  fff10176dc:	83d385c7          	fmsub.d	fa1,ft7,ft9,fa6,rne
  fff10176e0:	9856                	add	a6,a6,s5
  fff10176e2:	136c                	addi	a1,sp,428
  fff10176e4:	a8c0                	fsd	fs0,144(s1)
  fff10176e6:	f97a646b          	0xf97a646b
  fff10176ea:	fd62                	sd	s8,184(sp)
  fff10176ec:	c9ec                	sw	a1,84(a1)
  fff10176ee:	8a65                	andi	a2,a2,25
  fff10176f0:	14015c4f          	fnmadd.h	fs8,ft2,ft0,ft2,unknown
  fff10176f4:	6cd9                	lui	s9,0x16
  fff10176f6:	6306                	ld	t1,64(sp)
  fff10176f8:	fa0f3d63          	0xfa0f3d63
  fff10176fc:	0df5                	addi	s11,s11,29
  fff10176fe:	8d08                	0x8d08
  fff1017700:	20c8                	fld	fa0,128(s1)
  fff1017702:	3b6e                	fld	fs6,248(sp)
  fff1017704:	105e                	c.slli	zero,0x37
  fff1017706:	4c69                	li	s8,26
  fff1017708:	41e4                	lw	s1,68(a1)
  fff101770a:	d560                	sw	s0,108(a0)
  fff101770c:	7172                	ld	sp,312(sp)
  fff101770e:	e4d1a267          	0xe4d1a267
  fff1017712:	d4473c03          	ld	s8,-700(a4) # 7d44 <ROM_BASE-0xfff10082bc>
  fff1017716:	4b04                	lw	s1,16(a4)
  fff1017718:	85fd                	srai	a1,a1,0x1f
  fff101771a:	d20d                	beqz	a2,fff101763c <spl+0x75bc>
  fff101771c:	a50ab56b          	0xa50ab56b
  fff1017720:	a8fa                	fsd	ft10,80(sp)
  fff1017722:	35b5                	addiw	a1,a1,-19
  fff1017724:	986c                	0x986c
  fff1017726:	42b2                	lw	t0,12(sp)
  fff1017728:	c9d6                	sw	s5,208(sp)
  fff101772a:	f940dbbb          	0xf940dbbb
  fff101772e:	acbc                	fsd	fa5,88(s1)
  fff1017730:	32d86ce3          	bltu	a6,a3,fff1018268 <spl+0x81e8>
  fff1017734:	5c75                	li	s8,-3
  fff1017736:	45df 0dcf dcd6      	0xdcd60dcf45df
  fff101773c:	3d59                	addiw	s10,s10,-10
  fff101773e:	abd1                	j	fff1017d12 <spl+0x7c92>
  fff1017740:	30ac                	fld	fa1,96(s1)
  fff1017742:	26d9                	addiw	a3,a3,22
  fff1017744:	003a                	c.slli	zero,0xe
  fff1017746:	51de                	lw	gp,244(sp)
  fff1017748:	5180                	lw	s0,32(a1)
  fff101774a:	6116c8d7          	vmseq.vx	v17,v17,a3,v0.t
  fff101774e:	bfd0                	fsd	fa2,184(a5)
  fff1017750:	f4b5                	bnez	s1,fff10176bc <spl+0x763c>
  fff1017752:	21b4                	fld	fa3,64(a1)
  fff1017754:	56b3c423          	0x56b3c423
  fff1017758:	9599                	srai	a1,a1,0x26
  fff101775a:	cfba                	sw	a4,220(sp)
  fff101775c:	b8bda50f          	0xb8bda50f
  fff1017760:	b89e                	fsd	ft7,112(sp)
  fff1017762:	2802                	fld	fa6,0(sp)
  fff1017764:	8808                	0x8808
  fff1017766:	5f05                	li	t5,-31
  fff1017768:	d9b2                	sw	a2,240(sp)
  fff101776a:	c60c                	sw	a1,8(a2)
  fff101776c:	e924                	sd	s1,80(a0)
  fff101776e:	7c87b10b          	0x7c87b10b
  fff1017772:	4c112f6f          	jal	t5,fff102a432 <spl+0x1a3b2>
  fff1017776:	5868                	lw	a0,116(s0)
  fff1017778:	c1611dab          	0xc1611dab
  fff101777c:	2d3d                	addiw	s10,s10,15
  fff101777e:	b666                	fsd	fs9,296(sp)
  fff1017780:	4190                	lw	a2,0(a1)
  fff1017782:	76dc                	ld	a5,168(a3)
  fff1017784:	7106                	ld	sp,96(sp)
  fff1017786:	20bc01db          	0x20bc01db
  fff101778a:	98d2                	add	a7,a7,s4
  fff101778c:	102a                	c.slli	zero,0x2a
  fff101778e:	efd5                	bnez	a5,fff101784a <spl+0x77ca>
  fff1017790:	8589                	srai	a1,a1,0x2
  fff1017792:	71b1                	lui	gp,0xfffec
  fff1017794:	b51f 06b6 e4a5      	0xe4a506b6b51f
  fff101779a:	d4339fbf c9a2e8b8 	0xc9a2e8b8d4339fbf
  fff10177a2:	f9347807          	vlsseg8e1024.v	v16,(s0),s3,v0.t
  fff10177a6:	0f00                	addi	s0,sp,912
  fff10177a8:	a88e                	fsd	ft3,80(sp)
  fff10177aa:	9609                	srai	a2,a2,0x22
  fff10177ac:	9818                	0x9818
  fff10177ae:	e10e                	sd	gp,128(sp)
  fff10177b0:	7f6a0dbb          	0x7f6a0dbb
  fff10177b4:	3d2d                	addiw	s10,s10,-21
  fff10177b6:	086d                	addi	a6,a6,27
  fff10177b8:	91646c97          	auipc	s9,0x91646
  fff10177bc:	5c01                	li	s8,-32
  fff10177be:	51f4e663          	bltu	s1,t6,fff1017cca <spl+0x7c4a>
  fff10177c2:	61626b6b          	0x61626b6b
  fff10177c6:	1c6c                	addi	a1,sp,572
  fff10177c8:	30d8                	fld	fa4,160(s1)
  fff10177ca:	8565                	srai	a0,a0,0x19
  fff10177cc:	004e                	c.slli	zero,0x13
  fff10177ce:	f262                	sd	s8,288(sp)
  fff10177d0:	95ed                	srai	a1,a1,0x3b
  fff10177d2:	6c06                	ld	s8,64(sp)
  fff10177d4:	1b01a57b          	0x1b01a57b
  fff10177d8:	f4c1                	bnez	s1,fff1017760 <spl+0x76e0>
  fff10177da:	8208                	0x8208
  fff10177dc:	f50fc457          	vqmacc.vx	v8,t6,v16,v0.t
  fff10177e0:	d9c6                	sw	a7,240(sp)
  fff10177e2:	65b0                	ld	a2,72(a1)
  fff10177e4:	e950                	sd	a2,144(a0)
  fff10177e6:	b8ea12b7          	lui	t0,0xb8ea1
  fff10177ea:	8bbe                	mv	s7,a5
  fff10177ec:	887c                	0x887c
  fff10177ee:	fcb9                	bnez	s1,fff101774c <spl+0x76cc>
  fff10177f0:	1ddf 62dd 2d49      	0x2d4962dd1ddf
  fff10177f6:	15da                	slli	a1,a1,0x36
  fff10177f8:	8cd37cf3          	csrrci	s9,0x8cd,6
  fff10177fc:	4c65                	li	s8,25
  fff10177fe:	fbd4                	sd	a3,176(a5)
  fff1017800:	6158                	ld	a4,128(a0)
  fff1017802:	4db2                	lw	s11,12(sp)
  fff1017804:	51ce                	lw	gp,240(sp)
  fff1017806:	3ab5                	addiw	s5,s5,-19
  fff1017808:	0074                	addi	a3,sp,12
  fff101780a:	a3bc                	fsd	fa5,64(a5)
  fff101780c:	30e2                	fld	ft1,56(sp)
  fff101780e:	a541d4bb          	fsrw	s1,gp,s4,s4
  fff1017812:	4adf 95d7 3dd8      	0x3dd895d74adf
  fff1017818:	c46d                	beqz	s0,fff1017902 <spl+0x7882>
  fff101781a:	a4d1                	j	fff1017ade <spl+0x7a5e>
  fff101781c:	d3d6f4fb          	0xd3d6f4fb
  fff1017820:	e96a                	sd	s10,144(sp)
  fff1017822:	4369                	li	t1,26
  fff1017824:	d9fc                	sw	a5,116(a1)
  fff1017826:	346e                	fld	fs0,248(sp)
  fff1017828:	8846                	mv	a6,a7
  fff101782a:	b8d0ad67          	0xb8d0ad67
  fff101782e:	da60                	sw	s0,116(a2)
  fff1017830:	44042d73          	csrrs	s10,0x440,s0
  fff1017834:	1de5                	addi	s11,s11,-7
  fff1017836:	4c5f3303          	ld	t1,1221(t5) # 1a4c5 <ROM_BASE-0xfff0ff5b3b>
  fff101783a:	aa0a                	fsd	ft2,272(sp)
  fff101783c:	7cc9                	lui	s9,0xffff2
  fff101783e:	dd0d                	beqz	a0,fff1017778 <spl+0x76f8>
  fff1017840:	713c                	ld	a5,96(a0)
  fff1017842:	5005                	c.li	zero,-31
  fff1017844:	41aa                	lw	gp,136(sp)
  fff1017846:	2702                	fld	fa4,0(sp)
  fff1017848:	1010                	addi	a2,sp,32
  fff101784a:	2086be0b          	0x2086be0b
  fff101784e:	c90c                	sw	a1,16(a0)
  fff1017850:	b525                	j	fff1017678 <spl+0x75f8>
  fff1017852:	5768                	lw	a0,108(a4)
  fff1017854:	206f85b3          	0x206f85b3
  fff1017858:	d409                	beqz	s0,fff1017762 <spl+0x76e2>
  fff101785a:	b966                	fsd	fs9,176(sp)
  fff101785c:	e49f ce61 f90e      	0xf90ece61e49f
  fff1017862:	5ede                	lw	t4,244(sp)
  fff1017864:	c998                	sw	a4,16(a1)
  fff1017866:	29d9                	addiw	s3,s3,22
  fff1017868:	9822                	add	a6,a6,s0
  fff101786a:	b0d0                	fsd	fa2,160(s1)
  fff101786c:	a8b4                	fsd	fa3,80(s1)
  fff101786e:	3d17c7d7          	vslidedown.vx	v15,v17,a5,v0.t
  fff1017872:	0d8159b3          	fsr	s3,sp,ra,s8
  fff1017876:	2eb4                	fld	fa3,88(a3)
  fff1017878:	b7bd5c3b          	0xb7bd5c3b
  fff101787c:	6cad                	lui	s9,0xb
  fff101787e:	c0ba                	sw	a4,64(sp)
  fff1017880:	8320                	0x8320
  fff1017882:	edb8                	sd	a4,88(a1)
  fff1017884:	b3b6                	fsd	fa3,480(sp)
  fff1017886:	e20c9abf d29a03b6 	0xd29a03b6e20c9abf
  fff101788e:	74b1                	lui	s1,0xfffec
  fff1017890:	4739                	li	a4,14
  fff1017892:	ead5                	bnez	a3,fff1017946 <spl+0x78c6>
  fff1017894:	9dd277af          	0x9dd277af
  fff1017898:	2615                	addiw	a2,a2,5
  fff101789a:	168304db          	0x168304db
  fff101789e:	73dc                	ld	a5,160(a5)
  fff10178a0:	0b12                	slli	s6,s6,0x4
  fff10178a2:	3b84e363          	bltu	s1,s8,fff1017c48 <spl+0x7bc8>
  fff10178a6:	9464                	0x9464
  fff10178a8:	6a3e                	ld	s4,456(sp)
  fff10178aa:	0d6d                	addi	s10,s10,27
  fff10178ac:	5aa8                	lw	a0,112(a3)
  fff10178ae:	7a6a                	ld	s4,184(sp)
  fff10178b0:	e40ecf0b          	0xe40ecf0b
  fff10178b4:	ff9d                	bnez	a5,fff10177f2 <spl+0x7772>
  fff10178b6:	9309                	srli	a4,a4,0x22
  fff10178b8:	0a00ae27          	fsw	ft0,188(ra)
  fff10178bc:	9eb1                	addw	a3,a3,a2
  fff10178be:	93447d07          	0x93447d07
  fff10178c2:	a3d2f00f          	0xa3d2f00f
  fff10178c6:	8708                	0x8708
  fff10178c8:	f268                	sd	a0,224(a2)
  fff10178ca:	1e01                	addi	t3,t3,-32
  fff10178cc:	c2fe                	sw	t6,68(sp)
  fff10178ce:	6906                	ld	s2,64(sp)
  fff10178d0:	575d                	li	a4,-9
  fff10178d2:	f762                	sd	s8,424(sp)
  fff10178d4:	806567cb          	fnmsub.s	fa5,fa0,ft6,fa6,unknown
  fff10178d8:	3671                	addiw	a2,a2,-4
  fff10178da:	196c                	addi	a1,sp,188
  fff10178dc:	6e6b06e7          	jalr	a3,1766(s6)
  fff10178e0:	1b76                	slli	s6,s6,0x3d
  fff10178e2:	fed4                	sd	a3,184(a3)
  fff10178e4:	2be0                	fld	fs0,208(a5)
  fff10178e6:	7a5a89d3          	0x7a5a89d3
  fff10178ea:	10da                	slli	ra,ra,0x36
  fff10178ec:	4acc                	lw	a1,20(a3)
  fff10178ee:	67dd                	lui	a5,0x17
  fff10178f0:	f9b9df6f          	jal	t5,fff0fb588a <ROM_BASE-0x5a776>
  fff10178f4:	eff9                	bnez	a5,fff10179d2 <spl+0x7952>
  fff10178f6:	8ebe                	mv	t4,a5
  fff10178f8:	17b7be43          	fmadd.q	ft8,fa5,fs11,ft2,rup
  fff10178fc:	8ed5                	or	a3,a3,a3
  fff10178fe:	60b0                	ld	a2,64(s1)
  fff1017900:	a3e8                	fsd	fa0,192(a5)
  fff1017902:	d6d6                	sw	s5,108(sp)
  fff1017904:	937e                	add	t1,t1,t6
  fff1017906:	a1d1                	j	fff1017dca <spl+0x7d4a>
  fff1017908:	c2c4                	sw	s1,4(a3)
  fff101790a:	38d8                	fld	fa4,176(s1)
  fff101790c:	f252                	sd	s4,288(sp)
  fff101790e:	4fdf 67f1 d1bb      	0xd1bb67f14fdf
  fff1017914:	a6bc5767          	0xa6bc5767
  fff1017918:	06dd                	addi	a3,a3,23
  fff101791a:	3fb5                	addiw	t6,t6,-19
  fff101791c:	48b2364b          	fnmsub.s	fa2,ft4,fa1,fs1,rup
  fff1017920:	2bda                	fld	fs7,400(sp)
  fff1017922:	d80d                	beqz	s0,fff1017854 <spl+0x77d4>
  fff1017924:	1b4c                	addi	a1,sp,436
  fff1017926:	af0a                	fsd	ft2,408(sp)
  fff1017928:	4af6                	lw	s5,92(sp)
  fff101792a:	7a603603          	ld	a2,1958(zero) # 7a6 <ROM_BASE-0xfff100f85a>
  fff101792e:	4104                	lw	s1,0(a0)
  fff1017930:	df60efc3          	fmadd.q	ft11,ft1,fs6,fs11,unknown
  fff1017934:	df55                	beqz	a4,fff10178f0 <spl+0x7870>
  fff1017936:	8eefa867          	0x8eefa867
  fff101793a:	316e                	fld	ft2,248(sp)
  fff101793c:	be79                	j	fff10174da <spl+0x745a>
  fff101793e:	4669                	li	a2,26
  fff1017940:	b38c                	fsd	fa1,32(a5)
  fff1017942:	cb61                	beqz	a4,fff1017a12 <spl+0x7992>
  fff1017944:	831a                	mv	t1,t1
  fff1017946:	bc66                	fsd	fs9,56(sp)
  fff1017948:	d2a0                	sw	s0,96(a3)
  fff101794a:	e236256f          	jal	a0,fff0f7a76c <ROM_BASE-0x95894>
  fff101794e:	5268                	lw	a0,100(a2)
  fff1017950:	7795                	lui	a5,0xfffe5
  fff1017952:	cc0c                	sw	a1,24(s0)
  fff1017954:	bb0b4703          	lbu	a4,-1104(s6)
  fff1017958:	16b9                	addi	a3,a3,-18
  fff101795a:	2202                	fld	ft4,0(sp)
  fff101795c:	5505262f          	0x5505262f
  fff1017960:	3bbe                	fld	fs7,488(sp)
  fff1017962:	c5ba                	sw	a4,200(sp)
  fff1017964:	0b28                	addi	a0,sp,408
  fff1017966:	b2bd                	j	fff10172d4 <spl+0x7254>
  fff1017968:	5a92                	lw	s5,36(sp)
  fff101796a:	2bb4                	fld	fa3,80(a5)
  fff101796c:	6a04                	ld	s1,16(a2)
  fff101796e:	ffa75cb3          	cmov	s9,s10,a4,t6
  fff1017972:	cf31c2d7          	0xcf31c2d7
  fff1017976:	b5d0                	fsd	fa2,168(a1)
  fff1017978:	2cd99e8b          	0x2cd99e8b
  fff101797c:	ae1d                	j	fff1017cb2 <spl+0x7c32>
  fff101797e:	5bde                	lw	s7,244(sp)
  fff1017980:	c2b0                	sw	a2,64(a3)
  fff1017982:	9b64                	0x9b64
  fff1017984:	f226                	sd	s1,288(sp)
  fff1017986:	a39cec63          	bltu	s9,s9,fff1016bbe <spl+0x6b3e>
  fff101798a:	756a                	ld	a0,184(sp)
  fff101798c:	930a                	add	t1,t1,sp
  fff101798e:	026d                	addi	tp,tp,27
  fff1017990:	06a9                	addi	a3,a3,10
  fff1017992:	9c09                	subw	s0,s0,a0
  fff1017994:	eb0e363f 72076785 	0x72076785eb0e363f
  fff101799c:	05005713          	fsri	a4,zero,zero,0x10
  fff10179a0:	4a82                	lw	s5,0(sp)
  fff10179a2:	7a1495bf 2baee2b8 	0x2baee2b87a1495bf
  fff10179aa:	7bb1                	lui	s7,0xfffec
  fff10179ac:	1b38                	addi	a4,sp,440
  fff10179ae:	0cb6                	slli	s9,s9,0xd
  fff10179b0:	92d28e9b          	addiw	t4,t0,-1747
  fff10179b4:	be0d                	j	fff10174e6 <spl+0x7466>
  fff10179b6:	e5d5                	bnez	a1,fff1017a62 <spl+0x79e2>
  fff10179b8:	7cdcefb7          	lui	t6,0x7cdce
  fff10179bc:	df21                	beqz	a4,fff1017914 <spl+0x7894>
  fff10179be:	d2d40bdb          	0xd2d40bdb
  fff10179c2:	e24286d3          	0xe24286d3
  fff10179c6:	f1d4                	sd	a3,160(a1)
  fff10179c8:	b3f8                	fsd	fa4,224(a5)
  fff10179ca:	68dd                	lui	a7,0x17
  fff10179cc:	836e                	mv	t1,s11
  fff10179ce:	1fda                	slli	t6,t6,0x36
  fff10179d0:	16cd                	addi	a3,a3,-13
  fff10179d2:	81be                	mv	gp,a5
  fff10179d4:	f6b9265b          	0xf6b9265b
  fff10179d8:	77e1                	lui	a5,0xffff8
  fff10179da:	6fb0                	ld	a2,88(a5)
  fff10179dc:	18b74777          	0x18b74777
  fff10179e0:	5ae6                	lw	s5,120(sp)
  fff10179e2:	8808                	0x8808
  fff10179e4:	6a70                	ld	a2,208(a2)
  fff10179e6:	3bcaff0f          	0x3bcaff0f
  fff10179ea:	6606                	ld	a2,64(sp)
  fff10179ec:	0b5c                	addi	a5,sp,404
  fff10179ee:	1101                	addi	sp,sp,-32
  fff10179f0:	9eff                	0x9eff
  fff10179f2:	8f65                	and	a4,a4,s1
  fff10179f4:	ae69                	j	fff1017d8e <spl+0x7d0e>
  fff10179f6:	f862                	sd	s8,48(sp)
  fff10179f8:	616bffd3          	0x616bffd3
  fff10179fc:	cf45                	beqz	a4,fff1017ab4 <spl+0x7a34>
  fff10179fe:	166c                	addi	a1,sp,812
  fff1017a00:	e278                	sd	a4,192(a2)
  fff1017a02:	a00a                	fsd	ft2,0(sp)
  fff1017a04:	d2ee                	sw	s11,100(sp)
  fff1017a06:	d70d                	beqz	a4,fff1017930 <spl+0x78b0>
  fff1017a08:	8354                	0x8354
  fff1017a0a:	4e04                	lw	s1,24(a2)
  fff1017a0c:	b3c2                	fsd	fa6,480(sp)
  fff1017a0e:	26613903          	ld	s2,614(sp)
  fff1017a12:	16f7a767          	0x16f7a767
  fff1017a16:	d060                	sw	s0,100(s0)
  fff1017a18:	474d                	li	a4,19
  fff1017a1a:	4969                	li	s2,26
  fff1017a1c:	3e6e77db          	0x3e6e77db
  fff1017a20:	6a4a                	ld	s4,144(sp)
  fff1017a22:	aed1                	j	fff1017df6 <spl+0x7d76>
  fff1017a24:	5adc                	lw	a5,52(a3)
  fff1017a26:	d9d6                	sw	s5,240(sp)
  fff1017a28:	0b66                	slli	s6,s6,0x19
  fff1017a2a:	40df 3bf0 37d8      	0x37d83bf040df
  fff1017a30:	a9bcae53          	0xa9bcae53
  fff1017a34:	9ec5                	0x9ec5
  fff1017a36:	cf7fdebb          	0xcf7fdebb
  fff1017a3a:	47b2                	lw	a5,12(sp)
  fff1017a3c:	ffe9                	bnez	a5,fff1017a16 <spl+0x7996>
  fff1017a3e:	30b5                	addiw	ra,ra,-19
  fff1017a40:	f21c                	sd	a5,32(a2)
  fff1017a42:	bdbd                	j	fff10178c0 <spl+0x7840>
  fff1017a44:	c28a                	sw	sp,68(sp)
  fff1017a46:	caba                	sw	a4,84(sp)
  fff1017a48:	9330                	0x9330
  fff1017a4a:	a3a653b3          	0xa3a653b3
  fff1017a4e:	24b4                	fld	fa3,72(s1)
  fff1017a50:	3605                	addiw	a2,a2,-31
  fff1017a52:	bad0                	fsd	fa2,176(a3)
  fff1017a54:	cdd70693          	addi	a3,a4,-803
  fff1017a58:	5729                	li	a4,-22
  fff1017a5a:	54de                	lw	s1,244(sp)
  fff1017a5c:	23d967bf b3667a2e 	0xb3667a2e23d967bf
  fff1017a64:	4ab8                	lw	a4,80(a3)
  fff1017a66:	c461                	beqz	s0,fff1017b2e <spl+0x7aae>
  fff1017a68:	1b02                	slli	s6,s6,0x20
  fff1017a6a:	5d68                	lw	a0,124(a0)
  fff1017a6c:	2b94                	fld	fa3,16(a5)
  fff1017a6e:	be372a6f          	jal	s4,fff0f8a650 <ROM_BASE-0x859b0>
  fff1017a72:	8ea1b40b          	0x8ea1b40b
  fff1017a76:	c30c                	sw	a1,0(a4)
  fff1017a78:	5a05df1b          	0x5a05df1b
  fff1017a7c:	ef8d                	bnez	a5,fff1017ab6 <spl+0x7a36>
  fff1017a7e:	2d02                	fld	fs10,0(sp)
  fff1017a80:	aaaaaaab          	0xaaaaaaab
  fff1017a84:	aaaa                	fsd	fa0,336(sp)
  fff1017a86:	aaaa                	fsd	fa0,336(sp)
  fff1017a88:	0000                	unimp
  fff1017a8a:	89e8                	0x89e8
  fff1017a8c:	2304                	fld	fs1,0(a4)
  fff1017a8e:	cccd8ac7          	fmsub.h	fs5,fs11,fa2,fs9,rne
  fff1017a92:	cccc                	sw	a1,28(s1)
  fff1017a94:	cccc                	sw	a1,28(s1)
  fff1017a96:	cccc                	sw	a1,28(s1)
  fff1017a98:	0041                	c.nop	16
  fff1017a9a:	0010                	0x10
  fff1017a9c:	0000                	unimp
  fff1017a9e:	0004                	0x4
  fff1017aa0:	4645                	li	a2,17
  fff1017aa2:	2049                	0x2049
  fff1017aa4:	4150                	lw	a2,4(a0)
  fff1017aa6:	5452                	lw	s0,52(sp)
  fff1017aa8:	4749                	li	a4,18
  fff1017aaa:	4f4e                	lw	t5,208(sp)
  fff1017aac:	4552                	lw	a0,20(sp)
  fff1017aae:	454d                	li	a0,19
  fff1017ab0:	eeeeeeef          	jal	t4,fff100619e <ROM_BASE-0x9e62>
  fff1017ab4:	eeee                	sd	s11,344(sp)
  fff1017ab6:	eeee                	sd	s11,344(sp)
  fff1017ab8:	0000                	unimp
  fff1017aba:	2000                	fld	fs0,0(s0)
  fff1017abc:	0000                	unimp
  fff1017abe:	1000                	addi	s0,sp,32
  fff1017ac0:	9680                	0x9680
  fff1017ac2:	0098                	addi	a4,sp,64
  fff1017ac4:	2d00                	fld	fs0,24(a0)
  fff1017ac6:	0131                	addi	sp,sp,12
  fff1017ac8:	000e                	c.slli	zero,0x3
  fff1017aca:	4000                	lw	s0,0(s0)
  fff1017acc:	0080                	addi	s0,sp,64
  fff1017ace:	0030                	addi	a2,sp,8
  fff1017ad0:	6974                	ld	a3,208(a0)
  fff1017ad2:	742d6b63          	bltu	s10,sp,fff1018228 <spl+0x81a8>
  fff1017ad6:	6d69                	lui	s10,0x1a
  fff1017ad8:	7265                	lui	tp,0xffff9
  fff1017ada:	0000                	unimp
  fff1017adc:	0000                	unimp
  fff1017ade:	0000                	unimp
  fff1017ae0:	6572                	ld	a0,280(sp)
  fff1017ae2:	74746573          	csrrsi	a0,0x747,8
  fff1017ae6:	6e69                	lui	t3,0x1a
  fff1017ae8:	2e2e2067          	0x2e2e2067
  fff1017aec:	0a2e                	slli	s4,s4,0xb
  fff1017aee:	0000                	unimp
  fff1017af0:	6572                	ld	a0,280(sp)
  fff1017af2:	20746573          	csrrsi	a0,0x207,8
  fff1017af6:	6f6e                	ld	t5,216(sp)
  fff1017af8:	2074                	fld	fa3,192(s0)
  fff1017afa:	70707573          	csrrci	a0,0x707,0
  fff1017afe:	6574726f          	jal	tp,fff105f954 <spl+0x4f8d4>
  fff1017b02:	2064                	fld	fs1,192(s0)
  fff1017b04:	6579                	lui	a0,0x1e
  fff1017b06:	0a74                	addi	a3,sp,284
	...
  fff1017b10:	6146                	ld	sp,80(sp)
  fff1017b12:	6c69                	lui	s8,0x1a
  fff1017b14:	6465                	lui	s0,0x19
  fff1017b16:	7420                	ld	s0,104(s0)
  fff1017b18:	7469206f          	j	fff10aa25e <spl+0x9a1de>
  fff1017b1c:	7265                	lui	tp,0xffff9
  fff1017b1e:	7461                	lui	s0,0xffff8
  fff1017b20:	2065                	0x2065
  fff1017b22:	7265766f          	jal	a2,fff106f248 <spl+0x5f1c8>
  fff1017b26:	6420                	ld	s0,72(s0)
  fff1017b28:	7269                	lui	tp,0xffffa
  fff1017b2a:	6365                	lui	t1,0x19
  fff1017b2c:	6f74                	ld	a3,216(a4)
  fff1017b2e:	7972                	ld	s2,312(sp)
  fff1017b30:	2520                	fld	fs0,72(a0)
  fff1017b32:	00000a73          	0xa73
  fff1017b36:	0000                	unimp
  fff1017b38:	443c                	lw	a5,72(s0)
  fff1017b3a:	5249                	li	tp,-14
  fff1017b3c:	203e                	fld	ft0,456(sp)
  fff1017b3e:	0000                	unimp
  fff1017b40:	533c                	lw	a5,96(a4)
  fff1017b42:	4d59                	li	s10,22
  fff1017b44:	203e                	fld	ft0,456(sp)
  fff1017b46:	0000                	unimp
  fff1017b48:	2020                	fld	fs0,64(s0)
  fff1017b4a:	2020                	fld	fs0,64(s0)
  fff1017b4c:	2020                	fld	fs0,64(s0)
  fff1017b4e:	0000                	unimp
  fff1017b50:	203c                	fld	fa5,64(s0)
  fff1017b52:	203e203f 31250000 	0x31250000203e203f
  fff1017b5a:	7530                	ld	a2,104(a0)
  fff1017b5c:	2520                	fld	fs0,72(a0)
  fff1017b5e:	00000a73          	0xa73
	...
  fff1017b6a:	4000                	lw	s0,0(s0)
  fff1017b6c:	0001                	nop
  fff1017b6e:	0000                	unimp
  fff1017b70:	0006                	c.slli	zero,0x1
  fff1017b72:	0000                	unimp
  fff1017b74:	0000                	unimp
  fff1017b76:	2000                	fld	fs0,0(s0)
  fff1017b78:	0001                	nop
  fff1017b7a:	0000                	unimp
  fff1017b7c:	0005                	c.nop	1
  fff1017b7e:	0000                	unimp
  fff1017b80:	0000                	unimp
  fff1017b82:	4000                	lw	s0,0(s0)
  fff1017b84:	0000                	unimp
  fff1017b86:	0000                	unimp
  fff1017b88:	0002                	c.slli64	zero
  fff1017b8a:	0000                	unimp
  fff1017b8c:	0000                	unimp
  fff1017b8e:	2000                	fld	fs0,0(s0)
  fff1017b90:	0000                	unimp
  fff1017b92:	0000                	unimp
  fff1017b94:	0001                	nop
  fff1017b96:	0000                	unimp
  fff1017b98:	0000                	unimp
  fff1017b9a:	1000                	addi	s0,sp,32
	...
  fff1017ba8:	2710                	fld	fa2,8(a4)
  fff1017baa:	0000                	unimp
  fff1017bac:	86a0                	0x86a0
  fff1017bae:	0001                	nop
  fff1017bb0:	4240                	lw	s0,4(a2)
  fff1017bb2:	9680000f          	0x9680000f
  fff1017bb6:	0098                	addi	a4,sp,64
  fff1017bb8:	64646123          	0x64646123
  fff1017bbc:	6572                	ld	a0,280(sp)
  fff1017bbe:	632d7373          	csrrci	t1,0x632,26
  fff1017bc2:	6c65                	lui	s8,0x19
  fff1017bc4:	736c                	ld	a1,224(a4)
  fff1017bc6:	0000                	unimp
  fff1017bc8:	696c612f          	0x696c612f
  fff1017bcc:	7361                	lui	t1,0xffff8
  fff1017bce:	7365                	lui	t1,0xffff9
	...
  fff1017bd8:	7a697323          	0x7a697323
  fff1017bdc:	2d65                	addiw	s10,s10,25
  fff1017bde:	6c6c6563          	bltu	s8,t1,fff10182a8 <spl+0x8228>
  fff1017be2:	00000073          	ecall
  fff1017be6:	0000                	unimp
  fff1017be8:	694d                	lui	s2,0x13
  fff1017bea:	6e697373          	csrrci	t1,0x6e6,18
  fff1017bee:	54442067          	0x54442067
  fff1017bf2:	0a42                	slli	s4,s4,0x10
  fff1017bf4:	0000                	unimp
  fff1017bf6:	0000                	unimp
  fff1017bf8:	6f68632f          	0x6f68632f
  fff1017bfc:	006e6573          	csrrsi	a0,0x6,28
  fff1017c00:	74617473          	csrrci	s0,0x746,2
  fff1017c04:	7375                	lui	t1,0xffffd
  fff1017c06:	0000                	unimp
  fff1017c08:	79616b6f          	jal	s6,fff102e39e <spl+0x1e31e>
  fff1017c0c:	0000                	unimp
  fff1017c0e:	0000                	unimp
  fff1017c10:	4d4d                	li	s10,19
  fff1017c12:	65442043          	fmadd.h	ft0,fs0,fs4,fa2,rdn
  fff1017c16:	6976                	ld	s2,344(sp)
  fff1017c18:	25206563          	bltu	zero,s2,fff1017e62 <spl+0x7de2>
  fff1017c1c:	2064                	fld	fs1,192(s0)
  fff1017c1e:	6f6e                	ld	t5,216(sp)
  fff1017c20:	2074                	fld	fa3,192(s0)
  fff1017c22:	6f66                	ld	t5,88(sp)
  fff1017c24:	6e75                	lui	t3,0x1d
  fff1017c26:	0a64                	addi	s1,sp,284
	...
  fff1017c30:	7840                	ld	s0,176(s0)
  fff1017c32:	017d                	addi	sp,sp,31
  fff1017c34:	ba80                	fsd	fs0,48(a3)
  fff1017c36:	018c                	addi	a1,sp,192
  fff1017c38:	f080                	sd	s0,32(s1)
  fff1017c3a:	02fa                	slli	t0,t0,0x1e
  fff1017c3c:	7500                	ld	s0,40(a0)
  fff1017c3e:	0319                	addi	t1,t1,6
  fff1017c40:	7500                	ld	s0,40(a0)
  fff1017c42:	0319                	addi	t1,t1,6
  fff1017c44:	7840                	ld	s0,176(s0)
  fff1017c46:	017d                	addi	sp,sp,31
  fff1017c48:	f080                	sd	s0,32(s1)
  fff1017c4a:	02fa                	slli	t0,t0,0x1e
  fff1017c4c:	e100                	sd	s0,0(a0)
  fff1017c4e:	05f5                	addi	a1,a1,29
  fff1017c50:	f080                	sd	s0,32(s1)
  fff1017c52:	02fa                	slli	t0,t0,0x1e
  fff1017c54:	d400                	sw	s0,40(s0)
  fff1017c56:	0c65                	addi	s8,s8,25
  fff1017c58:	c200                	sw	s0,0(a2)
  fff1017c5a:	c2000beb          	0xc2000beb
  fff1017c5e:	c2000beb          	0xc2000beb
  fff1017c62:	00000beb          	0xbeb
  fff1017c66:	0000                	unimp
  fff1017c68:	2a2a                	fld	fs4,136(sp)
  fff1017c6a:	4920                	lw	s0,80(a0)
  fff1017c6c:	766e                	ld	a2,248(sp)
  fff1017c6e:	6c61                	lui	s8,0x18
  fff1017c70:	6469                	lui	s0,0x1a
  fff1017c72:	4220                	lw	s0,64(a2)
  fff1017c74:	6f6c                	ld	a1,216(a4)
  fff1017c76:	44206b63          	bltu	zero,sp,fff10180cc <spl+0x804c>
  fff1017c7a:	7665                	lui	a2,0xffff9
  fff1017c7c:	6369                	lui	t1,0x1a
  fff1017c7e:	2065                	0x2065
  fff1017c80:	6544                	ld	s1,136(a0)
  fff1017c82:	69726373          	csrrsi	t1,0x697,4
  fff1017c86:	7470                	ld	a2,232(s0)
  fff1017c88:	2820726f          	jal	tp,fff101ef0a <spl+0xee8a>
  fff1017c8c:	554e                	lw	a0,240(sp)
  fff1017c8e:	4c4c                	lw	a1,28(s0)
  fff1017c90:	0a29                	addi	s4,s4,10
  fff1017c92:	0000                	unimp
  fff1017c94:	0000                	unimp
  fff1017c96:	0000                	unimp
  fff1017c98:	2a20                	fld	fs0,80(a2)
  fff1017c9a:	202a                	fld	ft0,136(sp)
  fff1017c9c:	7325                	lui	t1,0xfffe9
  fff1017c9e:	7220                	ld	s0,96(a2)
  fff1017ca0:	6165                	addi	sp,sp,112
  fff1017ca2:	2064                	fld	fs1,192(s0)
  fff1017ca4:	7265                	lui	tp,0xffff9
  fff1017ca6:	6f72                	ld	t5,280(sp)
  fff1017ca8:	2072                	fld	ft0,280(sp)
  fff1017caa:	2a2a                	fld	fs4,136(sp)
  fff1017cac:	000a                	c.slli	zero,0x2
  fff1017cae:	0000                	unimp
  fff1017cb0:	2a20                	fld	fs0,80(a2)
  fff1017cb2:	202a                	fld	ft0,136(sp)
  fff1017cb4:	7325                	lui	t1,0xfffe9
  fff1017cb6:	7220                	ld	s0,96(a2)
  fff1017cb8:	6165                	addi	sp,sp,112
  fff1017cba:	2064                	fld	fs1,192(s0)
  fff1017cbc:	7265                	lui	tp,0xffff9
  fff1017cbe:	6f72                	ld	t5,280(sp)
  fff1017cc0:	2072                	fld	ft0,280(sp)
  fff1017cc2:	202d                	0x202d
  fff1017cc4:	6c62                	ld	s8,24(sp)
  fff1017cc6:	0a6b636f          	jal	t1,fff10cdd6c <spl+0xbdcec>
  fff1017cca:	0000                	unimp
  fff1017ccc:	0000                	unimp
  fff1017cce:	0000                	unimp
  fff1017cd0:	202a                	fld	ft0,136(sp)
  fff1017cd2:	7325                	lui	t1,0xfffe9
  fff1017cd4:	7220                	ld	s0,96(a2)
  fff1017cd6:	6165                	addi	sp,sp,112
  fff1017cd8:	2064                	fld	fs1,192(s0)
  fff1017cda:	7265                	lui	tp,0xffff9
  fff1017cdc:	6f72                	ld	t5,280(sp)
  fff1017cde:	2072                	fld	ft0,280(sp)
  fff1017ce0:	202d                	0x202d
  fff1017ce2:	616c                	ld	a1,192(a0)
  fff1017ce4:	70207473          	csrrci	s0,0x702,0
  fff1017ce8:	7261                	lui	tp,0xffff8
  fff1017cea:	0a74                	addi	a3,sp,284
  fff1017cec:	0000                	unimp
  fff1017cee:	0000                	unimp
  fff1017cf0:	6c756f43          	fmadd.h	ft10,fa0,ft7,fa3,unknown
  fff1017cf4:	2064                	fld	fs1,192(s0)
  fff1017cf6:	6f6e                	ld	t5,216(sp)
  fff1017cf8:	2074                	fld	fa3,192(s0)
  fff1017cfa:	6e69                	lui	t3,0x1a
  fff1017cfc:	7469                	lui	s0,0xffffa
  fff1017cfe:	6169                	addi	sp,sp,208
  fff1017d00:	696c                	ld	a1,208(a0)
  fff1017d02:	657a                	ld	a0,408(sp)
  fff1017d04:	7420                	ld	s0,104(s0)
  fff1017d06:	6d69                	lui	s10,0x1a
  fff1017d08:	7265                	lui	tp,0xffff9
  fff1017d0a:	2820                	fld	fs0,80(s0)
  fff1017d0c:	7265                	lui	tp,0xffff9
  fff1017d0e:	2072                	fld	ft0,280(sp)
  fff1017d10:	6425                	lui	s0,0x9
  fff1017d12:	0a29                	addi	s4,s4,10
  fff1017d14:	0000                	unimp
  fff1017d16:	0000                	unimp
  fff1017d18:	6c756f43          	fmadd.h	ft10,fa0,ft7,fa3,unknown
  fff1017d1c:	2064                	fld	fs1,192(s0)
  fff1017d1e:	6f6e                	ld	t5,216(sp)
  fff1017d20:	2074                	fld	fa3,192(s0)
  fff1017d22:	6572                	ld	a0,280(sp)
  fff1017d24:	6461                	lui	s0,0x18
  fff1017d26:	6320                	ld	s0,64(a4)
  fff1017d28:	746e756f          	jal	a0,fff10ff46e <spl+0xef3ee>
  fff1017d2c:	6620                	ld	s0,72(a2)
  fff1017d2e:	6f72                	ld	t5,280(sp)
  fff1017d30:	206d                	0x206d
  fff1017d32:	6974                	ld	a3,208(a0)
  fff1017d34:	656d                	lui	a0,0x1b
  fff1017d36:	2072                	fld	ft0,280(sp)
  fff1017d38:	6528                	ld	a0,72(a0)
  fff1017d3a:	7272                	ld	tp,312(sp)
  fff1017d3c:	2520                	fld	fs0,72(a0)
  fff1017d3e:	2964                	fld	fs1,208(a0)
  fff1017d40:	000a                	c.slli	zero,0x2
  fff1017d42:	0000                	unimp
  fff1017d44:	0000                	unimp
  fff1017d46:	0000                	unimp
  fff1017d48:	6e6e6143          	fmadd.q	ft2,ft8,ft6,fa3,unknown
  fff1017d4c:	6320746f          	jal	s0,fff101f37e <spl+0xf2fe>
  fff1017d50:	656c                	ld	a1,200(a0)
  fff1017d52:	7261                	lui	tp,0xffff8
  fff1017d54:	4920                	lw	s0,80(a0)
  fff1017d56:	4950                	lw	a2,20(a0)
  fff1017d58:	6f20                	ld	s0,88(a4)
  fff1017d5a:	2066                	fld	ft0,88(sp)
  fff1017d5c:	6168                	ld	a0,192(a0)
  fff1017d5e:	7472                	ld	s0,312(sp)
  fff1017d60:	2520                	fld	fs0,72(a0)
  fff1017d62:	646c                	ld	a1,200(s0)
  fff1017d64:	2820                	fld	fs0,80(s0)
  fff1017d66:	7265                	lui	tp,0xffff9
  fff1017d68:	6f72                	ld	t5,280(sp)
  fff1017d6a:	2072                	fld	ft0,280(sp)
  fff1017d6c:	6425                	lui	s0,0x9
  fff1017d6e:	0a29                	addi	s4,s4,10
	...
  fff1017d78:	20232323          	sw	sp,518(t1) # fffffffffffe9206 <spl+0xffffff000efd9186>
  fff1017d7c:	5245                	li	tp,-15
  fff1017d7e:	4f52                	lw	t5,20(sp)
  fff1017d80:	2052                	fld	ft0,272(sp)
  fff1017d82:	20232323          	sw	sp,518(t1)
  fff1017d86:	6c50                	ld	a2,152(s0)
  fff1017d88:	6165                	addi	sp,sp,112
  fff1017d8a:	52206573          	csrrsi	a0,0x522,0
  fff1017d8e:	5345                	li	t1,-15
  fff1017d90:	5445                	li	s0,-15
  fff1017d92:	7420                	ld	s0,104(s0)
  fff1017d94:	6568                	ld	a0,200(a0)
  fff1017d96:	6220                	ld	s0,64(a2)
  fff1017d98:	6472616f          	jal	sp,fff103ebde <spl+0x2eb5e>
  fff1017d9c:	2320                	fld	fs0,64(a4)
  fff1017d9e:	000a2323          	sw	zero,6(s4)
  fff1017da2:	0000                	unimp
  fff1017da4:	0000                	unimp
  fff1017da6:	0000                	unimp
  fff1017da8:	706d6f63          	bltu	s10,t1,fff10184c6 <spl+0x8446>
  fff1017dac:	7461                	lui	s0,0xffff8
  fff1017dae:	6269                	lui	tp,0x1a
  fff1017db0:	656c                	ld	a1,200(a0)
  fff1017db2:	0000                	unimp
  fff1017db4:	0000                	unimp
  fff1017db6:	0000                	unimp
  fff1017db8:	6d6d                	lui	s10,0x1b
  fff1017dba:	6c625f63          	bge	tp,t1,fff1018498 <spl+0x8418>
  fff1017dbe:	4d4d006b          	0x4d4d006b
  fff1017dc2:	62203a43          	fmadd.d	fs4,ft0,ft2,fa2,rup
  fff1017dc6:	6f6c                	ld	a1,216(a4)
  fff1017dc8:	6e206b63          	bltu	zero,sp,fff10184be <spl+0x843e>
  fff1017dcc:	6d75                	lui	s10,0x1d
  fff1017dce:	6562                	ld	a0,24(sp)
  fff1017dd0:	2072                	fld	ft0,280(sp)
  fff1017dd2:	7830                	ld	a2,112(s0)
  fff1017dd4:	6c25                	lui	s8,0x9
  fff1017dd6:	2078                	fld	fa4,192(s0)
  fff1017dd8:	7865                	lui	a6,0xffff9
  fff1017dda:	64656563          	bltu	a0,t1,fff1018424 <spl+0x83a4>
  fff1017dde:	616d2073          	csrs	0x616,s10
  fff1017de2:	2878                	fld	fa4,208(s0)
  fff1017de4:	7830                	ld	a2,112(s0)
  fff1017de6:	6c25                	lui	s8,0x9
  fff1017de8:	2978                	fld	fa4,208(a0)
  fff1017dea:	000a                	c.slli	zero,0x2
  fff1017dec:	0000                	unimp
  fff1017dee:	0000                	unimp
  fff1017df0:	6d6d                	lui	s10,0x1b
  fff1017df2:	61662063          	0x61662063
  fff1017df6:	6c69                	lui	s8,0x1a
  fff1017df8:	7420                	ld	s0,104(s0)
  fff1017dfa:	6573206f          	j	fff104ac50 <spl+0x3abd0>
  fff1017dfe:	646e                	ld	s0,216(sp)
  fff1017e00:	7320                	ld	s0,96(a4)
  fff1017e02:	6f74                	ld	a3,216(a4)
  fff1017e04:	2070                	fld	fa2,192(s0)
  fff1017e06:	0a646d63          	bltu	s0,t1,fff1017ec0 <spl+0x7e40>
  fff1017e0a:	0000                	unimp
  fff1017e0c:	0000                	unimp
  fff1017e0e:	0000                	unimp
  fff1017e10:	64726143          	fmadd.h	ft2,ft4,ft7,fa2,unknown
  fff1017e14:	6420                	ld	s0,72(s0)
  fff1017e16:	6469                	lui	s0,0x1a
  fff1017e18:	6e20                	ld	s0,88(a2)
  fff1017e1a:	7220746f          	jal	s0,fff101f53c <spl+0xf4bc>
  fff1017e1e:	7365                	lui	t1,0xffff9
  fff1017e20:	6f70                	ld	a2,216(a4)
  fff1017e22:	646e                	ld	s0,216(sp)
  fff1017e24:	7420                	ld	s0,104(s0)
  fff1017e26:	6f76206f          	j	fff107ad1c <spl+0x6ac9c>
  fff1017e2a:	746c                	ld	a1,232(s0)
  fff1017e2c:	6761                	lui	a4,0x18
  fff1017e2e:	2065                	0x2065
  fff1017e30:	656c6573          	csrrsi	a0,0x656,24
  fff1017e34:	20217463          	bgeu	sp,sp,fff101803c <spl+0x7fbc>
  fff1017e38:	203a                	fld	ft0,392(sp)
  fff1017e3a:	6425                	lui	s0,0x9
  fff1017e3c:	000a                	c.slli	zero,0x2
  fff1017e3e:	0000                	unimp
  fff1017e40:	6e75                	lui	t3,0x1d
  fff1017e42:	6261                	lui	tp,0x18
  fff1017e44:	656c                	ld	a1,200(a0)
  fff1017e46:	7420                	ld	s0,104(s0)
  fff1017e48:	6573206f          	j	fff104ac9e <spl+0x3ac1e>
  fff1017e4c:	656c                	ld	a1,200(a0)
  fff1017e4e:	61207463          	bgeu	zero,s2,fff1018456 <spl+0x83d6>
  fff1017e52:	6d20                	ld	s0,88(a0)
  fff1017e54:	0a65646f          	jal	s0,fff106defa <spl+0x5de7a>
	...
  fff1017e60:	6f4e                	ld	t5,208(sp)
  fff1017e62:	6520                	ld	s0,72(a0)
  fff1017e64:	7478                	ld	a4,232(s0)
  fff1017e66:	635f 6473 6620      	0x66206473635f
  fff1017e6c:	646e756f          	jal	a0,fff10ff4b2 <spl+0xef432>
  fff1017e70:	0a21                	addi	s4,s4,8
  fff1017e72:	0000                	unimp
  fff1017e74:	0000                	unimp
  fff1017e76:	0000                	unimp
  fff1017e78:	656c6553          	0x656c6553
  fff1017e7c:	48207463          	bgeu	zero,sp,fff1018304 <spl+0x8284>
  fff1017e80:	30303453          	0x30303453
  fff1017e84:	6620                	ld	s0,72(a2)
  fff1017e86:	6961                	lui	s2,0x18
  fff1017e88:	656c                	ld	a1,200(a0)
  fff1017e8a:	2064                	fld	fs1,192(s0)
  fff1017e8c:	6425                	lui	s0,0x9
  fff1017e8e:	000a                	c.slli	zero,0x2
  fff1017e90:	656c6553          	0x656c6553
  fff1017e94:	48207463          	bgeu	zero,sp,fff101831c <spl+0x829c>
  fff1017e98:	30303453          	0x30303453
  fff1017e9c:	5345                	li	t1,-15
  fff1017e9e:	6620                	ld	s0,72(a2)
  fff1017ea0:	6961                	lui	s2,0x18
  fff1017ea2:	656c                	ld	a1,200(a0)
  fff1017ea4:	2064                	fld	fs1,192(s0)
  fff1017ea6:	6425                	lui	s0,0x9
  fff1017ea8:	000a                	c.slli	zero,0x2
  fff1017eaa:	0000                	unimp
  fff1017eac:	0000                	unimp
  fff1017eae:	0000                	unimp
  fff1017eb0:	6e75                	lui	t3,0x1d
  fff1017eb2:	6261                	lui	tp,0x18
  fff1017eb4:	656c                	ld	a1,200(a0)
  fff1017eb6:	7420                	ld	s0,104(s0)
  fff1017eb8:	6573206f          	j	fff104ad0e <spl+0x3ac8e>
  fff1017ebc:	656c                	ld	a1,200(a0)
  fff1017ebe:	61207463          	bgeu	zero,s2,fff10184c6 <spl+0x8446>
  fff1017ec2:	6d20                	ld	s0,88(a0)
  fff1017ec4:	2065646f          	jal	s0,fff106e0ca <spl+0x5e04a>
  fff1017ec8:	203a                	fld	ft0,392(sp)
  fff1017eca:	6425                	lui	s0,0x9
  fff1017ecc:	000a                	c.slli	zero,0x2
  fff1017ece:	0000                	unimp
  fff1017ed0:	0004                	0x4
  fff1017ed2:	0000                	unimp
  fff1017ed4:	0000                	unimp
  fff1017ed6:	6000                	ld	s0,0(s0)
  fff1017ed8:	00000003          	lb	zero,0(zero) # 0 <ROM_BASE-0xfff1010000>
  fff1017edc:	0000                	unimp
  fff1017ede:	7000                	ld	s0,32(s0)
  fff1017ee0:	0001                	nop
  fff1017ee2:	0000                	unimp
  fff1017ee4:	0000                	unimp
  fff1017ee6:	7000                	ld	s0,32(s0)
  fff1017ee8:	0000                	unimp
  fff1017eea:	0000                	unimp
  fff1017eec:	0000                	unimp
  fff1017eee:	7000                	ld	s0,32(s0)
  fff1017ef0:	4d4d                	li	s10,19
  fff1017ef2:	6e203a43          	fmadd.q	fs4,ft0,ft2,fa3,rup
  fff1017ef6:	6163206f          	j	fff104a50c <spl+0x3a48c>
  fff1017efa:	6472                	ld	s0,280(sp)
  fff1017efc:	7020                	ld	s0,96(s0)
  fff1017efe:	6572                	ld	a0,280(sp)
  fff1017f00:	746e6573          	csrrsi	a0,0x746,28
  fff1017f04:	000a                	c.slli	zero,0x2
  fff1017f06:	0000                	unimp
  fff1017f08:	0000                	unimp
  fff1017f0a:	4004                	lw	s1,0(s0)
  fff1017f0c:	0100                	addi	s0,sp,128
  fff1017f0e:	4004                	lw	s1,0(s0)
  fff1017f10:	0200                	addi	s0,sp,256
  fff1017f12:	4004                	lw	s1,0(s0)
  fff1017f14:	0300                	addi	s0,sp,384
  fff1017f16:	4004                	lw	s1,0(s0)
  fff1017f18:	0400                	addi	s0,sp,512
  fff1017f1a:	4004                	lw	s1,0(s0)
  fff1017f1c:	0401                	addi	s0,s0,0
  fff1017f1e:	4004                	lw	s1,0(s0)
  fff1017f20:	0500                	addi	s0,sp,640
  fff1017f22:	4004                	lw	s1,0(s0)
  fff1017f24:	0000                	unimp
  fff1017f26:	4005                	c.li	zero,1
  fff1017f28:	0100                	addi	s0,sp,128
  fff1017f2a:	4005                	c.li	zero,1
  fff1017f2c:	0000                	unimp
  fff1017f2e:	0000                	unimp
  fff1017f30:	0a00                	addi	s0,sp,272
  fff1017f32:	0d0c                	addi	a1,sp,656
  fff1017f34:	1e19140f          	0x1e19140f
  fff1017f38:	322d2823          	sw	sp,816(s10) # 1b330 <ROM_BASE-0xfff0ff4cd0>
  fff1017f3c:	50463c37          	lui	s8,0x50463
  fff1017f40:	6572                	ld	a0,280(sp)
  fff1017f42:	666f2d67          	0x666f2d67
  fff1017f46:	7366                	ld	t1,120(sp)
  fff1017f48:	7465                	lui	s0,0xffff9
  fff1017f4a:	0000                	unimp
  fff1017f4c:	0000                	unimp
  fff1017f4e:	0000                	unimp
  fff1017f50:	6572                	ld	a0,280(sp)
  fff1017f52:	68732d67          	0x68732d67
  fff1017f56:	6669                	lui	a2,0x1a
  fff1017f58:	0074                	addi	a3,sp,12
  fff1017f5a:	0000                	unimp
  fff1017f5c:	0000                	unimp
  fff1017f5e:	0000                	unimp
  fff1017f60:	6572                	ld	a0,280(sp)
  fff1017f62:	6f692d67          	0x6f692d67
  fff1017f66:	772d                	lui	a4,0xfffeb
  fff1017f68:	6469                	lui	s0,0x1a
  fff1017f6a:	6874                	ld	a3,208(s0)
  fff1017f6c:	0000                	unimp
  fff1017f6e:	0000                	unimp
  fff1017f70:	636f6c63          	bltu	t5,s6,fff10185a8 <spl+0x8528>
  fff1017f74:	72662d6b          	0x72662d6b
  fff1017f78:	7165                	addi	sp,sp,-400
  fff1017f7a:	6575                	lui	a0,0x1d
  fff1017f7c:	636e                	ld	t1,216(sp)
  fff1017f7e:	0079                	c.nop	30
  fff1017f80:	7325                	lui	t1,0xfffe9
  fff1017f82:	253a                	fld	fa0,392(sp)
  fff1017f84:	0064                	addi	s1,sp,12
  fff1017f86:	0000                	unimp
  fff1017f88:	6c62                	ld	s8,24(sp)
  fff1017f8a:	61705f6b          	0x61705f6b
  fff1017f8e:	7472                	ld	s0,312(sp)
  fff1017f90:	7469                	lui	s0,0xffffa
  fff1017f92:	6f69                	lui	t5,0x1a
  fff1017f94:	006e                	c.slli	zero,0x1b
  fff1017f96:	0000                	unimp
  fff1017f98:	7325                	lui	t1,0xfffe9
  fff1017f9a:	0000                	unimp
  fff1017f9c:	0000                	unimp
  fff1017f9e:	0000                	unimp
  fff1017fa0:	4950                	lw	a2,20(a0)
  fff1017fa2:	4f54                	lw	a3,28(a4)
  fff1017fa4:	204e                	fld	ft0,208(sp)
  fff1017fa6:	4d4d                	li	s10,19
  fff1017fa8:	00000043          	fmadd.s	ft0,ft0,ft0,ft0,rne
  fff1017fac:	0000                	unimp
  fff1017fae:	0000                	unimp
  fff1017fb0:	6e69                	lui	t3,0x1a
  fff1017fb2:	6176                	ld	sp,344(sp)
  fff1017fb4:	696c                	ld	a1,208(a0)
  fff1017fb6:	2064                	fld	fs1,192(s0)
  fff1017fb8:	7865                	lui	a6,0xffff9
  fff1017fba:	6574                	ld	a3,200(a0)
  fff1017fbc:	746e                	ld	s0,248(sp)
  fff1017fbe:	6220                	ld	s0,64(a2)
  fff1017fc0:	6f6c                	ld	a1,216(a4)
  fff1017fc2:	000a6b63          	bltu	s4,zero,fff1017fd8 <spl+0x7f58>
  fff1017fc6:	0000                	unimp
  fff1017fc8:	2a2a                	fld	fs4,136(sp)
  fff1017fca:	5320                	lw	s0,96(a4)
  fff1017fcc:	2049                	0x2049
  fff1017fce:	7865                	lui	a6,0xffff9
  fff1017fd0:	3274                	fld	fa3,224(a2)
  fff1017fd2:	7366                	ld	t1,120(sp)
  fff1017fd4:	7220                	ld	s0,96(a2)
  fff1017fd6:	6165                	addi	sp,sp,112
  fff1017fd8:	2064                	fld	fs1,192(s0)
  fff1017fda:	6c62                	ld	s8,24(sp)
  fff1017fdc:	206b636f          	jal	t1,fff10ce1e2 <spl+0xbe162>
  fff1017fe0:	6928                	ld	a0,80(a0)
  fff1017fe2:	646e                	ld	s0,216(sp)
  fff1017fe4:	7269                	lui	tp,0xffffa
  fff1017fe6:	3120                	fld	fs0,96(a0)
  fff1017fe8:	6d29                	lui	s10,0xa
  fff1017fea:	6c61                	lui	s8,0x18
  fff1017fec:	6f6c                	ld	a1,216(a4)
  fff1017fee:	61662063          	0x61662063
  fff1017ff2:	6c69                	lui	s8,0x1a
  fff1017ff4:	6465                	lui	s0,0x19
  fff1017ff6:	202e                	fld	ft0,200(sp)
  fff1017ff8:	2a2a                	fld	fs4,136(sp)
  fff1017ffa:	000a                	c.slli	zero,0x2
  fff1017ffc:	0000                	unimp
  fff1017ffe:	0000                	unimp
  fff1018000:	2a2a                	fld	fs4,136(sp)
  fff1018002:	5320                	lw	s0,96(a4)
  fff1018004:	2049                	0x2049
  fff1018006:	7865                	lui	a6,0xffff9
  fff1018008:	3274                	fld	fa3,224(a2)
  fff101800a:	7366                	ld	t1,120(sp)
  fff101800c:	7220                	ld	s0,96(a2)
  fff101800e:	6165                	addi	sp,sp,112
  fff1018010:	2064                	fld	fs1,192(s0)
  fff1018012:	6c62                	ld	s8,24(sp)
  fff1018014:	206b636f          	jal	t1,fff10ce21a <spl+0xbe19a>
  fff1018018:	6928                	ld	a0,80(a0)
  fff101801a:	646e                	ld	s0,216(sp)
  fff101801c:	7269                	lui	tp,0xffffa
  fff101801e:	3120                	fld	fs0,96(a0)
  fff1018020:	3a29                	addiw	s4,s4,-22
  fff1018022:	616d                	addi	sp,sp,240
  fff1018024:	6c6c                	ld	a1,216(s0)
  fff1018026:	6620636f          	jal	t1,fff101e688 <spl+0xe608>
  fff101802a:	6961                	lui	s2,0x18
  fff101802c:	656c                	ld	a1,200(a0)
  fff101802e:	2e64                	fld	fs1,216(a2)
  fff1018030:	2a20                	fld	fs0,80(a2)
  fff1018032:	0a2a                	slli	s4,s4,0xa
  fff1018034:	0000                	unimp
  fff1018036:	0000                	unimp
  fff1018038:	2a2a                	fld	fs4,136(sp)
  fff101803a:	5320                	lw	s0,96(a4)
  fff101803c:	2049                	0x2049
  fff101803e:	7865                	lui	a6,0xffff9
  fff1018040:	3274                	fld	fa3,224(a2)
  fff1018042:	7366                	ld	t1,120(sp)
  fff1018044:	7220                	ld	s0,96(a2)
  fff1018046:	6165                	addi	sp,sp,112
  fff1018048:	2064                	fld	fs1,192(s0)
  fff101804a:	6c62                	ld	s8,24(sp)
  fff101804c:	206b636f          	jal	t1,fff10ce252 <spl+0xbe1d2>
  fff1018050:	6928                	ld	a0,80(a0)
  fff1018052:	646e                	ld	s0,216(sp)
  fff1018054:	7269                	lui	tp,0xffffa
  fff1018056:	3120                	fld	fs0,96(a0)
  fff1018058:	6629                	lui	a2,0xa
  fff101805a:	6961                	lui	s2,0x18
  fff101805c:	656c                	ld	a1,200(a0)
  fff101805e:	2e64                	fld	fs1,216(a2)
  fff1018060:	2a20                	fld	fs0,80(a2)
  fff1018062:	0a2a                	slli	s4,s4,0xa
  fff1018064:	0000                	unimp
  fff1018066:	0000                	unimp
  fff1018068:	2a2a                	fld	fs4,136(sp)
  fff101806a:	4420                	lw	s0,72(s0)
  fff101806c:	2049                	0x2049
  fff101806e:	7865                	lui	a6,0xffff9
  fff1018070:	3274                	fld	fa3,224(a2)
  fff1018072:	7366                	ld	t1,120(sp)
  fff1018074:	7220                	ld	s0,96(a2)
  fff1018076:	6165                	addi	sp,sp,112
  fff1018078:	2064                	fld	fs1,192(s0)
  fff101807a:	6c62                	ld	s8,24(sp)
  fff101807c:	206b636f          	jal	t1,fff10ce282 <spl+0xbe202>
  fff1018080:	6928                	ld	a0,80(a0)
  fff1018082:	646e                	ld	s0,216(sp)
  fff1018084:	7269                	lui	tp,0xffffa
  fff1018086:	3220                	fld	fs0,96(a2)
  fff1018088:	3120                	fld	fs0,96(a0)
  fff101808a:	6d29                	lui	s10,0xa
  fff101808c:	6c61                	lui	s8,0x18
  fff101808e:	6f6c                	ld	a1,216(a4)
  fff1018090:	61662063          	0x61662063
  fff1018094:	6c69                	lui	s8,0x1a
  fff1018096:	6465                	lui	s0,0x19
  fff1018098:	202e                	fld	ft0,200(sp)
  fff101809a:	2a2a                	fld	fs4,136(sp)
  fff101809c:	000a                	c.slli	zero,0x2
  fff101809e:	0000                	unimp
  fff10180a0:	2a2a                	fld	fs4,136(sp)
  fff10180a2:	4420                	lw	s0,72(s0)
  fff10180a4:	2049                	0x2049
  fff10180a6:	7865                	lui	a6,0xffff9
  fff10180a8:	3274                	fld	fa3,224(a2)
  fff10180aa:	7366                	ld	t1,120(sp)
  fff10180ac:	7220                	ld	s0,96(a2)
  fff10180ae:	6165                	addi	sp,sp,112
  fff10180b0:	2064                	fld	fs1,192(s0)
  fff10180b2:	6c62                	ld	s8,24(sp)
  fff10180b4:	206b636f          	jal	t1,fff10ce2ba <spl+0xbe23a>
  fff10180b8:	6928                	ld	a0,80(a0)
  fff10180ba:	646e                	ld	s0,216(sp)
  fff10180bc:	7269                	lui	tp,0xffffa
  fff10180be:	3220                	fld	fs0,96(a2)
  fff10180c0:	3120                	fld	fs0,96(a0)
  fff10180c2:	6629                	lui	a2,0xa
  fff10180c4:	6961                	lui	s2,0x18
  fff10180c6:	656c                	ld	a1,200(a0)
  fff10180c8:	2e64                	fld	fs1,216(a2)
  fff10180ca:	2a20                	fld	fs0,80(a2)
  fff10180cc:	0a2a                	slli	s4,s4,0xa
  fff10180ce:	0000                	unimp
  fff10180d0:	2a2a                	fld	fs4,136(sp)
  fff10180d2:	4420                	lw	s0,72(s0)
  fff10180d4:	2049                	0x2049
  fff10180d6:	7865                	lui	a6,0xffff9
  fff10180d8:	3274                	fld	fa3,224(a2)
  fff10180da:	7366                	ld	t1,120(sp)
  fff10180dc:	7220                	ld	s0,96(a2)
  fff10180de:	6165                	addi	sp,sp,112
  fff10180e0:	2064                	fld	fs1,192(s0)
  fff10180e2:	6c62                	ld	s8,24(sp)
  fff10180e4:	206b636f          	jal	t1,fff10ce2ea <spl+0xbe26a>
  fff10180e8:	6928                	ld	a0,80(a0)
  fff10180ea:	646e                	ld	s0,216(sp)
  fff10180ec:	7269                	lui	tp,0xffffa
  fff10180ee:	3220                	fld	fs0,96(a2)
  fff10180f0:	3220                	fld	fs0,96(a2)
  fff10180f2:	6d29                	lui	s10,0xa
  fff10180f4:	6c61                	lui	s8,0x18
  fff10180f6:	6f6c                	ld	a1,216(a4)
  fff10180f8:	61662063          	0x61662063
  fff10180fc:	6c69                	lui	s8,0x1a
  fff10180fe:	6465                	lui	s0,0x19
  fff1018100:	202e                	fld	ft0,200(sp)
  fff1018102:	2a2a                	fld	fs4,136(sp)
  fff1018104:	000a                	c.slli	zero,0x2
  fff1018106:	0000                	unimp
  fff1018108:	2a2a                	fld	fs4,136(sp)
  fff101810a:	4420                	lw	s0,72(s0)
  fff101810c:	2049                	0x2049
  fff101810e:	7865                	lui	a6,0xffff9
  fff1018110:	3274                	fld	fa3,224(a2)
  fff1018112:	7366                	ld	t1,120(sp)
  fff1018114:	7220                	ld	s0,96(a2)
  fff1018116:	6165                	addi	sp,sp,112
  fff1018118:	2064                	fld	fs1,192(s0)
  fff101811a:	6c62                	ld	s8,24(sp)
  fff101811c:	206b636f          	jal	t1,fff10ce322 <spl+0xbe2a2>
  fff1018120:	6928                	ld	a0,80(a0)
  fff1018122:	646e                	ld	s0,216(sp)
  fff1018124:	7269                	lui	tp,0xffffa
  fff1018126:	3220                	fld	fs0,96(a2)
  fff1018128:	3220                	fld	fs0,96(a2)
  fff101812a:	6629                	lui	a2,0xa
  fff101812c:	6961                	lui	s2,0x18
  fff101812e:	656c                	ld	a1,200(a0)
  fff1018130:	2e64                	fld	fs1,216(a2)
  fff1018132:	2a20                	fld	fs0,80(a2)
  fff1018134:	0a2a                	slli	s4,s4,0xa
  fff1018136:	0000                	unimp
  fff1018138:	2a2a                	fld	fs4,136(sp)
  fff101813a:	5420                	lw	s0,104(s0)
  fff101813c:	2049                	0x2049
  fff101813e:	7865                	lui	a6,0xffff9
  fff1018140:	3274                	fld	fa3,224(a2)
  fff1018142:	7366                	ld	t1,120(sp)
  fff1018144:	7220                	ld	s0,96(a2)
  fff1018146:	6165                	addi	sp,sp,112
  fff1018148:	2064                	fld	fs1,192(s0)
  fff101814a:	6c62                	ld	s8,24(sp)
  fff101814c:	206b636f          	jal	t1,fff10ce352 <spl+0xbe2d2>
  fff1018150:	6928                	ld	a0,80(a0)
  fff1018152:	646e                	ld	s0,216(sp)
  fff1018154:	7269                	lui	tp,0xffffa
  fff1018156:	3220                	fld	fs0,96(a2)
  fff1018158:	3120                	fld	fs0,96(a0)
  fff101815a:	6d29                	lui	s10,0xa
  fff101815c:	6c61                	lui	s8,0x18
  fff101815e:	6f6c                	ld	a1,216(a4)
  fff1018160:	61662063          	0x61662063
  fff1018164:	6c69                	lui	s8,0x1a
  fff1018166:	6465                	lui	s0,0x19
  fff1018168:	202e                	fld	ft0,200(sp)
  fff101816a:	2a2a                	fld	fs4,136(sp)
  fff101816c:	000a                	c.slli	zero,0x2
  fff101816e:	0000                	unimp
  fff1018170:	2a2a                	fld	fs4,136(sp)
  fff1018172:	5420                	lw	s0,104(s0)
  fff1018174:	2049                	0x2049
  fff1018176:	7865                	lui	a6,0xffff9
  fff1018178:	3274                	fld	fa3,224(a2)
  fff101817a:	7366                	ld	t1,120(sp)
  fff101817c:	7220                	ld	s0,96(a2)
  fff101817e:	6165                	addi	sp,sp,112
  fff1018180:	2064                	fld	fs1,192(s0)
  fff1018182:	6c62                	ld	s8,24(sp)
  fff1018184:	206b636f          	jal	t1,fff10ce38a <spl+0xbe30a>
  fff1018188:	6928                	ld	a0,80(a0)
  fff101818a:	646e                	ld	s0,216(sp)
  fff101818c:	7269                	lui	tp,0xffffa
  fff101818e:	3220                	fld	fs0,96(a2)
  fff1018190:	3120                	fld	fs0,96(a0)
  fff1018192:	6629                	lui	a2,0xa
  fff1018194:	6961                	lui	s2,0x18
  fff1018196:	656c                	ld	a1,200(a0)
  fff1018198:	2e64                	fld	fs1,216(a2)
  fff101819a:	2a20                	fld	fs0,80(a2)
  fff101819c:	0a2a                	slli	s4,s4,0xa
  fff101819e:	0000                	unimp
  fff10181a0:	2a2a                	fld	fs4,136(sp)
  fff10181a2:	5420                	lw	s0,104(s0)
  fff10181a4:	2049                	0x2049
  fff10181a6:	7865                	lui	a6,0xffff9
  fff10181a8:	3274                	fld	fa3,224(a2)
  fff10181aa:	7366                	ld	t1,120(sp)
  fff10181ac:	7220                	ld	s0,96(a2)
  fff10181ae:	6165                	addi	sp,sp,112
  fff10181b0:	2064                	fld	fs1,192(s0)
  fff10181b2:	6c62                	ld	s8,24(sp)
  fff10181b4:	206b636f          	jal	t1,fff10ce3ba <spl+0xbe33a>
  fff10181b8:	6928                	ld	a0,80(a0)
  fff10181ba:	646e                	ld	s0,216(sp)
  fff10181bc:	7269                	lui	tp,0xffffa
  fff10181be:	3220                	fld	fs0,96(a2)
  fff10181c0:	3220                	fld	fs0,96(a2)
  fff10181c2:	6d29                	lui	s10,0xa
  fff10181c4:	6c61                	lui	s8,0x18
  fff10181c6:	6f6c                	ld	a1,216(a4)
  fff10181c8:	61662063          	0x61662063
  fff10181cc:	6c69                	lui	s8,0x1a
  fff10181ce:	6465                	lui	s0,0x19
  fff10181d0:	202e                	fld	ft0,200(sp)
  fff10181d2:	2a2a                	fld	fs4,136(sp)
  fff10181d4:	000a                	c.slli	zero,0x2
  fff10181d6:	0000                	unimp
  fff10181d8:	2a2a                	fld	fs4,136(sp)
  fff10181da:	5420                	lw	s0,104(s0)
  fff10181dc:	2049                	0x2049
  fff10181de:	7865                	lui	a6,0xffff9
  fff10181e0:	3274                	fld	fa3,224(a2)
  fff10181e2:	7366                	ld	t1,120(sp)
  fff10181e4:	7220                	ld	s0,96(a2)
  fff10181e6:	6165                	addi	sp,sp,112
  fff10181e8:	2064                	fld	fs1,192(s0)
  fff10181ea:	6c62                	ld	s8,24(sp)
  fff10181ec:	206b636f          	jal	t1,fff10ce3f2 <spl+0xbe372>
  fff10181f0:	6928                	ld	a0,80(a0)
  fff10181f2:	646e                	ld	s0,216(sp)
  fff10181f4:	7269                	lui	tp,0xffffa
  fff10181f6:	3220                	fld	fs0,96(a2)
  fff10181f8:	3220                	fld	fs0,96(a2)
  fff10181fa:	6629                	lui	a2,0xa
  fff10181fc:	6961                	lui	s2,0x18
  fff10181fe:	656c                	ld	a1,200(a0)
  fff1018200:	2e64                	fld	fs1,216(a2)
  fff1018202:	2a20                	fld	fs0,80(a2)
  fff1018204:	0a2a                	slli	s4,s4,0xa
  fff1018206:	0000                	unimp
  fff1018208:	6974                	ld	a3,208(a0)
  fff101820a:	656d                	lui	a0,0x1b
  fff101820c:	6162                	ld	sp,24(sp)
  fff101820e:	662d6573          	csrrsi	a0,0x662,26
  fff1018212:	6572                	ld	a0,280(sp)
  fff1018214:	7571                	lui	a0,0xffffc
  fff1018216:	6e65                	lui	t3,0x19
  fff1018218:	00007963          	bgeu	zero,zero,fff101822a <spl+0x81aa>
  fff101821c:	0000                	unimp
  fff101821e:	0000                	unimp
  fff1018220:	6564                	ld	s1,200(a0)
  fff1018222:	6976                	ld	s2,344(sp)
  fff1018224:	745f6563          	bltu	t5,t0,fff101896e <spl+0x88ee>
  fff1018228:	7079                	c.lui	zero,0xffffe
  fff101822a:	0065                	c.nop	25
  fff101822c:	0000                	unimp
  fff101822e:	0000                	unimp
  fff1018230:	6972                	ld	s2,280(sp)
  fff1018232:	2c766373          	csrrsi	t1,0x2c7,12
  fff1018236:	7369                	lui	t1,0xffffa
  fff1018238:	0061                	c.nop	24
  fff101823a:	0000                	unimp
  fff101823c:	0000                	unimp
  fff101823e:	0000                	unimp
  fff1018240:	6d6d                	lui	s10,0x1b
  fff1018242:	2d75                	addiw	s10,s10,29
  fff1018244:	7974                	ld	a3,240(a0)
  fff1018246:	6570                	ld	a2,200(a0)
	...
  fff1018250:	2d69                	addiw	s10,s10,26
  fff1018252:	68636163          	bltu	t1,t1,fff10188d4 <spl+0x8854>
  fff1018256:	2d65                	addiw	s10,s10,25
  fff1018258:	657a6973          	csrrsi	s2,0x657,20
  fff101825c:	0000                	unimp
  fff101825e:	0000                	unimp
  fff1018260:	2d64                	fld	fs1,216(a0)
  fff1018262:	68636163          	bltu	t1,t1,fff10188e4 <spl+0x8864>
  fff1018266:	2d65                	addiw	s10,s10,25
  fff1018268:	657a6973          	csrrsi	s2,0x657,20
  fff101826c:	0000                	unimp
  fff101826e:	0000                	unimp
  fff1018270:	0002                	c.slli64	zero
  fff1018272:	0000                	unimp
  fff1018274:	0000                	unimp
  fff1018276:	3000                	fld	fs0,32(s0)
  fff1018278:	0000                	unimp
  fff101827a:	0000                	unimp
  fff101827c:	0000                	unimp
  fff101827e:	3000                	fld	fs0,32(s0)
  fff1018280:	6f647473          	csrrci	s0,0x6f6,8
  fff1018284:	7475                	lui	s0,0xffffd
  fff1018286:	702d                	c.lui	zero,0xfffeb
  fff1018288:	7461                	lui	s0,0xffff8
  fff101828a:	0068                	addi	a0,sp,12
  fff101828c:	0000                	unimp
  fff101828e:	0000                	unimp
  fff1018290:	736e6f63          	bltu	t3,s6,fff10189ce <spl+0x894e>
  fff1018294:	00656c6f          	jal	s8,fff106e29a <spl+0x5e21a>
  fff1018298:	6f4e                	ld	t5,208(sp)
  fff101829a:	7320                	ld	s0,96(a4)
  fff101829c:	7265                	lui	tp,0xffff9
  fff101829e:	6169                	addi	sp,sp,208
  fff10182a0:	206c                	fld	fa1,192(s0)
  fff10182a2:	7264                	ld	s1,224(a2)
  fff10182a4:	7669                	lui	a2,0xffffa
  fff10182a6:	7265                	lui	tp,0xffff9
  fff10182a8:	6620                	ld	s0,72(a2)
  fff10182aa:	646e756f          	jal	a0,fff10ff8f0 <spl+0xef870>
  fff10182ae:	0000                	unimp
  fff10182b0:	6172                	ld	sp,280(sp)
  fff10182b2:	676e                	ld	a4,216(sp)
  fff10182b4:	7365                	lui	t1,0xffff9
  fff10182b6:	0000                	unimp
  fff10182b8:	7570632f          	0x7570632f
  fff10182bc:	00000073          	ecall
  fff10182c0:	276e6143          	fmadd.q	ft2,ft8,fs6,ft4,unknown
  fff10182c4:	2074                	fld	fa3,192(s0)
  fff10182c6:	6966                	ld	s2,88(sp)
  fff10182c8:	646e                	ld	s0,216(sp)
  fff10182ca:	6320                	ld	s0,64(a4)
  fff10182cc:	7570                	ld	a2,232(a0)
  fff10182ce:	6f6e2073          	csrs	0x6f6,t3
  fff10182d2:	6564                	ld	s1,200(a0)
  fff10182d4:	0a21                	addi	s4,s4,8
  fff10182d6:	0000                	unimp
  fff10182d8:	6572                	ld	a0,280(sp)
  fff10182da:	00000067          	jr	zero # 0 <ROM_BASE-0xfff1010000>
  fff10182de:	0000                	unimp
  fff10182e0:	6148                	ld	a0,128(a0)
  fff10182e2:	7472                	ld	s0,312(sp)
  fff10182e4:	4920                	lw	s0,80(a0)
  fff10182e6:	2044                	fld	fs1,128(s0)
  fff10182e8:	6425                	lui	s0,0x9
  fff10182ea:	6920                	ld	s0,80(a0)
  fff10182ec:	756f2073          	csrs	0x756,t5
  fff10182f0:	2074                	fld	fa3,192(s0)
  fff10182f2:	7220666f          	jal	a2,fff101ea14 <spl+0xe994>
  fff10182f6:	6e61                	lui	t3,0x18
  fff10182f8:	202c6567          	0x202c6567
  fff10182fc:	6e69                	lui	t3,0x1a
  fff10182fe:	61657263          	bgeu	a0,s6,fff1018902 <spl+0x8882>
  fff1018302:	43206573          	csrrsi	a0,0x432,0
  fff1018306:	49464e4f          	fnmadd.s	ft8,fa2,fs4,fs1,rmm
  fff101830a:	524e5f47          	fmsub.d	ft10,ft8,ft4,fa0,unknown
  fff101830e:	435f 5550 0a53      	0xa535550435f
  fff1018314:	0000                	unimp
  fff1018316:	0000                	unimp
  fff1018318:	6e6e6143          	fmadd.q	ft2,ft8,ft6,fa3,unknown
  fff101831c:	7320746f          	jal	s0,fff101fa4e <spl+0xf9ce>
  fff1018320:	6e65                	lui	t3,0x19
  fff1018322:	2064                	fld	fs1,192(s0)
  fff1018324:	5049                	c.li	zero,-14
  fff1018326:	2049                	0x2049
  fff1018328:	6f74                	ld	a3,216(a4)
  fff101832a:	6820                	ld	s0,80(s0)
  fff101832c:	7261                	lui	tp,0xffff8
  fff101832e:	2074                	fld	fa3,192(s0)
  fff1018330:	6425                	lui	s0,0x9
  fff1018332:	000a                	c.slli	zero,0x2
  fff1018334:	0000                	unimp
  fff1018336:	0000                	unimp
  fff1018338:	3a6c7073          	csrci	0x3a6,24
  fff101833c:	6e20                	ld	s0,88(a2)
  fff101833e:	6170206f          	j	fff101b154 <spl+0xb0d4>
  fff1018342:	7472                	ld	s0,312(sp)
  fff1018344:	7469                	lui	s0,0xffffa
  fff1018346:	6f69                	lui	t5,0x1a
  fff1018348:	206e                	fld	ft0,216(sp)
  fff101834a:	6174                	ld	a3,192(a0)
  fff101834c:	6c62                	ld	s8,24(sp)
  fff101834e:	2065                	0x2065
  fff1018350:	6f66                	ld	t5,88(sp)
  fff1018352:	6e75                	lui	t3,0x1d
  fff1018354:	0a64                	addi	s1,sp,284
  fff1018356:	0000                	unimp
  fff1018358:	7325                	lui	t1,0xfffe9
  fff101835a:	203a                	fld	ft0,392(sp)
  fff101835c:	7865                	lui	a6,0xffff9
  fff101835e:	3474                	fld	fa3,232(s0)
  fff1018360:	7366                	ld	t1,120(sp)
  fff1018362:	6d20                	ld	s0,88(a0)
  fff1018364:	746e756f          	jal	a0,fff10ffaaa <spl+0xefa2a>
  fff1018368:	6520                	ld	s0,72(a0)
  fff101836a:	7272                	ld	tp,312(sp)
  fff101836c:	2d20                	fld	fs0,88(a0)
  fff101836e:	2520                	fld	fs0,72(a0)
  fff1018370:	0a64                	addi	s1,sp,284
  fff1018372:	0000                	unimp
  fff1018374:	0000                	unimp
  fff1018376:	0000                	unimp
  fff1018378:	3a6c7073          	csrci	0x3a6,24
  fff101837c:	6520                	ld	s0,72(a0)
  fff101837e:	7478                	ld	a4,232(s0)
  fff1018380:	6634                	ld	a3,72(a2)
  fff1018382:	706f5f73          	csrrwi	t5,0x706,30
  fff1018386:	6e65                	lui	t3,0x19
  fff1018388:	6620                	ld	s0,72(a2)
  fff101838a:	6961                	lui	s2,0x18
  fff101838c:	656c                	ld	a1,200(a0)
  fff101838e:	0a64                	addi	s1,sp,284
	...
  fff1018398:	3a6c7073          	csrci	0x3a6,24
  fff101839c:	6520                	ld	s0,72(a0)
  fff101839e:	7478                	ld	a4,232(s0)
  fff10183a0:	6634                	ld	a3,72(a2)
  fff10183a2:	65725f73          	csrrwi	t5,0x657,4
  fff10183a6:	6461                	lui	s0,0x18
  fff10183a8:	6620                	ld	s0,72(a2)
  fff10183aa:	6961                	lui	s2,0x18
  fff10183ac:	656c                	ld	a1,200(a0)
  fff10183ae:	0a64                	addi	s1,sp,284
	...
  fff10183b8:	3a6c7073          	csrci	0x3a6,24
  fff10183bc:	6520                	ld	s0,72(a0)
  fff10183be:	7478                	ld	a4,232(s0)
  fff10183c0:	203a                	fld	ft0,392(sp)
  fff10183c2:	6166                	ld	sp,88(sp)
  fff10183c4:	6c69                	lui	s8,0x1a
  fff10183c6:	6465                	lui	s0,0x19
  fff10183c8:	7420                	ld	s0,104(s0)
  fff10183ca:	6170206f          	j	fff101b1e0 <spl+0xb160>
  fff10183ce:	7372                	ld	t1,312(sp)
  fff10183d0:	2065                	0x2065
  fff10183d2:	6d69                	lui	s10,0x1a
  fff10183d4:	6761                	lui	a4,0x18
  fff10183d6:	2065                	0x2065
  fff10183d8:	6568                	ld	a0,200(a0)
  fff10183da:	6461                	lui	s0,0x18
  fff10183dc:	7265                	lui	tp,0xffff9
  fff10183de:	000a                	c.slli	zero,0x2
  fff10183e0:	7325                	lui	t1,0xfffe9
  fff10183e2:	203a                	fld	ft0,392(sp)
  fff10183e4:	7265                	lui	tp,0xffff9
  fff10183e6:	6f72                	ld	t5,280(sp)
  fff10183e8:	2072                	fld	ft0,280(sp)
  fff10183ea:	6572                	ld	a0,280(sp)
  fff10183ec:	6461                	lui	s0,0x18
  fff10183ee:	6e69                	lui	t3,0x1a
  fff10183f0:	6d692067          	0x6d692067
  fff10183f4:	6761                	lui	a4,0x18
  fff10183f6:	2065                	0x2065
  fff10183f8:	7325                	lui	t1,0xfffe9
  fff10183fa:	202c                	fld	fa1,64(s0)
  fff10183fc:	7265                	lui	tp,0xffff9
  fff10183fe:	2072                	fld	ft0,280(sp)
  fff1018400:	202d                	0x202d
  fff1018402:	6425                	lui	s0,0x9
  fff1018404:	000a                	c.slli	zero,0x2
  fff1018406:	0000                	unimp
  fff1018408:	3a6c7073          	csrci	0x3a6,24
  fff101840c:	7520                	ld	s0,104(a0)
  fff101840e:	736e                	ld	t1,248(sp)
  fff1018410:	7075                	c.lui	zero,0xffffd
  fff1018412:	6f70                	ld	a2,216(a4)
  fff1018414:	7472                	ld	s0,312(sp)
  fff1018416:	6465                	lui	s0,0x19
  fff1018418:	6d20                	ld	s0,88(a0)
  fff101841a:	636d                	lui	t1,0x1b
  fff101841c:	6220                	ld	s0,64(a2)
  fff101841e:	20746f6f          	jal	t5,fff105ee24 <spl+0x4eda4>
  fff1018422:	6564                	ld	s1,200(a0)
  fff1018424:	6976                	ld	s2,344(sp)
  fff1018426:	0a2e6563          	bltu	t3,sp,fff10184d0 <spl+0x8450>
  fff101842a:	0000                	unimp
  fff101842c:	0000                	unimp
  fff101842e:	0000                	unimp
  fff1018430:	3a6c7073          	csrci	0x3a6,24
  fff1018434:	6320                	ld	s0,64(a4)
  fff1018436:	646c756f          	jal	a0,fff10dfa7c <spl+0xcf9fc>
  fff101843a:	6e20                	ld	s0,88(a2)
  fff101843c:	6920746f          	jal	s0,fff101face <spl+0xfa4e>
  fff1018440:	696e                	ld	s2,216(sp)
  fff1018442:	6974                	ld	a3,208(a0)
  fff1018444:	6c61                	lui	s8,0x18
  fff1018446:	7a69                	lui	s4,0xffffa
  fff1018448:	2065                	0x2065
  fff101844a:	6d6d                	lui	s10,0x1b
  fff101844c:	65202e63          	0x65202e63
  fff1018450:	7272                	ld	tp,312(sp)
  fff1018452:	203a726f          	jal	tp,fff10bfe54 <spl+0xafdd4>
  fff1018456:	6425                	lui	s0,0x9
  fff1018458:	000a                	c.slli	zero,0x2
  fff101845a:	0000                	unimp
  fff101845c:	0000                	unimp
  fff101845e:	0000                	unimp
  fff1018460:	3a6c7073          	csrci	0x3a6,24
  fff1018464:	6320                	ld	s0,64(a4)
  fff1018466:	646c756f          	jal	a0,fff10dfaac <spl+0xcfa2c>
  fff101846a:	6e20                	ld	s0,88(a2)
  fff101846c:	6620746f          	jal	s0,fff101face <spl+0xfa4e>
  fff1018470:	6e69                	lui	t3,0x1a
  fff1018472:	2064                	fld	fs1,192(s0)
  fff1018474:	6d6d                	lui	s10,0x1b
  fff1018476:	65642063          	0x65642063
  fff101847a:	6976                	ld	s2,344(sp)
  fff101847c:	25206563          	bltu	zero,s2,fff10186c6 <spl+0x8646>
  fff1018480:	2e64                	fld	fs1,216(a2)
  fff1018482:	6520                	ld	s0,72(a0)
  fff1018484:	7272                	ld	tp,312(sp)
  fff1018486:	203a726f          	jal	tp,fff10bfe88 <spl+0xafe08>
  fff101848a:	6425                	lui	s0,0x9
  fff101848c:	000a                	c.slli	zero,0x2
  fff101848e:	0000                	unimp
  fff1018490:	3a6c7073          	csrci	0x3a6,24
  fff1018494:	6d20                	ld	s0,88(a0)
  fff1018496:	636d                	lui	t1,0x1b
  fff1018498:	6920                	ld	s0,80(a0)
  fff101849a:	696e                	ld	s2,216(sp)
  fff101849c:	2074                	fld	fa3,192(s0)
  fff101849e:	6166                	ld	sp,88(sp)
  fff10184a0:	6c69                	lui	s8,0x1a
  fff10184a2:	6465                	lui	s0,0x19
  fff10184a4:	7720                	ld	s0,104(a4)
  fff10184a6:	7469                	lui	s0,0xffffa
  fff10184a8:	2068                	fld	fa0,192(s0)
  fff10184aa:	7265                	lui	tp,0xffff9
  fff10184ac:	6f72                	ld	t5,280(sp)
  fff10184ae:	3a72                	fld	fs4,312(sp)
  fff10184b0:	2520                	fld	fs0,72(a0)
  fff10184b2:	0a64                	addi	s1,sp,284
  fff10184b4:	0000                	unimp
  fff10184b6:	0000                	unimp
  fff10184b8:	3a6c7073          	csrci	0x3a6,24
  fff10184bc:	6d20                	ld	s0,88(a0)
  fff10184be:	636d                	lui	t1,0x1b
  fff10184c0:	7020                	ld	s0,96(s0)
  fff10184c2:	7261                	lui	tp,0xffff8
  fff10184c4:	6974                	ld	a3,208(a0)
  fff10184c6:	6974                	ld	a3,208(a0)
  fff10184c8:	73206e6f          	jal	t3,fff101ebfa <spl+0xeb7a>
  fff10184cc:	63746977          	0x63746977
  fff10184d0:	2068                	fld	fa0,192(s0)
  fff10184d2:	6166                	ld	sp,88(sp)
  fff10184d4:	6c69                	lui	s8,0x1a
  fff10184d6:	6465                	lui	s0,0x19
  fff10184d8:	000a                	c.slli	zero,0x2
  fff10184da:	0000                	unimp
  fff10184dc:	0000                	unimp
  fff10184de:	0000                	unimp
  fff10184e0:	3a6c7073          	csrci	0x3a6,24
  fff10184e4:	6d20                	ld	s0,88(a0)
  fff10184e6:	636d                	lui	t1,0x1b
  fff10184e8:	203a                	fld	ft0,392(sp)
  fff10184ea:	6e6f7277          	0x6e6f7277
  fff10184ee:	6f622067          	0x6f622067
  fff10184f2:	6d20746f          	jal	s0,fff101fbc4 <spl+0xfb44>
  fff10184f6:	0a65646f          	jal	s0,fff106e59c <spl+0x5e51c>
  fff10184fa:	0000                	unimp
  fff10184fc:	0000                	unimp
  fff10184fe:	0000                	unimp
  fff1018500:	6f62                	ld	t5,24(sp)
  fff1018502:	662f746f          	jal	s0,fff110fb64 <spl+0xffae4>
  fff1018506:	61705f77          	0x61705f77
  fff101850a:	6c79                	lui	s8,0x1e
  fff101850c:	2e64616f          	jal	sp,fff105e7f2 <spl+0x4e772>
  fff1018510:	6962                	ld	s2,24(sp)
  fff1018512:	006e                	c.slli	zero,0x1b
  fff1018514:	0000                	unimp
  fff1018516:	0000                	unimp
  fff1018518:	2d55                	addiw	s10,s10,21
  fff101851a:	6f42                	ld	t5,16(sp)
  fff101851c:	0000746f          	jal	s0,fff101f51c <spl+0xf49c>
  fff1018520:	6e49                	lui	t3,0x12
  fff1018522:	75727473          	csrrci	s0,0x757,4
  fff1018526:	6f697463          	bgeu	s2,s6,fff1018c0e <spl+0x8b8e>
  fff101852a:	206e                	fld	ft0,216(sp)
  fff101852c:	6461                	lui	s0,0x18
  fff101852e:	7264                	ld	s1,224(a2)
  fff1018530:	7365                	lui	t1,0xffff9
  fff1018532:	696d2073          	csrs	0x696,s10
  fff1018536:	696c6173          	csrrsi	sp,0x696,24
  fff101853a:	64656e67          	0x64656e67
  fff101853e:	0000                	unimp
  fff1018540:	6e49                	lui	t3,0x12
  fff1018542:	75727473          	csrrci	s0,0x757,4
  fff1018546:	6f697463          	bgeu	s2,s6,fff1018c2e <spl+0x8bae>
  fff101854a:	206e                	fld	ft0,216(sp)
  fff101854c:	6361                	lui	t1,0x18
  fff101854e:	73736563          	bltu	t1,s7,fff1018c78 <spl+0x8bf8>
  fff1018552:	6620                	ld	s0,72(a2)
  fff1018554:	7561                	lui	a0,0xffff8
  fff1018556:	746c                	ld	a1,232(s0)
	...
  fff1018560:	6c49                	lui	s8,0x12
  fff1018562:	656c                	ld	a1,200(a0)
  fff1018564:	206c6167          	0x206c6167
  fff1018568:	6e69                	lui	t3,0x1a
  fff101856a:	75727473          	csrrci	s0,0x757,4
  fff101856e:	6f697463          	bgeu	s2,s6,fff1018c56 <spl+0x8bd6>
  fff1018572:	006e                	c.slli	zero,0x1b
  fff1018574:	0000                	unimp
  fff1018576:	0000                	unimp
  fff1018578:	7242                	ld	tp,48(sp)
  fff101857a:	6165                	addi	sp,sp,112
  fff101857c:	696f706b          	0x696f706b
  fff1018580:	746e                	ld	s0,248(sp)
  fff1018582:	0000                	unimp
  fff1018584:	0000                	unimp
  fff1018586:	0000                	unimp
  fff1018588:	6f4c                	ld	a1,152(a4)
  fff101858a:	6461                	lui	s0,0x18
  fff101858c:	6120                	ld	s0,64(a0)
  fff101858e:	6464                	ld	s1,200(s0)
  fff1018590:	6572                	ld	a0,280(sp)
  fff1018592:	6d207373          	csrrci	t1,0x6d2,0
  fff1018596:	7369                	lui	t1,0xffffa
  fff1018598:	6c61                	lui	s8,0x18
  fff101859a:	6769                	lui	a4,0x1a
  fff101859c:	656e                	ld	a0,216(sp)
  fff101859e:	0064                	addi	s1,sp,12
  fff10185a0:	6f4c                	ld	a1,152(a4)
  fff10185a2:	6461                	lui	s0,0x18
  fff10185a4:	6120                	ld	s0,64(a0)
  fff10185a6:	73656363          	bltu	a0,s6,fff1018ccc <spl+0x8c4c>
  fff10185aa:	61662073          	csrs	0x616,a2
  fff10185ae:	6c75                	lui	s8,0x1d
  fff10185b0:	0074                	addi	a3,sp,12
  fff10185b2:	0000                	unimp
  fff10185b4:	0000                	unimp
  fff10185b6:	0000                	unimp
  fff10185b8:	726f7453          	0x726f7453
  fff10185bc:	2f65                	addiw	t5,t5,25
  fff10185be:	4d41                	li	s10,16
  fff10185c0:	6461204f          	fnmadd.h	ft0,ft2,ft6,fa2,rdn
  fff10185c4:	7264                	ld	s1,224(a2)
  fff10185c6:	7365                	lui	t1,0xffff9
  fff10185c8:	696d2073          	csrs	0x696,s10
  fff10185cc:	696c6173          	csrrsi	sp,0x696,24
  fff10185d0:	64656e67          	0x64656e67
  fff10185d4:	0000                	unimp
  fff10185d6:	0000                	unimp
  fff10185d8:	726f7453          	0x726f7453
  fff10185dc:	2f65                	addiw	t5,t5,25
  fff10185de:	4d41                	li	s10,16
  fff10185e0:	6361204f          	fnmadd.d	ft0,ft2,fs6,fa2,rdn
  fff10185e4:	73736563          	bltu	t1,s7,fff1018d0e <spl+0x8c8e>
  fff10185e8:	6620                	ld	s0,72(a2)
  fff10185ea:	7561                	lui	a0,0xffff8
  fff10185ec:	746c                	ld	a1,232(s0)
  fff10185ee:	0000                	unimp
  fff10185f0:	6e45                	lui	t3,0x11
  fff10185f2:	6976                	ld	s2,344(sp)
  fff10185f4:	6f72                	ld	t5,280(sp)
  fff10185f6:	6d6e                	ld	s10,216(sp)
  fff10185f8:	6e65                	lui	t3,0x19
  fff10185fa:	2074                	fld	fa3,192(s0)
  fff10185fc:	6c6c6163          	bltu	s8,t1,fff1018cbe <spl+0x8c3e>
  fff1018600:	6620                	ld	s0,72(a2)
  fff1018602:	6f72                	ld	t5,280(sp)
  fff1018604:	206d                	0x206d
  fff1018606:	2d55                	addiw	s10,s10,21
  fff1018608:	6f6d                	lui	t5,0x1b
  fff101860a:	6564                	ld	s1,200(a0)
  fff101860c:	0000                	unimp
  fff101860e:	0000                	unimp
  fff1018610:	6e45                	lui	t3,0x11
  fff1018612:	6976                	ld	s2,344(sp)
  fff1018614:	6f72                	ld	t5,280(sp)
  fff1018616:	6d6e                	ld	s10,216(sp)
  fff1018618:	6e65                	lui	t3,0x19
  fff101861a:	2074                	fld	fa3,192(s0)
  fff101861c:	6c6c6163          	bltu	s8,t1,fff1018cde <spl+0x8c5e>
  fff1018620:	6620                	ld	s0,72(a2)
  fff1018622:	6f72                	ld	t5,280(sp)
  fff1018624:	206d                	0x206d
  fff1018626:	6f6d2d53          	0x6f6d2d53
  fff101862a:	6564                	ld	s1,200(a0)
  fff101862c:	0000                	unimp
  fff101862e:	0000                	unimp
  fff1018630:	6552                	ld	a0,272(sp)
  fff1018632:	76726573          	csrrsi	a0,0x767,4
  fff1018636:	6465                	lui	s0,0x19
	...
  fff1018640:	6e45                	lui	t3,0x11
  fff1018642:	6976                	ld	s2,344(sp)
  fff1018644:	6f72                	ld	t5,280(sp)
  fff1018646:	6d6e                	ld	s10,216(sp)
  fff1018648:	6e65                	lui	t3,0x19
  fff101864a:	2074                	fld	fa3,192(s0)
  fff101864c:	6c6c6163          	bltu	s8,t1,fff1018d0e <spl+0x8c8e>
  fff1018650:	6620                	ld	s0,72(a2)
  fff1018652:	6f72                	ld	t5,280(sp)
  fff1018654:	206d                	0x206d
  fff1018656:	2d4d                	addiw	s10,s10,19
  fff1018658:	6f6d                	lui	t5,0x1b
  fff101865a:	6564                	ld	s1,200(a0)
  fff101865c:	0000                	unimp
  fff101865e:	0000                	unimp
  fff1018660:	6e49                	lui	t3,0x12
  fff1018662:	75727473          	csrrci	s0,0x757,4
  fff1018666:	6f697463          	bgeu	s2,s6,fff1018d4e <spl+0x8cce>
  fff101866a:	206e                	fld	ft0,216(sp)
  fff101866c:	6170                	ld	a2,192(a0)
  fff101866e:	66206567          	0x66206567
  fff1018672:	7561                	lui	a0,0xffff8
  fff1018674:	746c                	ld	a1,232(s0)
  fff1018676:	0000                	unimp
  fff1018678:	6f4c                	ld	a1,152(a4)
  fff101867a:	6461                	lui	s0,0x18
  fff101867c:	7020                	ld	s0,96(s0)
  fff101867e:	6761                	lui	a4,0x18
  fff1018680:	2065                	0x2065
  fff1018682:	6166                	ld	sp,88(sp)
  fff1018684:	6c75                	lui	s8,0x1d
  fff1018686:	0074                	addi	a3,sp,12
  fff1018688:	726f7453          	0x726f7453
  fff101868c:	2f65                	addiw	t5,t5,25
  fff101868e:	4d41                	li	s10,16
  fff1018690:	6170204f          	fnmadd.s	ft0,ft0,fs7,fa2,rdn
  fff1018694:	66206567          	0x66206567
  fff1018698:	7561                	lui	a0,0xffff8
  fff101869a:	746c                	ld	a1,232(s0)
  fff101869c:	0000                	unimp
  fff101869e:	0000                	unimp
  fff10186a0:	4d4d                	li	s10,19
  fff10186a2:	325f3243          	fmadd.d	ft4,ft10,ft5,ft6,rup
  fff10186a6:	0000                	unimp
  fff10186a8:	4d4d                	li	s10,19
  fff10186aa:	00003243          	fmadd.s	ft4,ft0,ft0,ft0,rup
  fff10186ae:	0000                	unimp
  fff10186b0:	4d4d                	li	s10,19
  fff10186b2:	00003143          	fmadd.s	ft2,ft0,ft0,ft0,rup
  fff10186b6:	0000                	unimp
  fff10186b8:	6170                	ld	a2,192(a0)
  fff10186ba:	7472                	ld	s0,312(sp)
  fff10186bc:	7469                	lui	s0,0xffffa
  fff10186be:	6f69                	lui	t5,0x1a
  fff10186c0:	006e                	c.slli	zero,0x1b
  fff10186c2:	0000                	unimp
  fff10186c4:	0000                	unimp
  fff10186c6:	0000                	unimp
  fff10186c8:	4645                	li	a2,17
  fff10186ca:	0049                	c.nop	18
  fff10186cc:	0000                	unimp
  fff10186ce:	0000                	unimp
  fff10186d0:	6c62                	ld	s8,24(sp)
  fff10186d2:	0000006b          	0x6b
  fff10186d6:	0000                	unimp
  fff10186d8:	6469                	lui	s0,0x1a
  fff10186da:	0065                	c.nop	25
  fff10186dc:	0000                	unimp
  fff10186de:	0000                	unimp
  fff10186e0:	69736373          	csrrsi	t1,0x697,6
  fff10186e4:	0000                	unimp
  fff10186e6:	0000                	unimp
  fff10186e8:	7375                	lui	t1,0xffffd
  fff10186ea:	0062                	c.slli	zero,0x18
  fff10186ec:	0000                	unimp
  fff10186ee:	0000                	unimp
  fff10186f0:	61746173          	csrrsi	sp,0x617,8
  fff10186f4:	0000                	unimp
  fff10186f6:	0000                	unimp
  fff10186f8:	6f68                	ld	a0,216(a4)
  fff10186fa:	00007473          	csrrci	s0,ustatus,0
  fff10186fe:	0000                	unimp
  fff1018700:	766e                	ld	a2,248(sp)
  fff1018702:	656d                	lui	a0,0x1b
  fff1018704:	0000                	unimp
  fff1018706:	0000                	unimp
  fff1018708:	6665                	lui	a2,0x19
  fff101870a:	0069                	c.nop	26
  fff101870c:	0000                	unimp
  fff101870e:	0000                	unimp
  fff1018710:	6665                	lui	a2,0x19
  fff1018712:	6c69                	lui	s8,0x1a
  fff1018714:	6564616f          	jal	sp,fff105ed6a <spl+0x4ecea>
  fff1018718:	0072                	c.slli	zero,0x1c
  fff101871a:	0000                	unimp
  fff101871c:	0000                	unimp
  fff101871e:	0000                	unimp
  fff1018720:	6976                	ld	s2,344(sp)
  fff1018722:	7472                	ld	s0,312(sp)
  fff1018724:	6f69                	lui	t5,0x1a
  fff1018726:	0000                	unimp
  fff1018728:	7670                	ld	a2,232(a2)
  fff101872a:	6c62                	ld	s8,24(sp)
  fff101872c:	006b636f          	jal	t1,fff10ce732 <spl+0xbe6b2>
  fff1018730:	6f6c632f          	0x6f6c632f
  fff1018734:	00736b63          	bltu	t1,t2,fff101874a <spl+0x86ca>
  fff1018738:	7269662f          	0x7269662f
  fff101873c:	776d                	lui	a4,0xffffb
  fff101873e:	7261                	lui	tp,0xffff8
  fff1018740:	0065                	c.nop	25
  fff1018742:	0000                	unimp
  fff1018744:	0000                	unimp
  fff1018746:	0000                	unimp
  fff1018748:	6f72                	ld	t5,280(sp)
  fff101874a:	0000746f          	jal	s0,fff101f74a <spl+0xf6ca>
  fff101874e:	0000                	unimp
  fff1018750:	6f72                	ld	t5,280(sp)
  fff1018752:	645f746f          	jal	s0,fff1110596 <spl+0x100516>
  fff1018756:	6972                	ld	s2,280(sp)
  fff1018758:	6576                	ld	a0,344(sp)
  fff101875a:	0072                	c.slli	zero,0x1c
  fff101875c:	0000                	unimp
  fff101875e:	0000                	unimp
  fff1018760:	6f6e                	ld	t5,216(sp)
  fff1018762:	0070                	addi	a2,sp,12
  fff1018764:	0000                	unimp
  fff1018766:	0000                	unimp
  fff1018768:	706d6973          	csrrsi	s2,0x706,26
  fff101876c:	656c                	ld	a1,200(a0)
  fff101876e:	625f 7375 0000      	0x7375625f
  fff1018774:	0000                	unimp
  fff1018776:	0000                	unimp
  fff1018778:	706d6973          	csrrsi	s2,0x706,26
  fff101877c:	656c                	ld	a1,200(a0)
  fff101877e:	622d                	lui	tp,0xb
  fff1018780:	7375                	lui	t1,0xffffd
  fff1018782:	0000                	unimp
  fff1018784:	0000                	unimp
  fff1018786:	0000                	unimp
  fff1018788:	706d6973          	csrrsi	s2,0x706,26
  fff101878c:	656c                	ld	a1,200(a0)
  fff101878e:	6d2d                	lui	s10,0xb
  fff1018790:	6466                	ld	s0,88(sp)
  fff1018792:	0000                	unimp
  fff1018794:	0000                	unimp
  fff1018796:	0000                	unimp
  fff1018798:	6970                	ld	a2,208(a0)
  fff101879a:	6f74                	ld	a3,216(a4)
  fff101879c:	5f6e                	lw	t5,248(sp)
  fff101879e:	6d6d                	lui	s10,0x1b
  fff10187a0:	00000063          	beqz	zero,fff10187a0 <spl+0x8720>
  fff10187a4:	0000                	unimp
  fff10187a6:	0000                	unimp
  fff10187a8:	6e65706f          	j	fff106fe8e <spl+0x5fe0e>
  fff10187ac:	6970                	ld	a2,208(a0)
  fff10187ae:	6f74                	ld	a3,216(a4)
  fff10187b0:	2c6e                	fld	fs8,216(sp)
  fff10187b2:	6970                	ld	a2,208(a0)
  fff10187b4:	6f74                	ld	a3,216(a4)
  fff10187b6:	2d6e                	fld	fs10,216(sp)
  fff10187b8:	6d6d                	lui	s10,0x1b
  fff10187ba:	00000063          	beqz	zero,fff10187ba <spl+0x873a>
  fff10187be:	0000                	unimp
  fff10187c0:	736e                	ld	t1,248(sp)
  fff10187c2:	3631                	addiw	a2,a2,-20
  fff10187c4:	3535                	addiw	a0,a0,-19
  fff10187c6:	5f30                	lw	a2,120(a4)
  fff10187c8:	69726573          	csrrsi	a0,0x697,4
  fff10187cc:	6c61                	lui	s8,0x18
  fff10187ce:	0000                	unimp
  fff10187d0:	736e                	ld	t1,248(sp)
  fff10187d2:	3631                	addiw	a2,a2,-20
  fff10187d4:	3535                	addiw	a0,a0,-19
  fff10187d6:	0030                	addi	a2,sp,8
  fff10187d8:	736e                	ld	t1,248(sp)
  fff10187da:	3631                	addiw	a2,a2,-20
  fff10187dc:	3535                	addiw	a0,a0,-19
  fff10187de:	6130                	ld	a2,64(a0)
	...
  fff10187e8:	6e69                	lui	t3,0x1a
  fff10187ea:	696e6567          	0x696e6567
  fff10187ee:	7a6a2c63          	0x7a6a2c63
  fff10187f2:	3734                	fld	fa3,104(a4)
  fff10187f4:	3038                	fld	fa4,96(s0)
  fff10187f6:	752d                	lui	a0,0xfffeb
  fff10187f8:	7261                	lui	tp,0xffff8
  fff10187fa:	0074                	addi	a3,sp,12
  fff10187fc:	0000                	unimp
  fff10187fe:	0000                	unimp
  fff1018800:	766e                	ld	a2,248(sp)
  fff1018802:	6469                	lui	s0,0x1a
  fff1018804:	6169                	addi	sp,sp,208
  fff1018806:	742c                	ld	a1,104(s0)
  fff1018808:	6765                	lui	a4,0x19
  fff101880a:	6172                	ld	sp,280(sp)
  fff101880c:	3032                	fld	ft0,296(sp)
  fff101880e:	752d                	lui	a0,0xfffeb
  fff1018810:	7261                	lui	tp,0xffff8
  fff1018812:	0074                	addi	a3,sp,12
  fff1018814:	0000                	unimp
  fff1018816:	0000                	unimp
  fff1018818:	73706e73          	csrrsi	t3,0x737,0
  fff101881c:	642c                	ld	a1,72(s0)
  fff101881e:	70612d77          	0x70612d77
  fff1018822:	2d62                	fld	fs10,24(sp)
  fff1018824:	6175                	addi	sp,sp,368
  fff1018826:	7472                	ld	s0,312(sp)
	...
  fff1018830:	6974                	ld	a3,208(a0)
  fff1018832:	656d                	lui	a0,0x1b
  fff1018834:	0072                	c.slli	zero,0x1c
  fff1018836:	0000                	unimp
  fff1018838:	6972                	ld	s2,280(sp)
  fff101883a:	5f766373          	csrrsi	t1,0x5f7,12
  fff101883e:	6974                	ld	a3,208(a0)
  fff1018840:	656d                	lui	a0,0x1b
  fff1018842:	0072                	c.slli	zero,0x1c
  fff1018844:	0000                	unimp
  fff1018846:	0000                	unimp
  fff1018848:	69666973          	csrrsi	s2,0x696,12
  fff101884c:	6576                	ld	a0,344(sp)
  fff101884e:	635f 696c 746e      	0x746e696c635f
  fff1018854:	0000                	unimp
  fff1018856:	0000                	unimp
  fff1018858:	6972                	ld	s2,280(sp)
  fff101885a:	2c766373          	csrrsi	t1,0x2c7,12
  fff101885e:	6e696c63          	bltu	s2,t1,fff1018f56 <spl+0x8ed6>
  fff1018862:	3074                	fld	fa3,224(s0)
  fff1018864:	0000                	unimp
  fff1018866:	0000                	unimp
  fff1018868:	69666973          	csrrsi	s2,0x696,12
  fff101886c:	6576                	ld	a0,344(sp)
  fff101886e:	632c                	ld	a1,64(a4)
  fff1018870:	696c                	ld	a1,208(a0)
  fff1018872:	746e                	ld	s0,248(sp)
  fff1018874:	0030                	addi	a2,sp,8
  fff1018876:	0000                	unimp
  fff1018878:	00757063          	bgeu	a0,t2,fff1018878 <spl+0x87f8>
  fff101887c:	0000                	unimp
  fff101887e:	0000                	unimp
  fff1018880:	6972                	ld	s2,280(sp)
  fff1018882:	5f766373          	csrrsi	t1,0x5f7,12
  fff1018886:	00757063          	bgeu	a0,t2,fff1018886 <spl+0x8806>
  fff101888a:	0000                	unimp
  fff101888c:	0000                	unimp
  fff101888e:	0000                	unimp
  fff1018890:	6972                	ld	s2,280(sp)
  fff1018892:	00766373          	csrrsi	t1,0x7,12
  fff1018896:	0000                	unimp
  fff1018898:	7328                	ld	a0,96(a4)
  fff101889a:	c12a                	sw	a0,128(sp)
  fff101889c:	f81f 11d2 4bba      	0x4bba11d2f81f
  fff10188a2:	a000                	fsd	fs0,0(s0)
  fff10188a4:	3ec9                	addiw	t4,t4,-14
  fff10188a6:	3bc9                	addiw	s7,s7,-14
  fff10188a8:	73757063          	bgeu	a0,s7,fff1018fc8 <spl+0x8f48>
  fff10188ac:	0000                	unimp
  fff10188ae:	0000                	unimp
  fff10188b0:	5f757063          	bgeu	a0,s7,fff1018e90 <spl+0x8e10>
  fff10188b4:	7562                	ld	a0,56(sp)
  fff10188b6:	8a2a0073          	0x8a2a0073
  fff10188ba:	ffff                	0xffff
  fff10188bc:	8a3e                	mv	s4,a5
  fff10188be:	ffff                	0xffff
  fff10188c0:	8a56                	mv	s4,s5
  fff10188c2:	ffff                	0xffff
  fff10188c4:	8a3e                	mv	s4,a5
  fff10188c6:	ffff                	0xffff
  fff10188c8:	8a8e                	mv	s5,gp
  fff10188ca:	ffff                	0xffff
  fff10188cc:	8a8e                	mv	s5,gp
  fff10188ce:	ffff                	0xffff
  fff10188d0:	8a8e                	mv	s5,gp
  fff10188d2:	ffff                	0xffff
  fff10188d4:	8a8e                	mv	s5,gp
  fff10188d6:	ffff                	0xffff
  fff10188d8:	8a3e                	mv	s4,a5
  fff10188da:	ffff                	0xffff
  fff10188dc:	0000                	unimp
  fff10188de:	0000                	unimp
  fff10188e0:	6552                	ld	a0,272(sp)
  fff10188e2:	6f6c                	ld	a1,216(a4)
  fff10188e4:	69746163          	bltu	s0,s7,fff1018f66 <spl+0x8ee6>
  fff10188e8:	6f206e6f          	jal	t3,fff101efda <spl+0xef5a>
  fff10188ec:	2066                	fld	ft0,88(sp)
  fff10188ee:	6f636573          	csrrsi	a0,0x6f6,6
  fff10188f2:	646e                	ld	s0,216(sp)
  fff10188f4:	7261                	lui	tp,0xffff8
  fff10188f6:	2079                	0x2079
  fff10188f8:	6168                	ld	a0,192(a0)
  fff10188fa:	7472                	ld	s0,312(sp)
  fff10188fc:	61682073          	csrs	0x616,a6
  fff1018900:	61662073          	csrs	0x616,a2
  fff1018904:	6c69                	lui	s8,0x1a
  fff1018906:	6465                	lui	s0,0x19
  fff1018908:	202c                	fld	fa1,64(s0)
  fff101890a:	7265                	lui	tp,0xffff9
  fff101890c:	6f72                	ld	t5,280(sp)
  fff101890e:	2072                	fld	ft0,280(sp)
  fff1018910:	6425                	lui	s0,0x9
  fff1018912:	000a                	c.slli	zero,0x2
  fff1018914:	0000                	unimp
  fff1018916:	0000                	unimp
  fff1018918:	0001                	nop
  fff101891a:	0000                	unimp
  fff101891c:	0000                	unimp
  fff101891e:	0000                	unimp
  fff1018920:	84a0                	0x84a0
  fff1018922:	8200                	0x8200
  fff1018924:	0000                	unimp
  fff1018926:	0000                	unimp
  fff1018928:	84c0                	0x84c0
  fff101892a:	8200                	0x8200
  fff101892c:	0000                	unimp
  fff101892e:	0000                	unimp
  fff1018930:	84e0                	0x84e0
  fff1018932:	8200                	0x8200
  fff1018934:	0000                	unimp
  fff1018936:	0000                	unimp
  fff1018938:	84f8                	0x84f8
  fff101893a:	8200                	0x8200
  fff101893c:	0000                	unimp
  fff101893e:	0000                	unimp
  fff1018940:	8508                	0x8508
  fff1018942:	8200                	0x8200
  fff1018944:	0000                	unimp
  fff1018946:	0000                	unimp
  fff1018948:	8520                	0x8520
  fff101894a:	8200                	0x8200
  fff101894c:	0000                	unimp
  fff101894e:	0000                	unimp
  fff1018950:	8538                	0x8538
  fff1018952:	8200                	0x8200
  fff1018954:	0000                	unimp
  fff1018956:	0000                	unimp
  fff1018958:	8558                	0x8558
  fff101895a:	8200                	0x8200
  fff101895c:	0000                	unimp
  fff101895e:	0000                	unimp
  fff1018960:	8570                	0x8570
  fff1018962:	8200                	0x8200
  fff1018964:	0000                	unimp
  fff1018966:	0000                	unimp
  fff1018968:	8590                	0x8590
  fff101896a:	8200                	0x8200
  fff101896c:	0000                	unimp
  fff101896e:	0000                	unimp
  fff1018970:	85b0                	0x85b0
  fff1018972:	8200                	0x8200
  fff1018974:	0000                	unimp
  fff1018976:	0000                	unimp
  fff1018978:	85c0                	0x85c0
  fff101897a:	8200                	0x8200
  fff101897c:	0000                	unimp
  fff101897e:	0000                	unimp
  fff1018980:	85e0                	0x85e0
  fff1018982:	8200                	0x8200
  fff1018984:	0000                	unimp
  fff1018986:	0000                	unimp
  fff1018988:	85f8                	0x85f8
  fff101898a:	8200                	0x8200
  fff101898c:	0000                	unimp
  fff101898e:	0000                	unimp
  fff1018990:	85b0                	0x85b0
  fff1018992:	8200                	0x8200
  fff1018994:	0000                	unimp
  fff1018996:	0000                	unimp
  fff1018998:	8608                	0x8608
  fff101899a:	8200                	0x8200
	...
  fff1018a10:	2412                	fld	fs0,256(sp)
  fff1018a12:	8200                	0x8200
  fff1018a14:	0000                	unimp
  fff1018a16:	0000                	unimp
  fff1018a18:	2396                	fld	ft7,320(sp)
  fff1018a1a:	8200                	0x8200
  fff1018a1c:	0000                	unimp
  fff1018a1e:	0000                	unimp
  fff1018a20:	2324                	fld	fs1,64(a4)
  fff1018a22:	8200                	0x8200
	...
  fff1018a30:	86d0                	0x86d0
  fff1018a32:	8200                	0x8200
	...
  fff1018a40:	86f8                	0x86f8
  fff1018a42:	8200                	0x8200
	...
  fff1018a50:	8708                	0x8708
  fff1018a52:	8200                	0x8200
	...
  fff1018a70:	42ee                	lw	t0,216(sp)
  fff1018a72:	8200                	0x8200
	...
  fff1018a88:	5464                	lw	s1,108(s0)
  fff1018a8a:	8200                	0x8200
  fff1018a8c:	0000                	unimp
  fff1018a8e:	0000                	unimp
  fff1018a90:	8728                	0x8728
  fff1018a92:	8200                	0x8200
	...
  fff1018ac0:	5700                	lw	s0,40(a4)
  fff1018ac2:	8200                	0x8200
	...
  fff1018ad0:	5586                	lw	a1,96(sp)
  fff1018ad2:	8200                	0x8200
	...
  fff1018b00:	8750                	0x8750
  fff1018b02:	8200                	0x8200
	...
  fff1018b10:	8758                	0x8758
  fff1018b12:	8200                	0x8200
	...
  fff1018b20:	8768                	0x8768
  fff1018b22:	8200                	0x8200
  fff1018b24:	0000                	unimp
  fff1018b26:	0000                	unimp
  fff1018b28:	0001                	nop
  fff1018b2a:	0000                	unimp
  fff1018b2c:	0000                	unimp
  fff1018b2e:	0000                	unimp
  fff1018b30:	8780                	0x8780
  fff1018b32:	8200                	0x8200
	...
  fff1018b40:	8798                	0x8798
  fff1018b42:	8200                	0x8200
	...
  fff1018b60:	5b98                	lw	a4,48(a5)
  fff1018b62:	8200                	0x8200
  fff1018b64:	0000                	unimp
  fff1018b66:	0000                	unimp
  fff1018b68:	5a2a                	lw	s4,168(sp)
  fff1018b6a:	8200                	0x8200
  fff1018b6c:	0000                	unimp
  fff1018b6e:	0000                	unimp
  fff1018b70:	5aa4                	lw	s1,112(a3)
  fff1018b72:	8200                	0x8200
	...
  fff1018b80:	5a5a                	lw	s4,180(sp)
  fff1018b82:	8200                	0x8200
	...
  fff1018b98:	5ad8                	lw	a4,52(a3)
  fff1018b9a:	8200                	0x8200
  fff1018b9c:	0000                	unimp
  fff1018b9e:	0000                	unimp
  fff1018ba0:	592c                	lw	a1,112(a0)
  fff1018ba2:	8200                	0x8200
  fff1018ba4:	0000                	unimp
  fff1018ba6:	0000                	unimp
  fff1018ba8:	5dac                	lw	a1,120(a1)
  fff1018baa:	8200                	0x8200
  fff1018bac:	0000                	unimp
  fff1018bae:	0000                	unimp
  fff1018bb0:	87d8                	0x87d8
  fff1018bb2:	8200                	0x8200
	...
  fff1018bc0:	87e8                	0x87e8
  fff1018bc2:	8200                	0x8200
	...
  fff1018be0:	5dcc                	lw	a1,60(a1)
  fff1018be2:	8200                	0x8200
  fff1018be4:	0000                	unimp
  fff1018be6:	0000                	unimp
  fff1018be8:	8810                	0x8810
  fff1018bea:	8200                	0x8200
	...
  fff1018c08:	5fc8                	lw	a0,60(a5)
  fff1018c0a:	8200                	0x8200
  fff1018c0c:	0000                	unimp
  fff1018c0e:	0000                	unimp
  fff1018c10:	5f56                	lw	t5,116(sp)
  fff1018c12:	8200                	0x8200
  fff1018c14:	0000                	unimp
  fff1018c16:	0000                	unimp
  fff1018c18:	5ec8                	lw	a0,60(a3)
  fff1018c1a:	8200                	0x8200
	...
  fff1018c30:	ffff                	0xffff
  fff1018c32:	ffff                	0xffff
  fff1018c34:	ffff                	0xffff
  fff1018c36:	ffff                	0xffff
  fff1018c38:	ffff                	0xffff
  fff1018c3a:	ffff                	0xffff
  fff1018c3c:	0000                	unimp
  fff1018c3e:	0000                	unimp
  fff1018c40:	ffff                	0xffff
  fff1018c42:	ffff                	0xffff
  fff1018c44:	ffff                	0xffff
  fff1018c46:	ffff                	0xffff
	...
  fff1018c58:	8860                	0x8860
  fff1018c5a:	8200                	0x8200
  fff1018c5c:	0000                	unimp
  fff1018c5e:	0000                	unimp
  fff1018c60:	025a                	slli	tp,tp,0x16
  fff1018c62:	8200                	0x8200
  fff1018c64:	0000                	unimp
  fff1018c66:	0000                	unimp
  fff1018c68:	0870                	addi	a2,sp,28
  fff1018c6a:	8200                	0x8200
  fff1018c6c:	0000                	unimp
  fff1018c6e:	0000                	unimp
  fff1018c70:	0060                	addi	s0,sp,12
  fff1018c72:	8200                	0x8200
  fff1018c74:	0000                	unimp
  fff1018c76:	0000                	unimp
  fff1018c78:	96e0                	0x96e0
  fff1018c7a:	8200                	0x8200
  fff1018c7c:	0000                	unimp
  fff1018c7e:	0000                	unimp
  fff1018c80:	1dfc                	addi	a5,sp,764
  fff1018c82:	8200                	0x8200
  fff1018c84:	0000                	unimp
  fff1018c86:	0000                	unimp
  fff1018c88:	0a24                	addi	s1,sp,280
  fff1018c8a:	8200                	0x8200
  fff1018c8c:	0000                	unimp
  fff1018c8e:	0000                	unimp
  fff1018c90:	8898                	0x8898
  fff1018c92:	8200                	0x8200
  fff1018c94:	0000                	unimp
  fff1018c96:	0000                	unimp
  fff1018c98:	9138                	0x9138
  fff1018c9a:	8200                	0x8200
  fff1018c9c:	0000                	unimp
  fff1018c9e:	0000                	unimp
  fff1018ca0:	8bb8                	0x8bb8
  fff1018ca2:	8200                	0x8200
  fff1018ca4:	0000                	unimp
  fff1018ca6:	0000                	unimp
  fff1018ca8:	0118                	addi	a4,sp,128
  fff1018caa:	8200                	0x8200
  fff1018cac:	0000                	unimp
  fff1018cae:	0000                	unimp
  fff1018cb0:	078e                	slli	a5,a5,0x3
  fff1018cb2:	8200                	0x8200
  fff1018cb4:	0000                	unimp
  fff1018cb6:	0000                	unimp
  fff1018cb8:	051c                	addi	a5,sp,640
  fff1018cba:	8200                	0x8200
  fff1018cbc:	0000                	unimp
  fff1018cbe:	0000                	unimp
  fff1018cc0:	07d2                	slli	a5,a5,0x14
  fff1018cc2:	8200                	0x8200
  fff1018cc4:	0000                	unimp
  fff1018cc6:	0000                	unimp
  fff1018cc8:	38c6                	fld	fa7,112(sp)
  fff1018cca:	8200                	0x8200
  fff1018ccc:	0000                	unimp
  fff1018cce:	0000                	unimp
  fff1018cd0:	0010                	0x10
  fff1018cd2:	8200                	0x8200
  fff1018cd4:	0000                	unimp
  fff1018cd6:	0000                	unimp
  fff1018cd8:	0aa6                	slli	s5,s5,0x9
  fff1018cda:	8200                	0x8200
  fff1018cdc:	0000                	unimp
  fff1018cde:	0000                	unimp
  fff1018ce0:	8bb0                	0x8bb0
  fff1018ce2:	8200                	0x8200
  fff1018ce4:	0000                	unimp
  fff1018ce6:	0000                	unimp
  fff1018ce8:	00d8                	addi	a4,sp,68
  fff1018cea:	8200                	0x8200
  fff1018cec:	0000                	unimp
  fff1018cee:	0000                	unimp
  fff1018cf0:	0b86                	slli	s7,s7,0x1
  fff1018cf2:	8200                	0x8200
  fff1018cf4:	0000                	unimp
  fff1018cf6:	0000                	unimp
  fff1018cf8:	0cfa                	slli	s9,s9,0x1e
  fff1018cfa:	8200                	0x8200
  fff1018cfc:	0000                	unimp
  fff1018cfe:	0000                	unimp
  fff1018d00:	8bb4                	0x8bb4
  fff1018d02:	8200                	0x8200
  fff1018d04:	0000                	unimp
  fff1018d06:	0000                	unimp
  fff1018d08:	0aaa                	slli	s5,s5,0xa
  fff1018d0a:	8200                	0x8200
  fff1018d0c:	0000                	unimp
  fff1018d0e:	0000                	unimp
  fff1018d10:	0120                	addi	s0,sp,136
  fff1018d12:	8200                	0x8200
  fff1018d14:	0000                	unimp
  fff1018d16:	0000                	unimp
  fff1018d18:	00e0                	addi	s0,sp,76
  fff1018d1a:	8200                	0x8200
  fff1018d1c:	0000                	unimp
  fff1018d1e:	0000                	unimp
  fff1018d20:	00f0                	addi	a2,sp,76
  fff1018d22:	8200                	0x8200
  fff1018d24:	0000                	unimp
  fff1018d26:	0000                	unimp
  fff1018d28:	0b8a                	slli	s7,s7,0x2
  fff1018d2a:	8200                	0x8200
  fff1018d2c:	0000                	unimp
  fff1018d2e:	0000                	unimp
  fff1018d30:	0d16                	slli	s10,s10,0x5
  fff1018d32:	8200                	0x8200
  fff1018d34:	0000                	unimp
  fff1018d36:	0000                	unimp
  fff1018d38:	0000                	unimp
  fff1018d3a:	8200                	0x8200
  fff1018d3c:	0000                	unimp
  fff1018d3e:	0000                	unimp
  fff1018d40:	0fd6                	slli	t6,t6,0x15
  fff1018d42:	8200                	0x8200
  fff1018d44:	0000                	unimp
  fff1018d46:	0000                	unimp
  fff1018d48:	0018                	0x18
  fff1018d4a:	8200                	0x8200
  fff1018d4c:	0000                	unimp
  fff1018d4e:	0000                	unimp
  fff1018d50:	0cfe                	slli	s9,s9,0x1f
  fff1018d52:	8200                	0x8200
  fff1018d54:	0000                	unimp
  fff1018d56:	0000                	unimp
  fff1018d58:	73a0                	ld	s0,96(a5)
  fff1018d5a:	8200                	0x8200
  fff1018d5c:	0000                	unimp
  fff1018d5e:	0000                	unimp
  fff1018d60:	0000                	unimp
  fff1018d62:	8200                	0x8200
  fff1018d64:	0000                	unimp
  fff1018d66:	0000                	unimp
  fff1018d68:	02e8                	addi	a0,sp,332
  fff1018d6a:	8200                	0x8200
  fff1018d6c:	0000                	unimp
  fff1018d6e:	0000                	unimp
  fff1018d70:	00f8                	addi	a4,sp,76
  fff1018d72:	8200                	0x8200
  fff1018d74:	0000                	unimp
  fff1018d76:	0000                	unimp
  fff1018d78:	0020                	addi	s0,sp,8
  fff1018d7a:	8200                	0x8200
  fff1018d7c:	0000                	unimp
  fff1018d7e:	0000                	unimp
  fff1018d80:	00e8                	addi	a0,sp,76
  fff1018d82:	8200                	0x8200
  fff1018d84:	0000                	unimp
  fff1018d86:	0000                	unimp
  fff1018d88:	00d0                	addi	a2,sp,68
  fff1018d8a:	8200                	0x8200
  fff1018d8c:	0000                	unimp
  fff1018d8e:	0000                	unimp
  fff1018d90:	0792                	slli	a5,a5,0x4
  fff1018d92:	8200                	0x8200
  fff1018d94:	0000                	unimp
  fff1018d96:	0000                	unimp
  fff1018d98:	0a50                	addi	a2,sp,276
  fff1018d9a:	8200                	0x8200
  fff1018d9c:	0000                	unimp
  fff1018d9e:	0000                	unimp
  fff1018da0:	051e                	slli	a0,a0,0x7
  fff1018da2:	8200                	0x8200
  fff1018da4:	0000                	unimp
  fff1018da6:	0000                	unimp
  fff1018da8:	0a56                	slli	s4,s4,0x15
  fff1018daa:	8200                	0x8200
  fff1018dac:	0000                	unimp
  fff1018dae:	0000                	unimp
  fff1018db0:	00c8                	addi	a0,sp,68
  fff1018db2:	8200                	0x8200
  fff1018db4:	0000                	unimp
  fff1018db6:	0000                	unimp
  fff1018db8:	0008                	0x8
  fff1018dba:	8200                	0x8200
  fff1018dbc:	0000                	unimp
  fff1018dbe:	0000                	unimp
  fff1018dc0:	96e0                	0x96e0
  fff1018dc2:	8200                	0x8200
  fff1018dc4:	0000                	unimp
  fff1018dc6:	0000                	unimp
  fff1018dc8:	0100                	addi	s0,sp,128
  fff1018dca:	8200                	0x8200
  fff1018dcc:	0000                	unimp
  fff1018dce:	0000                	unimp
  fff1018dd0:	0a5a                	slli	s4,s4,0x16
  fff1018dd2:	8200                	0x8200
  fff1018dd4:	0000                	unimp
  fff1018dd6:	0000                	unimp
  fff1018dd8:	96e0                	0x96e0
  fff1018dda:	8200                	0x8200
  fff1018ddc:	0000                	unimp
  fff1018dde:	0000                	unimp
  fff1018de0:	96e0                	0x96e0
  fff1018de2:	8200                	0x8200
  fff1018de4:	0000                	unimp
  fff1018de6:	0000                	unimp
  fff1018de8:	8894                	0x8894
  fff1018dea:	8200                	0x8200
  fff1018dec:	0000                	unimp
  fff1018dee:	0000                	unimp
  fff1018df0:	1b0e                	slli	s6,s6,0x23
  fff1018df2:	8200                	0x8200
  fff1018df4:	0000                	unimp
  fff1018df6:	0000                	unimp
  fff1018df8:	7f08                	ld	a0,56(a4)
  fff1018dfa:	8200                	0x8200
  fff1018dfc:	0000                	unimp
  fff1018dfe:	0000                	unimp
  fff1018e00:	004d                	c.nop	19
	...
  fff1018e5e:	0000                	unimp
  fff1018e60:	8990                	0x8990
  fff1018e62:	8200                	0x8200
	...
  fff1018e70:	8830                	0x8830
  fff1018e72:	8200                	0x8200
  fff1018e74:	0000                	unimp
  fff1018e76:	0000                	unimp
  fff1018e78:	0065                	c.nop	25
	...
  fff1018ed2:	0000                	unimp
  fff1018ed4:	0020                	addi	s0,sp,8
	...
  fff1018ee6:	0000                	unimp
  fff1018ee8:	7d38                	ld	a4,120(a0)
  fff1018eea:	8200                	0x8200
  fff1018eec:	0000                	unimp
  fff1018eee:	0000                	unimp
  fff1018ef0:	0016                	c.slli	zero,0x5
	...
  fff1018f06:	0000                	unimp
  fff1018f08:	5348                	lw	a0,36(a4)
  fff1018f0a:	8200                	0x8200
	...
  fff1018f50:	89f0                	0x89f0
  fff1018f52:	8200                	0x8200
	...
  fff1018f60:	8740                	0x8740
  fff1018f62:	8200                	0x8200
  fff1018f64:	0000                	unimp
  fff1018f66:	0000                	unimp
  fff1018f68:	0064                	addi	s1,sp,12
  fff1018f6a:	0000                	unimp
  fff1018f6c:	0000                	unimp
  fff1018f6e:	0000                	unimp
  fff1018f70:	8a80                	0x8a80
  fff1018f72:	8200                	0x8200
	...
  fff1018f80:	5c24                	lw	s1,120(s0)
  fff1018f82:	8200                	0x8200
	...
  fff1018f98:	5962                	lw	s2,56(sp)
  fff1018f9a:	8200                	0x8200
	...
  fff1018fb8:	0020                	addi	s0,sp,8
  fff1018fba:	0000                	unimp
  fff1018fbc:	0020                	addi	s0,sp,8
	...
  fff1018fc6:	0000                	unimp
  fff1018fc8:	8ae0                	0x8ae0
  fff1018fca:	8200                	0x8200
	...
  fff1018fd8:	8718                	0x8718
  fff1018fda:	8200                	0x8200
  fff1018fdc:	0000                	unimp
  fff1018fde:	0000                	unimp
  fff1018fe0:	00000043          	fmadd.s	ft0,ft0,ft0,ft0,rne
  fff1018fe4:	0000                	unimp
  fff1018fe6:	0000                	unimp
  fff1018fe8:	8a10                	0x8a10
  fff1018fea:	8200                	0x8200
  fff1018fec:	0000                	unimp
  fff1018fee:	0000                	unimp
  fff1018ff0:	56c4                	lw	s1,44(a3)
  fff1018ff2:	8200                	0x8200
  fff1018ff4:	0000                	unimp
  fff1018ff6:	0000                	unimp
  fff1018ff8:	5684                	lw	s1,40(a3)
  fff1018ffa:	8200                	0x8200
	...
  fff1019010:	558a                	lw	a1,160(sp)
  fff1019012:	8200                	0x8200
	...
  fff1019030:	0008                	0x8
  fff1019032:	0000                	unimp
  fff1019034:	0120                	addi	s0,sp,136
	...
  fff101903e:	0000                	unimp
  fff1019040:	8a30                	0x8a30
  fff1019042:	8200                	0x8200
	...
  fff1019050:	8800                	0x8800
  fff1019052:	8200                	0x8200
  fff1019054:	0000                	unimp
  fff1019056:	0000                	unimp
  fff1019058:	001e                	c.slli	zero,0x7
  fff101905a:	0000                	unimp
  fff101905c:	0000                	unimp
  fff101905e:	0000                	unimp
  fff1019060:	8b68                	0x8b68
  fff1019062:	8200                	0x8200
  fff1019064:	0000                	unimp
  fff1019066:	0000                	unimp
  fff1019068:	6006                	0x6006
  fff101906a:	8200                	0x8200
  fff101906c:	0000                	unimp
  fff101906e:	0000                	unimp
  fff1019070:	5ec4                	lw	s1,60(a3)
  fff1019072:	8200                	0x8200
	...
  fff10190b8:	8b88                	0x8b88
  fff10190ba:	8200                	0x8200
  fff10190bc:	0000                	unimp
  fff10190be:	0000                	unimp
  fff10190c0:	0004                	0x4
  fff10190c2:	0000                	unimp
  fff10190c4:	0000                	unimp
  fff10190c6:	0000                	unimp
  fff10190c8:	87b8                	0x87b8
  fff10190ca:	8200                	0x8200
  fff10190cc:	0000                	unimp
  fff10190ce:	0000                	unimp
  fff10190d0:	0072                	c.slli	zero,0x1c
	...
  fff10190e6:	0000                	unimp
  fff10190e8:	5db2                	lw	s11,44(sp)
  fff10190ea:	8200                	0x8200
	...
  fff1019130:	8b28                	0x8b28
  fff1019132:	8200                	0x8200
  fff1019134:	0000                	unimp
  fff1019136:	0000                	unimp
  fff1019138:	0004                	0x4
  fff101913a:	0000                	unimp
  fff101913c:	0000                	unimp
  fff101913e:	0000                	unimp
  fff1019140:	86d0                	0x86d0
  fff1019142:	8200                	0x8200
	...
  fff10191b8:	87c8                	0x87c8
  fff10191ba:	8200                	0x8200
  fff10191bc:	0000                	unimp
  fff10191be:	0000                	unimp
  fff10191c0:	0072                	c.slli	zero,0x1c
  fff10191c2:	0000                	unimp
  fff10191c4:	0000                	unimp
  fff10191c6:	0000                	unimp
  fff10191c8:	8b30                	0x8b30
  fff10191ca:	8200                	0x8200
	...
  fff10191d8:	5de6                	lw	s11,120(sp)
  fff10191da:	8200                	0x8200
	...
  fff1019220:	8b60                	0x8b60
  fff1019222:	8200                	0x8200
  fff1019224:	0000                	unimp
  fff1019226:	0000                	unimp
  fff1019228:	0004                	0x4
  fff101922a:	0000                	unimp
  fff101922c:	0000                	unimp
  fff101922e:	0000                	unimp
  fff1019230:	86e8                	0x86e8
  fff1019232:	8200                	0x8200
  fff1019234:	0000                	unimp
  fff1019236:	0000                	unimp
  fff1019238:	0065                	c.nop	25
  fff101923a:	0000                	unimp
  fff101923c:	0000                	unimp
  fff101923e:	0000                	unimp
  fff1019240:	89c0                	0x89c0
  fff1019242:	8200                	0x8200
	...
  fff10192a0:	0004                	0x4
  fff10192a2:	0000                	unimp
  fff10192a4:	0000                	unimp
  fff10192a6:	0000                	unimp
  fff10192a8:	027e                	slli	tp,tp,0x1f
  fff10192aa:	8200                	0x8200
  fff10192ac:	0000                	unimp
  fff10192ae:	0000                	unimp
  fff10192b0:	0002                	c.slli64	zero
  fff10192b2:	0000                	unimp
  fff10192b4:	0000                	unimp
  fff10192b6:	0000                	unimp
  fff10192b8:	8648                	0x8648
  fff10192ba:	8200                	0x8200
  fff10192bc:	0000                	unimp
  fff10192be:	0000                	unimp
  fff10192c0:	0005                	c.nop	1
  fff10192c2:	0000                	unimp
  fff10192c4:	0080                	addi	s0,sp,64
  fff10192c6:	0000                	unimp
  fff10192c8:	2a92                	fld	fs5,256(sp)
  fff10192ca:	8200                	0x8200
	...
  fff10192d8:	259c                	fld	fa5,8(a1)
  fff10192da:	8200                	0x8200
  fff10192dc:	0000                	unimp
  fff10192de:	0000                	unimp
  fff10192e0:	8630                	0x8630
  fff10192e2:	8200                	0x8200
  fff10192e4:	0000                	unimp
  fff10192e6:	0000                	unimp
  fff10192e8:	0001                	nop
  fff10192ea:	0000                	unimp
  fff10192ec:	0000                	unimp
  fff10192ee:	0000                	unimp
  fff10192f0:	0eac                	addi	a1,sp,856
  fff10192f2:	8200                	0x8200
  fff10192f4:	0000                	unimp
  fff10192f6:	0000                	unimp
  fff10192f8:	8628                	0x8628
  fff10192fa:	8200                	0x8200
  fff10192fc:	0000                	unimp
  fff10192fe:	0000                	unimp
  fff1019300:	0002                	c.slli64	zero
  fff1019302:	0000                	unimp
  fff1019304:	0000                	unimp
  fff1019306:	0000                	unimp
  fff1019308:	0eac                	addi	a1,sp,856
  fff101930a:	8200                	0x8200
  fff101930c:	0000                	unimp
  fff101930e:	0000                	unimp
  fff1019310:	8620                	0x8620
  fff1019312:	8200                	0x8200
  fff1019314:	0000                	unimp
  fff1019316:	0000                	unimp
  fff1019318:	00000003          	lb	zero,0(zero) # 0 <ROM_BASE-0xfff1010000>
  fff101931c:	0000                	unimp
  fff101931e:	0000                	unimp
  fff1019320:	0eac                	addi	a1,sp,856
  fff1019322:	8200                	0x8200
  fff1019324:	0000                	unimp
  fff1019326:	0000                	unimp
  fff1019328:	8650                	0x8650
  fff101932a:	8200                	0x8200
  fff101932c:	0000                	unimp
  fff101932e:	0000                	unimp
  fff1019330:	0016                	c.slli	zero,0x5
	...
  fff101934e:	0000                	unimp
  fff1019350:	2c08                	fld	fa0,24(s0)
  fff1019352:	8200                	0x8200
	...
  fff1019390:	0088                	addi	a0,sp,64
	...
  fff101939e:	0000                	unimp
  fff10193a0:	87f8                	0x87f8
  fff10193a2:	8200                	0x8200
  fff10193a4:	0000                	unimp
  fff10193a6:	0000                	unimp
  fff10193a8:	001e                	c.slli	zero,0x7
  fff10193aa:	0000                	unimp
  fff10193ac:	0000                	unimp
  fff10193ae:	0000                	unimp
  fff10193b0:	5e18                	lw	a4,56(a2)
  fff10193b2:	8200                	0x8200
	...
  fff10193f0:	5e1c                	lw	a5,56(a2)
  fff10193f2:	8200                	0x8200
	...
  fff1019414:	0001                	nop
  fff1019416:	0000                	unimp
  fff1019418:	8738                	0x8738
  fff101941a:	8200                	0x8200
  fff101941c:	0000                	unimp
  fff101941e:	0000                	unimp
  fff1019420:	00000043          	fmadd.s	ft0,ft0,ft0,ft0,rne
	...
  fff101947c:	0008                	0x8
	...
  fff101948a:	0000                	unimp
  fff101948c:	0001                	nop
  fff101948e:	0000                	unimp
  fff1019490:	86e0                	0x86e0
  fff1019492:	8200                	0x8200
  fff1019494:	0000                	unimp
  fff1019496:	0000                	unimp
  fff1019498:	00000047          	fmsub.s	ft0,ft0,ft0,ft0,rne
	...
  fff1019508:	8638                	0x8638
  fff101950a:	8200                	0x8200
  fff101950c:	0000                	unimp
  fff101950e:	0000                	unimp
  fff1019510:	004d                	c.nop	19
	...
  fff101956e:	0000                	unimp
  fff1019570:	0078                	addi	a4,sp,12
	...
  fff101957e:	0000                	unimp
  fff1019580:	86c8                	0x86c8
  fff1019582:	8200                	0x8200
	...
  fff10195f8:	8748                	0x8748
  fff10195fa:	8200                	0x8200
  fff10195fc:	0000                	unimp
  fff10195fe:	0000                	unimp
  fff1019600:	0064                	addi	s1,sp,12
	...
  fff101961e:	0000                	unimp
  fff1019620:	57b8                	lw	a4,104(a5)
  fff1019622:	8200                	0x8200
  fff1019624:	0000                	unimp
  fff1019626:	0000                	unimp
  fff1019628:	57ca                	lw	a5,176(sp)
  fff101962a:	8200                	0x8200
	...
  fff101965c:	0018                	0x18
	...
  fff101966a:	0000                	unimp
  fff101966c:	0001                	nop
  fff101966e:	0000                	unimp
  fff1019670:	86e8                	0x86e8
  fff1019672:	8200                	0x8200
  fff1019674:	0000                	unimp
  fff1019676:	0000                	unimp
  fff1019678:	0065                	c.nop	25
  fff101967a:	0000                	unimp
  fff101967c:	0000                	unimp
  fff101967e:	0000                	unimp
  fff1019680:	3e8a                	fld	ft9,160(sp)
  fff1019682:	8200                	0x8200
	...
  fff10196d8:	0018                	0x18
	...
  fff10196e6:	0000                	unimp
  fff10196e8:	87b0                	0x87b0
  fff10196ea:	8200                	0x8200
  fff10196ec:	0000                	unimp
  fff10196ee:	0000                	unimp
  fff10196f0:	0072                	c.slli	zero,0x1c
	...
  fff1019706:	0000                	unimp
  fff1019708:	5c96                	lw	s9,100(sp)
  fff101970a:	8200                	0x8200
  fff101970c:	0000                	unimp
  fff101970e:	0000                	unimp
  fff1019710:	5c80                	lw	s0,56(s1)
  fff1019712:	8200                	0x8200
	...
  fff101974c:	0008                	0x8
	...
  fff101975a:	0000                	unimp
  fff101975c:	0001                	nop
  fff101975e:	0000                	unimp
  fff1019760:	0dd0                	addi	a2,sp,724
  fff1019762:	edfe                	sd	t6,216(sp)
  fff1019764:	0000                	unimp
  fff1019766:	2c06                	fld	fs8,64(sp)
  fff1019768:	0000                	unimp
  fff101976a:	3800                	fld	fs0,48(s0)
  fff101976c:	0000                	unimp
  fff101976e:	0805                	addi	a6,a6,1
  fff1019770:	0000                	unimp
  fff1019772:	2800                	fld	fs0,16(s0)
  fff1019774:	0000                	unimp
  fff1019776:	1100                	addi	s0,sp,160
  fff1019778:	0000                	unimp
  fff101977a:	0200                	addi	s0,sp,256
  fff101977c:	0000                	unimp
  fff101977e:	0000                	unimp
  fff1019780:	0000                	unimp
  fff1019782:	2401                	sext.w	s0,s0
  fff1019784:	0000                	unimp
  fff1019786:	d004                	sw	s1,32(s0)
	...
  fff1019798:	0000                	unimp
  fff101979a:	0100                	addi	s0,sp,128
  fff101979c:	0000                	unimp
  fff101979e:	0000                	unimp
  fff10197a0:	0000                	unimp
  fff10197a2:	0300                	addi	s0,sp,384
  fff10197a4:	0000                	unimp
  fff10197a6:	0400                	addi	s0,sp,512
  fff10197a8:	0000                	unimp
  fff10197aa:	0000                	unimp
  fff10197ac:	0000                	unimp
  fff10197ae:	0200                	addi	s0,sp,256
  fff10197b0:	0000                	unimp
  fff10197b2:	0300                	addi	s0,sp,384
  fff10197b4:	0000                	unimp
  fff10197b6:	0400                	addi	s0,sp,512
  fff10197b8:	0000                	unimp
  fff10197ba:	0f00                	addi	s0,sp,912
  fff10197bc:	0000                	unimp
  fff10197be:	0200                	addi	s0,sp,256
  fff10197c0:	0000                	unimp
  fff10197c2:	0300                	addi	s0,sp,384
  fff10197c4:	0000                	unimp
  fff10197c6:	1100                	addi	s0,sp,160
  fff10197c8:	0000                	unimp
  fff10197ca:	1b00                	addi	s0,sp,432
  fff10197cc:	6e65706f          	j	fff1070eb2 <spl+0x60e32>
  fff10197d0:	6970                	ld	a2,208(a0)
  fff10197d2:	6f74                	ld	a3,216(a4)
  fff10197d4:	2c6e                	fld	fs8,216(sp)
  fff10197d6:	7261                	lui	tp,0xffff8
  fff10197d8:	6169                	addi	sp,sp,208
  fff10197da:	656e                	ld	a0,216(sp)
  fff10197dc:	0000                	unimp
  fff10197de:	0000                	unimp
  fff10197e0:	0000                	unimp
  fff10197e2:	0100                	addi	s0,sp,128
  fff10197e4:	736f6863          	bltu	t5,s6,fff1019f14 <spl+0x9e94>
  fff10197e8:	6e65                	lui	t3,0x19
  fff10197ea:	0000                	unimp
  fff10197ec:	0000                	unimp
  fff10197ee:	0300                	addi	s0,sp,384
  fff10197f0:	0000                	unimp
  fff10197f2:	1100                	addi	s0,sp,160
  fff10197f4:	0000                	unimp
  fff10197f6:	2600                	fld	fs0,8(a2)
  fff10197f8:	6564                	ld	s1,200(a0)
  fff10197fa:	7562                	ld	a0,56(sp)
  fff10197fc:	6f6c2067          	0x6f6c2067
  fff1019800:	76656c67          	0x76656c67
  fff1019804:	6c65                	lui	s8,0x19
  fff1019806:	393d                	addiw	s2,s2,-17
  fff1019808:	0000                	unimp
  fff101980a:	0000                	unimp
  fff101980c:	0000                	unimp
  fff101980e:	0300                	addi	s0,sp,384
  fff1019810:	0000                	unimp
  fff1019812:	0d00                	addi	s0,sp,656
  fff1019814:	0000                	unimp
  fff1019816:	2f00                	fld	fs0,24(a4)
  fff1019818:	6175                	addi	sp,sp,368
  fff101981a:	7472                	ld	s0,312(sp)
  fff101981c:	3a30                	fld	fa2,112(a2)
  fff101981e:	3131                	addiw	sp,sp,-20
  fff1019820:	3235                	addiw	tp,tp,-19
  fff1019822:	3030                	fld	fa2,96(s0)
  fff1019824:	0000                	unimp
  fff1019826:	0000                	unimp
  fff1019828:	0000                	unimp
  fff101982a:	0200                	addi	s0,sp,256
  fff101982c:	0000                	unimp
  fff101982e:	0100                	addi	s0,sp,128
  fff1019830:	6c61                	lui	s8,0x18
  fff1019832:	6169                	addi	sp,sp,208
  fff1019834:	00736573          	csrrsi	a0,0x7,6
  fff1019838:	0000                	unimp
  fff101983a:	0300                	addi	s0,sp,384
  fff101983c:	0000                	unimp
  fff101983e:	1100                	addi	s0,sp,160
  fff1019840:	0000                	unimp
  fff1019842:	3b00                	fld	fs0,48(a4)
  fff1019844:	7261752f          	0x7261752f
  fff1019848:	4074                	lw	a3,68(s0)
  fff101984a:	6666                	ld	a2,88(sp)
  fff101984c:	3066                	fld	ft0,120(sp)
  fff101984e:	30633263          	0x30633263
  fff1019852:	3030                	fld	fa2,96(s0)
  fff1019854:	0000                	unimp
  fff1019856:	0000                	unimp
  fff1019858:	0000                	unimp
  fff101985a:	0300                	addi	s0,sp,384
  fff101985c:	0000                	unimp
  fff101985e:	1100                	addi	s0,sp,160
  fff1019860:	0000                	unimp
  fff1019862:	4300                	lw	s0,0(a4)
  fff1019864:	7261752f          	0x7261752f
  fff1019868:	4074                	lw	a3,68(s0)
  fff101986a:	6666                	ld	a2,88(sp)
  fff101986c:	3066                	fld	ft0,120(sp)
  fff101986e:	30633263          	0x30633263
  fff1019872:	3030                	fld	fa2,96(s0)
  fff1019874:	0000                	unimp
  fff1019876:	0000                	unimp
  fff1019878:	0000                	unimp
  fff101987a:	0200                	addi	s0,sp,256
  fff101987c:	0000                	unimp
  fff101987e:	0100                	addi	s0,sp,128
  fff1019880:	73757063          	bgeu	a0,s7,fff1019fa0 <spl+0x9f20>
  fff1019884:	0000                	unimp
  fff1019886:	0000                	unimp
  fff1019888:	0000                	unimp
  fff101988a:	0300                	addi	s0,sp,384
  fff101988c:	0000                	unimp
  fff101988e:	0400                	addi	s0,sp,512
  fff1019890:	0000                	unimp
  fff1019892:	0000                	unimp
  fff1019894:	0000                	unimp
  fff1019896:	0100                	addi	s0,sp,128
  fff1019898:	0000                	unimp
  fff101989a:	0300                	addi	s0,sp,384
  fff101989c:	0000                	unimp
  fff101989e:	0400                	addi	s0,sp,512
  fff10198a0:	0000                	unimp
  fff10198a2:	0f00                	addi	s0,sp,912
  fff10198a4:	0000                	unimp
  fff10198a6:	0000                	unimp
  fff10198a8:	0000                	unimp
  fff10198aa:	0300                	addi	s0,sp,384
  fff10198ac:	0000                	unimp
  fff10198ae:	0400                	addi	s0,sp,512
  fff10198b0:	0000                	unimp
  fff10198b2:	4b00                	lw	s0,16(a4)
  fff10198b4:	0700                	addi	s0,sp,896
  fff10198b6:	83f2                	mv	t2,t3
  fff10198b8:	0000                	unimp
  fff10198ba:	0100                	addi	s0,sp,128
  fff10198bc:	40757063          	bgeu	a0,t2,fff1019cbc <spl+0x9c3c>
  fff10198c0:	0030                	addi	a2,sp,8
  fff10198c2:	0000                	unimp
  fff10198c4:	0000                	unimp
  fff10198c6:	0300                	addi	s0,sp,384
  fff10198c8:	0000                	unimp
  fff10198ca:	0400                	addi	s0,sp,512
  fff10198cc:	0000                	unimp
  fff10198ce:	5e00                	lw	s0,56(a2)
  fff10198d0:	f841f903          	0xf841f903
  fff10198d4:	0000                	unimp
  fff10198d6:	0300                	addi	s0,sp,384
  fff10198d8:	0000                	unimp
  fff10198da:	0400                	addi	s0,sp,512
  fff10198dc:	0000                	unimp
  fff10198de:	6e00                	ld	s0,24(a2)
  fff10198e0:	00757063          	bgeu	a0,t2,fff10198e0 <spl+0x9860>
  fff10198e4:	0000                	unimp
  fff10198e6:	0300                	addi	s0,sp,384
  fff10198e8:	0000                	unimp
  fff10198ea:	0400                	addi	s0,sp,512
  fff10198ec:	0000                	unimp
  fff10198ee:	7a00                	ld	s0,48(a2)
  fff10198f0:	0000                	unimp
  fff10198f2:	0000                	unimp
  fff10198f4:	0000                	unimp
  fff10198f6:	0300                	addi	s0,sp,384
  fff10198f8:	0000                	unimp
  fff10198fa:	0500                	addi	s0,sp,640
  fff10198fc:	0000                	unimp
  fff10198fe:	7e00                	ld	s0,56(a2)
  fff1019900:	79616b6f          	jal	s6,fff1030096 <spl+0x20016>
  fff1019904:	0000                	unimp
  fff1019906:	0000                	unimp
  fff1019908:	0000                	unimp
  fff101990a:	0300                	addi	s0,sp,384
  fff101990c:	0000                	unimp
  fff101990e:	1200                	addi	s0,sp,288
  fff1019910:	0000                	unimp
  fff1019912:	1b00                	addi	s0,sp,432
  fff1019914:	7465                	lui	s0,0xffff9
  fff1019916:	2c68                	fld	fa0,216(s0)
  fff1019918:	6120                	ld	s0,64(a0)
  fff101991a:	6972                	ld	s2,280(sp)
  fff101991c:	6e61                	lui	t3,0x18
  fff101991e:	0065                	c.nop	25
  fff1019920:	6972                	ld	s2,280(sp)
  fff1019922:	00766373          	csrrsi	t1,0x7,12
  fff1019926:	0000                	unimp
  fff1019928:	0000                	unimp
  fff101992a:	0300                	addi	s0,sp,384
  fff101992c:	0000                	unimp
  fff101992e:	0b00                	addi	s0,sp,400
  fff1019930:	0000                	unimp
  fff1019932:	8500                	0x8500
  fff1019934:	7672                	ld	a2,312(sp)
  fff1019936:	3436                	fld	fs0,360(sp)
  fff1019938:	6d69                	lui	s10,0x1a
  fff101993a:	6661                	lui	a2,0x18
  fff101993c:	6364                	ld	s1,192(a4)
  fff101993e:	0000                	unimp
  fff1019940:	0000                	unimp
  fff1019942:	0300                	addi	s0,sp,384
  fff1019944:	0000                	unimp
  fff1019946:	0b00                	addi	s0,sp,400
  fff1019948:	0000                	unimp
  fff101994a:	8f00                	0x8f00
  fff101994c:	6972                	ld	s2,280(sp)
  fff101994e:	2c766373          	csrrsi	t1,0x2c7,12
  fff1019952:	39337673          	csrrci	a2,0x393,6
  fff1019956:	0000                	unimp
  fff1019958:	0000                	unimp
  fff101995a:	0300                	addi	s0,sp,384
  fff101995c:	0000                	unimp
  fff101995e:	0000                	unimp
  fff1019960:	0000                	unimp
  fff1019962:	9800                	0x9800
  fff1019964:	0000                	unimp
  fff1019966:	0300                	addi	s0,sp,384
  fff1019968:	0000                	unimp
  fff101996a:	0400                	addi	s0,sp,512
  fff101996c:	0000                	unimp
  fff101996e:	a200                	fsd	fs0,0(a2)
  fff1019970:	0000                	unimp
  fff1019972:	0400                	addi	s0,sp,512
  fff1019974:	0000                	unimp
  fff1019976:	0100                	addi	s0,sp,128
  fff1019978:	6c61                	lui	s8,0x18
  fff101997a:	6169                	addi	sp,sp,208
  fff101997c:	00736573          	csrrsi	a0,0x7,6
  fff1019980:	0000                	unimp
  fff1019982:	0300                	addi	s0,sp,384
  fff1019984:	0000                	unimp
  fff1019986:	1100                	addi	s0,sp,160
  fff1019988:	0000                	unimp
  fff101998a:	3b00                	fld	fs0,48(a4)
  fff101998c:	7261752f          	0x7261752f
  fff1019990:	4074                	lw	a3,68(s0)
  fff1019992:	6666                	ld	a2,88(sp)
  fff1019994:	3066                	fld	ft0,120(sp)
  fff1019996:	30633263          	0x30633263
  fff101999a:	3030                	fld	fa2,96(s0)
  fff101999c:	0000                	unimp
  fff101999e:	0000                	unimp
  fff10199a0:	0000                	unimp
  fff10199a2:	0300                	addi	s0,sp,384
  fff10199a4:	0000                	unimp
  fff10199a6:	1100                	addi	s0,sp,160
  fff10199a8:	0000                	unimp
  fff10199aa:	4300                	lw	s0,0(a4)
  fff10199ac:	7261752f          	0x7261752f
  fff10199b0:	4074                	lw	a3,68(s0)
  fff10199b2:	6666                	ld	a2,88(sp)
  fff10199b4:	3066                	fld	ft0,120(sp)
  fff10199b6:	30633263          	0x30633263
  fff10199ba:	3030                	fld	fa2,96(s0)
  fff10199bc:	0000                	unimp
  fff10199be:	0000                	unimp
  fff10199c0:	0000                	unimp
  fff10199c2:	0200                	addi	s0,sp,256
  fff10199c4:	0000                	unimp
  fff10199c6:	0200                	addi	s0,sp,256
  fff10199c8:	0000                	unimp
  fff10199ca:	0200                	addi	s0,sp,256
  fff10199cc:	0000                	unimp
  fff10199ce:	0100                	addi	s0,sp,128
  fff10199d0:	656d                	lui	a0,0x1b
  fff10199d2:	6f6d                	lui	t5,0x1b
  fff10199d4:	7972                	ld	s2,312(sp)
  fff10199d6:	3840                	fld	fs0,176(s0)
  fff10199d8:	3030                	fld	fa2,96(s0)
  fff10199da:	3030                	fld	fa2,96(s0)
  fff10199dc:	3030                	fld	fa2,96(s0)
  fff10199de:	0030                	addi	a2,sp,8
  fff10199e0:	0000                	unimp
  fff10199e2:	0300                	addi	s0,sp,384
  fff10199e4:	0000                	unimp
  fff10199e6:	0700                	addi	s0,sp,896
  fff10199e8:	0000                	unimp
  fff10199ea:	6e00                	ld	s0,24(a2)
  fff10199ec:	656d                	lui	a0,0x1b
  fff10199ee:	6f6d                	lui	t5,0x1b
  fff10199f0:	7972                	ld	s2,312(sp)
  fff10199f2:	0000                	unimp
  fff10199f4:	0000                	unimp
  fff10199f6:	0300                	addi	s0,sp,384
  fff10199f8:	0000                	unimp
  fff10199fa:	1000                	addi	s0,sp,32
  fff10199fc:	0000                	unimp
  fff10199fe:	7a00                	ld	s0,48(a2)
  fff1019a00:	0000                	unimp
  fff1019a02:	0000                	unimp
  fff1019a04:	0080                	addi	s0,sp,64
  fff1019a06:	0000                	unimp
  fff1019a08:	0000                	unimp
  fff1019a0a:	0000                	unimp
  fff1019a0c:	0040                	addi	s0,sp,4
  fff1019a0e:	0000                	unimp
  fff1019a10:	0000                	unimp
  fff1019a12:	0200                	addi	s0,sp,256
  fff1019a14:	0000                	unimp
  fff1019a16:	0100                	addi	s0,sp,128
  fff1019a18:	63686473          	csrrsi	s0,0x636,16
  fff1019a1c:	4069                	c.li	zero,26
  fff1019a1e:	3066                	fld	ft0,120(sp)
  fff1019a20:	3030                	fld	fa2,96(s0)
  fff1019a22:	3030                	fld	fa2,96(s0)
  fff1019a24:	3030                	fld	fa2,96(s0)
  fff1019a26:	3030                	fld	fa2,96(s0)
  fff1019a28:	0000                	unimp
  fff1019a2a:	0000                	unimp
  fff1019a2c:	0000                	unimp
  fff1019a2e:	0300                	addi	s0,sp,384
  fff1019a30:	0000                	unimp
  fff1019a32:	0500                	addi	s0,sp,640
  fff1019a34:	0000                	unimp
  fff1019a36:	7e00                	ld	s0,56(a2)
  fff1019a38:	79616b6f          	jal	s6,fff10301ce <spl+0x2014e>
  fff1019a3c:	0000                	unimp
  fff1019a3e:	0000                	unimp
  fff1019a40:	0000                	unimp
  fff1019a42:	0300                	addi	s0,sp,384
  fff1019a44:	0000                	unimp
  fff1019a46:	1400                	addi	s0,sp,544
  fff1019a48:	0000                	unimp
  fff1019a4a:	1b00                	addi	s0,sp,432
  fff1019a4c:	6e65706f          	j	fff1071132 <spl+0x610b2>
  fff1019a50:	6970                	ld	a2,208(a0)
  fff1019a52:	6f74                	ld	a3,216(a4)
  fff1019a54:	2c6e                	fld	fs8,216(sp)
  fff1019a56:	6970                	ld	a2,208(a0)
  fff1019a58:	6f74                	ld	a3,216(a4)
  fff1019a5a:	2d6e                	fld	fs10,216(sp)
  fff1019a5c:	6d6d                	lui	s10,0x1b
  fff1019a5e:	00000063          	beqz	zero,fff1019a5e <spl+0x99de>
  fff1019a62:	0300                	addi	s0,sp,384
  fff1019a64:	0000                	unimp
  fff1019a66:	1000                	addi	s0,sp,32
  fff1019a68:	0000                	unimp
  fff1019a6a:	7a00                	ld	s0,48(a2)
  fff1019a6c:	0000                	unimp
  fff1019a6e:	f000                	sd	s0,32(s0)
  fff1019a70:	0000                	unimp
  fff1019a72:	0000                	unimp
  fff1019a74:	0000                	unimp
  fff1019a76:	0f00                	addi	s0,sp,912
  fff1019a78:	30f0                	fld	fa2,224(s1)
  fff1019a7a:	0000                	unimp
  fff1019a7c:	0000                	unimp
  fff1019a7e:	0300                	addi	s0,sp,384
  fff1019a80:	0000                	unimp
  fff1019a82:	0400                	addi	s0,sp,512
  fff1019a84:	0000                	unimp
  fff1019a86:	a200                	fsd	fs0,0(a2)
  fff1019a88:	0000                	unimp
  fff1019a8a:	0500                	addi	s0,sp,640
  fff1019a8c:	0000                	unimp
  fff1019a8e:	0200                	addi	s0,sp,256
  fff1019a90:	0000                	unimp
  fff1019a92:	0100                	addi	s0,sp,128
  fff1019a94:	6175                	addi	sp,sp,368
  fff1019a96:	7472                	ld	s0,312(sp)
  fff1019a98:	6640                	ld	s0,136(a2)
  fff1019a9a:	6666                	ld	a2,88(sp)
  fff1019a9c:	6330                	ld	a2,64(a4)
  fff1019a9e:	6332                	ld	t1,264(sp)
  fff1019aa0:	3030                	fld	fa2,96(s0)
  fff1019aa2:	0030                	addi	a2,sp,8
  fff1019aa4:	0000                	unimp
  fff1019aa6:	0300                	addi	s0,sp,384
  fff1019aa8:	0000                	unimp
  fff1019aaa:	0800                	addi	s0,sp,16
  fff1019aac:	0000                	unimp
  fff1019aae:	1b00                	addi	s0,sp,432
  fff1019ab0:	736e                	ld	t1,248(sp)
  fff1019ab2:	3631                	addiw	a2,a2,-20
  fff1019ab4:	3535                	addiw	a0,a0,-19
  fff1019ab6:	0030                	addi	a2,sp,8
  fff1019ab8:	0000                	unimp
  fff1019aba:	0300                	addi	s0,sp,384
  fff1019abc:	0000                	unimp
  fff1019abe:	1000                	addi	s0,sp,32
  fff1019ac0:	0000                	unimp
  fff1019ac2:	7a00                	ld	s0,48(a2)
  fff1019ac4:	0000                	unimp
  fff1019ac6:	ff00                	sd	s0,56(a4)
  fff1019ac8:	c2f0                	sw	a2,68(a3)
  fff1019aca:	00c0                	addi	s0,sp,68
  fff1019acc:	0000                	unimp
  fff1019ace:	0000                	unimp
  fff1019ad0:	0d00                	addi	s0,sp,656
  fff1019ad2:	0040                	addi	s0,sp,4
  fff1019ad4:	0000                	unimp
  fff1019ad6:	0300                	addi	s0,sp,384
  fff1019ad8:	0000                	unimp
  fff1019ada:	0400                	addi	s0,sp,512
  fff1019adc:	0000                	unimp
  fff1019ade:	5e00                	lw	s0,56(a2)
  fff1019ae0:	f841f903          	0xf841f903
  fff1019ae4:	0000                	unimp
  fff1019ae6:	0300                	addi	s0,sp,384
  fff1019ae8:	0000                	unimp
  fff1019aea:	0400                	addi	s0,sp,512
  fff1019aec:	0000                	unimp
  fff1019aee:	aa00                	fsd	fs0,16(a2)
  fff1019af0:	0100                	addi	s0,sp,128
  fff1019af2:	00c2                	slli	ra,ra,0x10
  fff1019af4:	0000                	unimp
  fff1019af6:	0300                	addi	s0,sp,384
  fff1019af8:	0000                	unimp
  fff1019afa:	0400                	addi	s0,sp,512
  fff1019afc:	0000                	unimp
  fff1019afe:	b800                	fsd	fs0,48(s0)
  fff1019b00:	0000                	unimp
  fff1019b02:	0000                	unimp
  fff1019b04:	0000                	unimp
  fff1019b06:	0300                	addi	s0,sp,384
  fff1019b08:	0000                	unimp
  fff1019b0a:	0400                	addi	s0,sp,512
  fff1019b0c:	0000                	unimp
  fff1019b0e:	a200                	fsd	fs0,0(a2)
  fff1019b10:	0000                	unimp
  fff1019b12:	0600                	addi	s0,sp,768
  fff1019b14:	0000                	unimp
  fff1019b16:	0200                	addi	s0,sp,256
  fff1019b18:	0000                	unimp
  fff1019b1a:	0100                	addi	s0,sp,128
  fff1019b1c:	6e696c63          	bltu	s2,t1,fff101a214 <spl+0xa194>
  fff1019b20:	4074                	lw	a3,68(s0)
  fff1019b22:	6666                	ld	a2,88(sp)
  fff1019b24:	3166                	fld	ft2,120(sp)
  fff1019b26:	3230                	fld	fa2,96(a2)
  fff1019b28:	3030                	fld	fa2,96(s0)
  fff1019b2a:	3030                	fld	fa2,96(s0)
  fff1019b2c:	0000                	unimp
  fff1019b2e:	0000                	unimp
  fff1019b30:	0000                	unimp
  fff1019b32:	0300                	addi	s0,sp,384
  fff1019b34:	0000                	unimp
  fff1019b36:	0d00                	addi	s0,sp,656
  fff1019b38:	0000                	unimp
  fff1019b3a:	1b00                	addi	s0,sp,432
  fff1019b3c:	6972                	ld	s2,280(sp)
  fff1019b3e:	2c766373          	csrrsi	t1,0x2c7,12
  fff1019b42:	6e696c63          	bltu	s2,t1,fff101a23a <spl+0xa1ba>
  fff1019b46:	3074                	fld	fa3,224(s0)
  fff1019b48:	0000                	unimp
  fff1019b4a:	0000                	unimp
  fff1019b4c:	0000                	unimp
  fff1019b4e:	0300                	addi	s0,sp,384
  fff1019b50:	0000                	unimp
  fff1019b52:	1000                	addi	s0,sp,32
  fff1019b54:	0000                	unimp
  fff1019b56:	c200                	sw	s0,0(a2)
  fff1019b58:	0000                	unimp
  fff1019b5a:	0300                	addi	s0,sp,384
  fff1019b5c:	0000                	unimp
  fff1019b5e:	0300                	addi	s0,sp,384
  fff1019b60:	0000                	unimp
  fff1019b62:	0300                	addi	s0,sp,384
  fff1019b64:	0000                	unimp
  fff1019b66:	0700                	addi	s0,sp,896
  fff1019b68:	0000                	unimp
  fff1019b6a:	0300                	addi	s0,sp,384
  fff1019b6c:	0000                	unimp
  fff1019b6e:	1000                	addi	s0,sp,32
  fff1019b70:	0000                	unimp
  fff1019b72:	7a00                	ld	s0,48(a2)
  fff1019b74:	0000                	unimp
  fff1019b76:	ff00                	sd	s0,56(a4)
  fff1019b78:	02f1                	addi	t0,t0,28
  fff1019b7a:	0000                	unimp
  fff1019b7c:	0000                	unimp
  fff1019b7e:	0000                	unimp
  fff1019b80:	0c00                	addi	s0,sp,528
  fff1019b82:	0000                	unimp
  fff1019b84:	0000                	unimp
  fff1019b86:	0300                	addi	s0,sp,384
  fff1019b88:	0000                	unimp
  fff1019b8a:	0800                	addi	s0,sp,16
  fff1019b8c:	0000                	unimp
  fff1019b8e:	d600                	sw	s0,40(a2)
  fff1019b90:	746e6f63          	bltu	t3,t1,fff101a2ee <spl+0xa26e>
  fff1019b94:	6f72                	ld	t5,280(sp)
  fff1019b96:	006c                	addi	a1,sp,12
  fff1019b98:	0000                	unimp
  fff1019b9a:	0200                	addi	s0,sp,256
  fff1019b9c:	0000                	unimp
  fff1019b9e:	0100                	addi	s0,sp,128
  fff1019ba0:	6c70                	ld	a2,216(s0)
  fff1019ba2:	6369                	lui	t1,0x1a
  fff1019ba4:	6640                	ld	s0,136(a2)
  fff1019ba6:	6666                	ld	a2,88(sp)
  fff1019ba8:	3131                	addiw	sp,sp,-20
  fff1019baa:	3030                	fld	fa2,96(s0)
  fff1019bac:	3030                	fld	fa2,96(s0)
  fff1019bae:	0030                	addi	a2,sp,8
  fff1019bb0:	0000                	unimp
  fff1019bb2:	0300                	addi	s0,sp,384
  fff1019bb4:	0000                	unimp
  fff1019bb6:	0400                	addi	s0,sp,512
	...
  fff1019bc0:	0000                	unimp
  fff1019bc2:	0300                	addi	s0,sp,384
  fff1019bc4:	0000                	unimp
  fff1019bc6:	0400                	addi	s0,sp,512
  fff1019bc8:	0000                	unimp
  fff1019bca:	e000                	sd	s0,0(s0)
  fff1019bcc:	0000                	unimp
  fff1019bce:	0100                	addi	s0,sp,128
  fff1019bd0:	0000                	unimp
  fff1019bd2:	0300                	addi	s0,sp,384
  fff1019bd4:	0000                	unimp
  fff1019bd6:	0c00                	addi	s0,sp,528
  fff1019bd8:	0000                	unimp
  fff1019bda:	1b00                	addi	s0,sp,432
  fff1019bdc:	6972                	ld	s2,280(sp)
  fff1019bde:	2c766373          	csrrsi	t1,0x2c7,12
  fff1019be2:	6c70                	ld	a2,216(s0)
  fff1019be4:	6369                	lui	t1,0x1a
  fff1019be6:	0030                	addi	a2,sp,8
  fff1019be8:	0000                	unimp
  fff1019bea:	0300                	addi	s0,sp,384
  fff1019bec:	0000                	unimp
  fff1019bee:	0000                	unimp
  fff1019bf0:	0000                	unimp
  fff1019bf2:	f100                	sd	s0,32(a0)
  fff1019bf4:	0000                	unimp
  fff1019bf6:	0300                	addi	s0,sp,384
  fff1019bf8:	0000                	unimp
  fff1019bfa:	1000                	addi	s0,sp,32
  fff1019bfc:	0000                	unimp
  fff1019bfe:	c200                	sw	s0,0(a2)
  fff1019c00:	0000                	unimp
  fff1019c02:	0300                	addi	s0,sp,384
  fff1019c04:	0000                	unimp
  fff1019c06:	0b00                	addi	s0,sp,400
  fff1019c08:	0000                	unimp
  fff1019c0a:	0300                	addi	s0,sp,384
  fff1019c0c:	0000                	unimp
  fff1019c0e:	0900                	addi	s0,sp,144
  fff1019c10:	0000                	unimp
  fff1019c12:	0300                	addi	s0,sp,384
  fff1019c14:	0000                	unimp
  fff1019c16:	1000                	addi	s0,sp,32
  fff1019c18:	0000                	unimp
  fff1019c1a:	7a00                	ld	s0,48(a2)
  fff1019c1c:	0000                	unimp
  fff1019c1e:	ff00                	sd	s0,56(a4)
  fff1019c20:	10f1                	addi	ra,ra,-4
  fff1019c22:	0000                	unimp
  fff1019c24:	0000                	unimp
  fff1019c26:	0000                	unimp
  fff1019c28:	0004                	0x4
  fff1019c2a:	0000                	unimp
  fff1019c2c:	0000                	unimp
  fff1019c2e:	0300                	addi	s0,sp,384
  fff1019c30:	0000                	unimp
  fff1019c32:	0400                	addi	s0,sp,512
  fff1019c34:	0000                	unimp
  fff1019c36:	0601                	addi	a2,a2,0
  fff1019c38:	0000                	unimp
  fff1019c3a:	0700                	addi	s0,sp,896
  fff1019c3c:	0000                	unimp
  fff1019c3e:	0300                	addi	s0,sp,384
  fff1019c40:	0000                	unimp
  fff1019c42:	0400                	addi	s0,sp,512
  fff1019c44:	0000                	unimp
  fff1019c46:	1901                	addi	s2,s2,-32
  fff1019c48:	0000                	unimp
  fff1019c4a:	0200                	addi	s0,sp,256
  fff1019c4c:	0000                	unimp
  fff1019c4e:	0300                	addi	s0,sp,384
  fff1019c50:	0000                	unimp
  fff1019c52:	0400                	addi	s0,sp,512
  fff1019c54:	0000                	unimp
  fff1019c56:	a200                	fsd	fs0,0(a2)
  fff1019c58:	0000                	unimp
  fff1019c5a:	0100                	addi	s0,sp,128
  fff1019c5c:	0000                	unimp
  fff1019c5e:	0200                	addi	s0,sp,256
  fff1019c60:	0000                	unimp
  fff1019c62:	0200                	addi	s0,sp,256
  fff1019c64:	0000                	unimp
  fff1019c66:	0900                	addi	s0,sp,144
  fff1019c68:	64646123          	0x64646123
  fff1019c6c:	6572                	ld	a0,280(sp)
  fff1019c6e:	632d7373          	csrrci	t1,0x632,26
  fff1019c72:	6c65                	lui	s8,0x19
  fff1019c74:	736c                	ld	a1,224(a4)
  fff1019c76:	2300                	fld	fs0,0(a4)
  fff1019c78:	657a6973          	csrrsi	s2,0x657,20
  fff1019c7c:	632d                	lui	t1,0xb
  fff1019c7e:	6c65                	lui	s8,0x19
  fff1019c80:	736c                	ld	a1,224(a4)
  fff1019c82:	6300                	ld	s0,0(a4)
  fff1019c84:	61706d6f          	jal	s10,fff1020a9a <spl+0x10a1a>
  fff1019c88:	6974                	ld	a3,208(a0)
  fff1019c8a:	6c62                	ld	s8,24(sp)
  fff1019c8c:	0065                	c.nop	25
  fff1019c8e:	6f62                	ld	t5,24(sp)
  fff1019c90:	7261746f          	jal	s0,fff10313b6 <spl+0x21336>
  fff1019c94:	73007367          	0x73007367
  fff1019c98:	6474                	ld	a3,200(s0)
  fff1019c9a:	2d74756f          	jal	a0,fff1061770 <spl+0x516f0>
  fff1019c9e:	6170                	ld	a2,192(a0)
  fff1019ca0:	6874                	ld	a3,208(s0)
  fff1019ca2:	6300                	ld	s0,0(a4)
  fff1019ca4:	6f736e6f          	jal	t3,fff1050b9a <spl+0x40b1a>
  fff1019ca8:	656c                	ld	a1,200(a0)
  fff1019caa:	7300                	ld	s0,32(a4)
  fff1019cac:	7265                	lui	tp,0xffff9
  fff1019cae:	6169                	addi	sp,sp,208
  fff1019cb0:	306c                	fld	fa1,224(s0)
  fff1019cb2:	7400                	ld	s0,40(s0)
  fff1019cb4:	6d69                	lui	s10,0x1a
  fff1019cb6:	6265                	lui	tp,0x19
  fff1019cb8:	7361                	lui	t1,0xffff8
  fff1019cba:	2d65                	addiw	s10,s10,25
  fff1019cbc:	7266                	ld	tp,120(sp)
  fff1019cbe:	7165                	addi	sp,sp,-400
  fff1019cc0:	6575                	lui	a0,0x1d
  fff1019cc2:	636e                	ld	t1,216(sp)
  fff1019cc4:	0079                	c.nop	30
  fff1019cc6:	636f6c63          	bltu	t5,s6,fff101a2fe <spl+0xa27e>
  fff1019cca:	72662d6b          	0x72662d6b
  fff1019cce:	7165                	addi	sp,sp,-400
  fff1019cd0:	6575                	lui	a0,0x1d
  fff1019cd2:	636e                	ld	t1,216(sp)
  fff1019cd4:	0079                	c.nop	30
  fff1019cd6:	6564                	ld	s1,200(a0)
  fff1019cd8:	6976                	ld	s2,344(sp)
  fff1019cda:	745f6563          	bltu	t5,t0,fff101a424 <spl+0xa3a4>
  fff1019cde:	7079                	c.lui	zero,0xffffe
  fff1019ce0:	0065                	c.nop	25
  fff1019ce2:	6572                	ld	a0,280(sp)
  fff1019ce4:	74730067          	jr	1863(t1) # ffffffffffff8747 <spl+0xffffff000efe86c7>
  fff1019ce8:	7461                	lui	s0,0xffff8
  fff1019cea:	7375                	lui	t1,0xffffd
  fff1019cec:	7200                	ld	s0,32(a2)
  fff1019cee:	7369                	lui	t1,0xffffa
  fff1019cf0:	692c7663          	bgeu	s8,s2,fff101a37c <spl+0xa2fc>
  fff1019cf4:	6d006173          	csrrsi	sp,0x6d0,0
  fff1019cf8:	756d                	lui	a0,0xffffb
  fff1019cfa:	742d                	lui	s0,0xfffeb
  fff1019cfc:	7079                	c.lui	zero,0xffffe
  fff1019cfe:	0065                	c.nop	25
  fff1019d00:	6c74                	ld	a3,216(s0)
  fff1019d02:	2d62                	fld	fs10,24(sp)
  fff1019d04:	696c7073          	csrci	0x696,24
  fff1019d08:	0074                	addi	a3,sp,12
  fff1019d0a:	6870                	ld	a2,208(s0)
  fff1019d0c:	6e61                	lui	t3,0x18
  fff1019d0e:	6c64                	ld	s1,216(s0)
  fff1019d10:	0065                	c.nop	25
  fff1019d12:	72727563          	bgeu	tp,t2,fff101a43c <spl+0xa3bc>
  fff1019d16:	6e65                	lui	t3,0x19
  fff1019d18:	2d74                	fld	fa3,216(a0)
  fff1019d1a:	65657073          	csrci	0x656,10
  fff1019d1e:	0064                	addi	s1,sp,12
  fff1019d20:	6572                	ld	a0,280(sp)
  fff1019d22:	68732d67          	0x68732d67
  fff1019d26:	6669                	lui	a2,0x1a
  fff1019d28:	0074                	addi	a3,sp,12
  fff1019d2a:	6e69                	lui	t3,0x1a
  fff1019d2c:	6574                	ld	a3,200(a0)
  fff1019d2e:	7272                	ld	tp,312(sp)
  fff1019d30:	7075                	c.lui	zero,0xffffd
  fff1019d32:	7374                	ld	a3,224(a4)
  fff1019d34:	652d                	lui	a0,0xb
  fff1019d36:	7478                	ld	a4,232(s0)
  fff1019d38:	6e65                	lui	t3,0x19
  fff1019d3a:	6564                	ld	s1,200(a0)
  fff1019d3c:	0064                	addi	s1,sp,12
  fff1019d3e:	6572                	ld	a0,280(sp)
  fff1019d40:	616e2d67          	0x616e2d67
  fff1019d44:	656d                	lui	a0,0x1b
  fff1019d46:	69230073          	0x69230073
  fff1019d4a:	746e                	ld	s0,248(sp)
  fff1019d4c:	7265                	lui	tp,0xffff9
  fff1019d4e:	7572                	ld	a0,312(sp)
  fff1019d50:	7470                	ld	a2,232(s0)
  fff1019d52:	632d                	lui	t1,0xb
  fff1019d54:	6c65                	lui	s8,0x19
  fff1019d56:	736c                	ld	a1,224(a4)
  fff1019d58:	6900                	ld	s0,16(a0)
  fff1019d5a:	746e                	ld	s0,248(sp)
  fff1019d5c:	7265                	lui	tp,0xffff9
  fff1019d5e:	7572                	ld	a0,312(sp)
  fff1019d60:	7470                	ld	a2,232(s0)
  fff1019d62:	632d                	lui	t1,0xb
  fff1019d64:	72746e6f          	jal	t3,fff1060c8a <spl+0x50c0a>
  fff1019d68:	656c6c6f          	jal	s8,fff10e03be <spl+0xd033e>
  fff1019d6c:	0072                	c.slli	zero,0x1c
  fff1019d6e:	6972                	ld	s2,280(sp)
  fff1019d70:	2c766373          	csrrsi	t1,0x2c7,12
  fff1019d74:	616d                	addi	sp,sp,240
  fff1019d76:	2d78                	fld	fa4,216(a0)
  fff1019d78:	7270                	ld	a2,224(a2)
  fff1019d7a:	6f69                	lui	t5,0x1a
  fff1019d7c:	6972                	ld	s2,280(sp)
  fff1019d7e:	7974                	ld	a3,240(a0)
  fff1019d80:	7200                	ld	s0,32(a2)
  fff1019d82:	7369                	lui	t1,0xffffa
  fff1019d84:	6e2c7663          	bgeu	s8,sp,fff101a470 <spl+0xa3f0>
  fff1019d88:	6564                	ld	s1,200(a0)
  fff1019d8a:	0076                	c.slli	zero,0x1d

Disassembly of section .riscv.attributes:

0000000000000000 <.riscv.attributes>:
   0:	3241                	addiw	tp,tp,-16
   2:	0000                	unimp
   4:	7200                	ld	s0,32(a2)
   6:	7369                	lui	t1,0xffffa
   8:	01007663          	bgeu	zero,a6,14 <ROM_BASE-0xfff100ffec>
   c:	0028                	addi	a0,sp,8
   e:	0000                	unimp
  10:	7205                	lui	tp,0xfffe1
  12:	3676                	fld	fa2,376(sp)
  14:	6934                	ld	a3,80(a0)
  16:	7032                	0x7032
  18:	5f30                	lw	a2,120(a4)
  1a:	326d                	addiw	tp,tp,-5
  1c:	3070                	fld	fa2,224(s0)
  1e:	615f 7032 5f30      	0x5f307032615f
  24:	3266                	fld	ft4,120(sp)
  26:	3070                	fld	fa2,224(s0)
  28:	645f 7032 5f30      	0x5f307032645f
  2e:	30703263          	0x30703263
	...

Disassembly of section .debug_line:

0000000000000000 <.debug_line>:
   0:	00c0                	addi	s0,sp,68
   2:	0000                	unimp
   4:	001e0003          	lb	zero,1(t3) # 19001 <ROM_BASE-0xfff0ff6fff>
   8:	0000                	unimp
   a:	0101                	addi	sp,sp,0
   c:	000d0efb          	0xd0efb
  10:	0101                	addi	sp,sp,0
  12:	0101                	addi	sp,sp,0
  14:	0000                	unimp
  16:	0100                	addi	s0,sp,128
  18:	0000                	unimp
  1a:	0001                	nop
  1c:	6f6d                	lui	t5,0x1b
  1e:	6576                	ld	a0,344(sp)
  20:	2e72                	fld	ft8,280(sp)
  22:	00000053          	fadd.s	ft0,ft0,ft0,rne
  26:	0000                	unimp
  28:	0900                	addi	s0,sp,144
  2a:	0002                	c.slli64	zero
  2c:	0100                	addi	s0,sp,128
  2e:	fff1                	bnez	a5,a <ROM_BASE-0xfff100fff6>
  30:	0000                	unimp
  32:	1900                	addi	s0,sp,176
  34:	06090103          	lb	sp,96(s2) # 18060 <ROM_BASE-0xfff0ff7fa0>
  38:	0100                	addi	s0,sp,128
  3a:	02090103          	lb	sp,32(s2)
  3e:	0100                	addi	s0,sp,128
  40:	04090303          	lb	t1,64(s2)
  44:	0100                	addi	s0,sp,128
  46:	04090103          	lb	sp,64(s2)
  4a:	0100                	addi	s0,sp,128
  4c:	02090903          	lb	s2,32(s2)
  50:	0100                	addi	s0,sp,128
  52:	08090103          	lb	sp,128(s2)
  56:	0100                	addi	s0,sp,128
  58:	06090103          	lb	sp,96(s2)
  5c:	0100                	addi	s0,sp,128
  5e:	02090103          	lb	sp,32(s2)
  62:	0100                	addi	s0,sp,128
  64:	06090103          	lb	sp,96(s2)
  68:	0100                	addi	s0,sp,128
  6a:	02090203          	lb	tp,32(s2)
  6e:	0100                	addi	s0,sp,128
  70:	04090103          	lb	sp,64(s2)
  74:	0100                	addi	s0,sp,128
  76:	04090103          	lb	sp,64(s2)
  7a:	0100                	addi	s0,sp,128
  7c:	02090103          	lb	sp,32(s2)
  80:	0100                	addi	s0,sp,128
  82:	02090103          	lb	sp,32(s2)
  86:	0100                	addi	s0,sp,128
  88:	02090103          	lb	sp,32(s2)
  8c:	0100                	addi	s0,sp,128
  8e:	02090103          	lb	sp,32(s2)
  92:	0100                	addi	s0,sp,128
  94:	02090703          	lb	a4,32(s2)
  98:	0100                	addi	s0,sp,128
  9a:	04090103          	lb	sp,64(s2)
  9e:	0100                	addi	s0,sp,128
  a0:	04090103          	lb	sp,64(s2)
  a4:	0100                	addi	s0,sp,128
  a6:	02090303          	lb	t1,32(s2)
  aa:	0100                	addi	s0,sp,128
  ac:	02090103          	lb	sp,32(s2)
  b0:	0100                	addi	s0,sp,128
  b2:	04090103          	lb	sp,64(s2)
  b6:	0100                	addi	s0,sp,128
  b8:	06090103          	lb	sp,96(s2)
  bc:	0100                	addi	s0,sp,128
  be:	0209                	addi	tp,tp,2
  c0:	0000                	unimp
  c2:	0101                	addi	sp,sp,0

Disassembly of section .debug_info:

0000000000000000 <.debug_info>:
   0:	002a                	c.slli	zero,0xa
   2:	0000                	unimp
   4:	0002                	c.slli64	zero
   6:	0000                	unimp
   8:	0000                	unimp
   a:	0108                	addi	a0,sp,128
   c:	0000                	unimp
   e:	0000                	unimp
  10:	0000                	unimp
  12:	f101                	bnez	a0,ffffffffffffff12 <spl+0xffffff000efefe92>
  14:	00ff                	0xff
  16:	0000                	unimp
  18:	0054                	addi	a3,sp,4
  1a:	f101                	bnez	a0,ffffffffffffff1a <spl+0xffffff000efefe9a>
  1c:	00ff                	0xff
  1e:	0000                	unimp
  20:	0000                	unimp
  22:	0000                	unimp
  24:	0008                	0x8
  26:	0000                	unimp
  28:	0058                	addi	a4,sp,4
  2a:	0000                	unimp
  2c:	8001                	c.srli64	s0

Disassembly of section .debug_abbrev:

0000000000000000 <.debug_abbrev>:
   0:	1101                	addi	sp,sp,-32
   2:	1000                	addi	s0,sp,32
   4:	1106                	slli	sp,sp,0x21
   6:	1201                	addi	tp,tp,-32
   8:	0301                	addi	t1,t1,0
   a:	1b0e                	slli	s6,s6,0x23
   c:	250e                	fld	fa0,192(sp)
   e:	130e                	slli	t1,t1,0x23
  10:	0005                	c.nop	1
	...

Disassembly of section .debug_aranges:

0000000000000000 <.debug_aranges>:
   0:	002c                	addi	a1,sp,8
   2:	0000                	unimp
   4:	0002                	c.slli64	zero
   6:	0000                	unimp
   8:	0000                	unimp
   a:	0008                	0x8
   c:	0000                	unimp
   e:	0000                	unimp
  10:	0000                	unimp
  12:	f101                	bnez	a0,ffffffffffffff12 <spl+0xffffff000efefe92>
  14:	00ff                	0xff
  16:	0000                	unimp
  18:	0054                	addi	a3,sp,4
	...

Disassembly of section .debug_str:

0000000000000000 <.debug_str>:
   0:	6f6d                	lui	t5,0x1b
   2:	6576                	ld	a0,344(sp)
   4:	2e72                	fld	ft8,280(sp)
   6:	682f0053          	0x682f0053
   a:	2f656d6f          	jal	s10,56300 <ROM_BASE-0xfff0fb9d00>
   e:	7262                	ld	tp,56(sp)
  10:	6169                	addi	sp,sp,208
  12:	6c6e                	ld	s8,216(sp)
  14:	2f69                	addiw	t5,t5,26
  16:	6e65706f          	j	576fc <ROM_BASE-0xfff0fb8904>
  1a:	6970                	ld	a2,208(a0)
  1c:	6f74                	ld	a3,216(a4)
  1e:	2f6e                	fld	ft10,216(sp)
  20:	6970                	ld	a2,208(a0)
  22:	6f74                	ld	a3,216(a4)
  24:	2f6e                	fld	ft10,216(sp)
  26:	6564                	ld	s1,200(a0)
  28:	6e676973          	csrrsi	s2,0x6e6,14
  2c:	6968632f          	0x6968632f
  30:	7370                	ld	a2,224(a4)
  32:	7465                	lui	s0,0xffff9
  34:	3676722f          	0x3676722f
  38:	5f34                	lw	a3,120(a4)
  3a:	6c70                	ld	a2,216(s0)
  3c:	7461                	lui	s0,0xffff8
  3e:	6f66                	ld	t5,88(sp)
  40:	6d72                	ld	s10,280(sp)
  42:	6f6f622f          	0x6f6f622f
  46:	7274                	ld	a3,224(a2)
  48:	752f6d6f          	jal	s10,f679a <ROM_BASE-0xfff0f19866>
  4c:	622d                	lui	tp,0xb
  4e:	2f746f6f          	jal	t5,46b44 <ROM_BASE-0xfff0fc94bc>
  52:	6f6d                	lui	t5,0x1b
  54:	6576                	ld	a0,344(sp)
  56:	0072                	c.slli	zero,0x1c
  58:	20554e47          	fmsub.s	ft8,fa0,ft5,ft4,rmm
  5c:	5341                	li	t1,-16
  5e:	3220                	fld	fs0,96(a2)
  60:	332e                	fld	ft6,232(sp)
  62:	0035                	c.nop	13
